
boiler.elf:     file format elf32-avr

Sections:
Idx Name          Size      VMA       LMA       File off  Algn
  0 .data         00000072  00800100  000057ce  00005882  2**0
                  CONTENTS, ALLOC, LOAD, DATA
  1 .text         000057ce  00000000  00000000  000000b4  2**1
                  CONTENTS, ALLOC, LOAD, READONLY, CODE
  2 .bss          00000368  00800172  00800172  000058f4  2**0
                  ALLOC
  3 .eeprom       00000043  00810000  00810000  000058f4  2**0
                  CONTENTS, ALLOC, LOAD, DATA
  4 .comment      0000005c  00000000  00000000  00005937  2**0
                  CONTENTS, READONLY
  5 .note.gnu.avr.deviceinfo 0000003c  00000000  00000000  00005994  2**2
                  CONTENTS, READONLY
  6 .debug_aranges 000000e0  00000000  00000000  000059d0  2**3
                  CONTENTS, READONLY, DEBUGGING
  7 .debug_info   00000c37  00000000  00000000  00005ab0  2**0
                  CONTENTS, READONLY, DEBUGGING
  8 .debug_abbrev 000007a4  00000000  00000000  000066e7  2**0
                  CONTENTS, READONLY, DEBUGGING
  9 .debug_line   000004b8  00000000  00000000  00006e8b  2**0
                  CONTENTS, READONLY, DEBUGGING
 10 .debug_str    0000027d  00000000  00000000  00007343  2**0
                  CONTENTS, READONLY, DEBUGGING

Disassembly of section .text:

00000000 <__vectors>:
       0:	7b c2       	rjmp	.+1270   	; 0x4f8 <__ctors_end>
       2:	00 00       	nop
       4:	98 c2       	rjmp	.+1328   	; 0x536 <__bad_interrupt>
       6:	00 00       	nop
       8:	96 c2       	rjmp	.+1324   	; 0x536 <__bad_interrupt>
       a:	00 00       	nop
       c:	94 c2       	rjmp	.+1320   	; 0x536 <__bad_interrupt>
       e:	00 00       	nop
      10:	92 c2       	rjmp	.+1316   	; 0x536 <__bad_interrupt>
      12:	00 00       	nop
      14:	90 c2       	rjmp	.+1312   	; 0x536 <__bad_interrupt>
      16:	00 00       	nop
      18:	8e c2       	rjmp	.+1308   	; 0x536 <__bad_interrupt>
      1a:	00 00       	nop
      1c:	8c c2       	rjmp	.+1304   	; 0x536 <__bad_interrupt>
      1e:	00 00       	nop
      20:	8a c2       	rjmp	.+1300   	; 0x536 <__bad_interrupt>
      22:	00 00       	nop
      24:	88 c2       	rjmp	.+1296   	; 0x536 <__bad_interrupt>
      26:	00 00       	nop
      28:	86 c2       	rjmp	.+1292   	; 0x536 <__bad_interrupt>
      2a:	00 00       	nop
      2c:	84 c2       	rjmp	.+1288   	; 0x536 <__bad_interrupt>
      2e:	00 00       	nop
      30:	82 c2       	rjmp	.+1284   	; 0x536 <__bad_interrupt>
      32:	00 00       	nop
      34:	80 c2       	rjmp	.+1280   	; 0x536 <__bad_interrupt>
      36:	00 00       	nop
      38:	7e c2       	rjmp	.+1276   	; 0x536 <__bad_interrupt>
      3a:	00 00       	nop
      3c:	7c c2       	rjmp	.+1272   	; 0x536 <__bad_interrupt>
      3e:	00 00       	nop
      40:	0c 94 67 22 	jmp	0x44ce	; 0x44ce <__vector_16>
      44:	78 c2       	rjmp	.+1264   	; 0x536 <__bad_interrupt>
      46:	00 00       	nop
      48:	0c 94 1c 0c 	jmp	0x1838	; 0x1838 <__vector_18>
      4c:	74 c2       	rjmp	.+1256   	; 0x536 <__bad_interrupt>
      4e:	00 00       	nop
      50:	0c 94 74 0c 	jmp	0x18e8	; 0x18e8 <__vector_20>
      54:	70 c2       	rjmp	.+1248   	; 0x536 <__bad_interrupt>
      56:	00 00       	nop
      58:	6e c2       	rjmp	.+1244   	; 0x536 <__bad_interrupt>
      5a:	00 00       	nop
      5c:	6c c2       	rjmp	.+1240   	; 0x536 <__bad_interrupt>
      5e:	00 00       	nop
      60:	6a c2       	rjmp	.+1236   	; 0x536 <__bad_interrupt>
      62:	00 00       	nop
      64:	68 c2       	rjmp	.+1232   	; 0x536 <__bad_interrupt>
      66:	00 00       	nop
      68:	66 c2       	rjmp	.+1228   	; 0x536 <__bad_interrupt>
      6a:	00 00       	nop
      6c:	64 c2       	rjmp	.+1224   	; 0x536 <__bad_interrupt>
      6e:	00 00       	nop
      70:	62 c2       	rjmp	.+1220   	; 0x536 <__bad_interrupt>
      72:	00 00       	nop
      74:	60 c2       	rjmp	.+1216   	; 0x536 <__bad_interrupt>
      76:	00 00       	nop
      78:	5e c2       	rjmp	.+1212   	; 0x536 <__bad_interrupt>
      7a:	00 00       	nop
      7c:	5c c2       	rjmp	.+1208   	; 0x536 <__bad_interrupt>
      7e:	00 00       	nop
      80:	5a c2       	rjmp	.+1204   	; 0x536 <__bad_interrupt>
      82:	00 00       	nop
      84:	58 c2       	rjmp	.+1200   	; 0x536 <__bad_interrupt>
      86:	00 00       	nop
      88:	56 c2       	rjmp	.+1196   	; 0x536 <__bad_interrupt>
      8a:	00 00       	nop
      8c:	19 17       	cp	r17, r25
      8e:	3b 17       	cp	r19, r27
      90:	54 17       	cp	r21, r20
      92:	82 17       	cp	r24, r18
      94:	b1 17       	cp	r27, r17
      96:	c5 17       	cp	r28, r21
      98:	0c 18       	sub	r0, r12
      9a:	f6 16       	cp	r15, r22
      9c:	f6 16       	cp	r15, r22
      9e:	46 18       	sub	r4, r6
      a0:	60 18       	sub	r6, r0
      a2:	7a 18       	sub	r7, r10
      a4:	12 19       	sub	r17, r2
      a6:	aa 19       	sub	r26, r10
      a8:	f6 16       	cp	r15, r22
      aa:	f6 16       	cp	r15, r22
      ac:	42 1a       	sub	r4, r18
      ae:	5c 1a       	sub	r5, r28
      b0:	76 1a       	sub	r7, r22
      b2:	11 1b       	sub	r17, r17
      b4:	ac 1b       	sub	r26, r28
      b6:	f6 16       	cp	r15, r22
      b8:	f6 16       	cp	r15, r22
      ba:	47 1c       	adc	r4, r7
      bc:	61 1c       	adc	r6, r1
      be:	7b 1c       	adc	r7, r11
      c0:	16 1d       	adc	r17, r6
      c2:	b1 1d       	adc	r27, r1
      c4:	07 63       	ori	r16, 0x37	; 55
      c6:	42 36       	cpi	r20, 0x62	; 98
      c8:	b7 9b       	sbis	0x16, 7	; 22
      ca:	d8 a7       	std	Y+40, r29	; 0x28
      cc:	1a 39       	cpi	r17, 0x9A	; 154
      ce:	68 56       	subi	r22, 0x68	; 104
      d0:	18 ae       	std	Y+56, r1	; 0x38
      d2:	ba ab       	std	Y+50, r27	; 0x32
      d4:	55 8c       	ldd	r5, Z+29	; 0x1d
      d6:	1d 3c       	cpi	r17, 0xCD	; 205
      d8:	b7 cc       	rjmp	.-1682   	; 0xfffffa48 <__eeprom_end+0xff7efa05>
      da:	57 63       	ori	r21, 0x37	; 55
      dc:	bd 6d       	ori	r27, 0xDD	; 221
      de:	ed fd       	.word	0xfded	; ????
      e0:	75 3e       	cpi	r23, 0xE5	; 229
      e2:	f6 17       	cp	r31, r22
      e4:	72 31       	cpi	r23, 0x12	; 18
      e6:	bf 00       	.word	0x00bf	; ????
      e8:	00 00       	nop
      ea:	80 3f       	cpi	r24, 0xF0	; 240
      ec:	08 00       	.word	0x0008	; ????
      ee:	00 00       	nop
      f0:	be 92       	st	-X, r11
      f2:	24 49       	sbci	r18, 0x94	; 148
      f4:	12 3e       	cpi	r17, 0xE2	; 226
      f6:	ab aa       	std	Y+51, r10	; 0x33
      f8:	aa 2a       	or	r10, r26
      fa:	be cd       	rjmp	.-1156   	; 0xfffffc78 <__eeprom_end+0xff7efc35>
      fc:	cc cc       	rjmp	.-1640   	; 0xfffffa96 <__eeprom_end+0xff7efa53>
      fe:	4c 3e       	cpi	r20, 0xEC	; 236
     100:	00 00       	nop
     102:	00 80       	ld	r0, Z
     104:	be ab       	std	Y+54, r27	; 0x36
     106:	aa aa       	std	Y+50, r10	; 0x32
     108:	aa 3e       	cpi	r26, 0xEA	; 234
     10a:	00 00       	nop
     10c:	00 00       	nop
     10e:	bf 00       	.word	0x00bf	; ????
     110:	00 00       	nop
     112:	80 3f       	cpi	r24, 0xF0	; 240
     114:	00 00       	nop
     116:	00 00       	nop
     118:	00 08       	sbc	r0, r0
     11a:	41 78       	andi	r20, 0x81	; 129
     11c:	d3 bb       	out	0x13, r29	; 19
     11e:	43 87       	std	Z+11, r20	; 0x0b
     120:	d1 13       	cpse	r29, r17
     122:	3d 19       	sub	r19, r13
     124:	0e 3c       	cpi	r16, 0xCE	; 206
     126:	c3 bd       	out	0x23, r28	; 35
     128:	42 82       	std	Z+2, r4	; 0x02
     12a:	ad 2b       	or	r26, r29
     12c:	3e 68       	ori	r19, 0x8E	; 142
     12e:	ec 82       	std	Y+4, r14	; 0x04
     130:	76 be       	out	0x36, r7	; 54
     132:	d9 8f       	std	Y+25, r29	; 0x19
     134:	e1 a9       	ldd	r30, Z+49	; 0x31
     136:	3e 4c       	sbci	r19, 0xCE	; 206
     138:	80 ef       	ldi	r24, 0xF0	; 240
     13a:	ff be       	out	0x3f, r15	; 63
     13c:	01 c4       	rjmp	.+2050   	; 0x940 <_Display_Out+0x56>
     13e:	ff 7f       	andi	r31, 0xFF	; 255
     140:	3f 00       	.word	0x003f	; ????
     142:	00 00       	nop
	...

00000146 <__trampolines_end>:
     146:	ca e4       	ldi	r28, 0x4A	; 74
	...

00000149 <__c.2974>:
     149:	ca e8 00                                            ...

0000014c <__c.2972>:
     14c:	ca ef 00                                            ...

0000014f <__c.2970>:
     14f:	d2 e5 ec ef e5 f0 e0 f2 f3 f0 e0 20 ed ee f7 fc     ........... ....
	...

00000160 <__c.2968>:
     160:	d2 e5 ec ef e5 f0 e0 f2 f3 f0 e0 20 e4 e5 ed fc     ........... ....
	...

00000171 <__c.2966>:
     171:	c8 e7 ec e5 ed 2e 20 ed e0 f1 f2 f0 ee e5 ea 2f     ...... ......../
     181:	6e 20 f0 e5 e3 f3 eb ff f2 ee f0 e0 00              n ...........

0000018e <__c.2964>:
     18e:	c8 e7 ec e5 ed 2e 20 ed e0 f1 f2 f0 ee e5 ea 2f     ...... ......../
     19e:	6e 20 f2 e5 ec ef e5 f0 e0 f2 f3 f0 fb 00           n ............

000001ac <__c.2962>:
     1ac:	ca e4 00                                            ...

000001af <__c.2960>:
     1af:	ca e8 00                                            ...

000001b2 <__c.2958>:
     1b2:	ca ef 00                                            ...

000001b5 <__c.2956>:
     1b5:	d2 e5 ec ef e5 f0 e0 f2 f3 f0 e0 20 ed ee f7 fc     ........... ....
	...

000001c6 <__c.2954>:
     1c6:	d2 e5 ec ef e5 f0 e0 f2 f3 f0 e0 20 e4 e5 ed fc     ........... ....
	...

000001d7 <__c.2952>:
     1d7:	c8 e7 ec e5 ed 2e 20 ed e0 f1 f2 f0 ee e5 ea 2f     ...... ......../
     1e7:	6e 20 f0 e5 e3 f3 eb ff f2 ee f0 e0 00              n ...........

000001f4 <__c.2950>:
     1f4:	c8 e7 ec e5 ed 2e 20 ed e0 f1 f2 f0 ee e5 ea 2f     ...... ......../
     204:	6e 20 f2 e5 ec ef e5 f0 e0 f2 f3 f0 fb 00           n ............

00000212 <__c.2948>:
     212:	ca e4 00                                            ...

00000215 <__c.2946>:
     215:	ca e8 00                                            ...

00000218 <__c.2944>:
     218:	ca ef 00                                            ...

0000021b <__c.2942>:
     21b:	d2 e5 ec ef e5 f0 e0 f2 f3 f0 e0 20 ed ee f7 fc     ........... ....
	...

0000022c <__c.2940>:
     22c:	d2 e5 ec ef e5 f0 e0 f2 f3 f0 e0 20 e4 e5 ed fc     ........... ....
	...

0000023d <__c.2938>:
     23d:	c8 e7 ec e5 ed 2e 20 ed e0 f1 f2 f0 ee e5 ea 2f     ...... ......../
     24d:	6e 20 f0 e5 e3 f3 eb ff f2 ee f0 e0 00              n ...........

0000025a <__c.2936>:
     25a:	c8 e7 ec e5 ed 2e 20 ed e0 f1 f2 f0 ee e5 ea 2f     ...... ......../
     26a:	6e 20 f2 e5 ec ef e5 f0 e0 f2 f3 f0 fb 00           n ............

00000278 <__c.2934>:
     278:	cf e5 f0 e8 ee e4 20 e2 20 20 f1 e5 ea 00           ...... .  ....

00000286 <__c.2932>:
     286:	cf e5 f0 e8 ee e4 20 e2 20 f1 e5 ea 00              ...... . ....

00000293 <__c.2930>:
     293:	cf 20 c2 20 d1 20 d7 20 cf 20 d1 20 c2 00           . . . . . . ..

000002a1 <__c.2928>:
     2a1:	ca ee ed e5 f6 20 f0 e0 e1 2e 20 e4 ed ff 00        ..... .... ....

000002b0 <__c.2926>:
     2b0:	cd e0 f7 e0 eb ee 20 f0 e0 e1 2e 20 e4 ed ff 00     ...... .... ....

000002c0 <__c.2924>:
     2c0:	c4 e5 ed fc 20 ed e5 e4 e5 eb e8 00                 .... .......

000002cc <__c.2922>:
     2cc:	c2 f0 e5 ec ff 00                                   ......

000002d2 <__c.2920>:
     2d2:	d1 f2 e0 f2 f3 f1 20 e4 ed e5 e9 2f 6e 20 ed e5     ...... ..../n ..
     2e2:	e4 e5 eb e8 00                                      .....

000002e7 <__c.2918>:
     2e7:	d0 e5 e6 e8 ec fb 20 e4 e5 ed fc 2f ed ee f7 fc     ...... ..../....
	...

000002f8 <__c.2916>:
     2f8:	cd e0 f1 f2 f0 ee e9 ea e0 20 f2 e5 ea f3 f9 2e     ......... ......
     308:	2f 6e 20 e2 f0 e5 ec e5 ed e8 00                    /n ........

00000313 <__c.2914>:
     313:	cf e5 f0 e8 ee e4 20 ee ef f0 ee f1 e0 2f 6e 20     ...... ....../n 
     323:	e4 e0 f2 f7 e8 ea ee e2 00                          .........

0000032c <__c.2912>:
     32c:	cf e5 f0 e8 ee e4 20 d8 c8 cc 00                    ...... ....

00000337 <__c.2910>:
     337:	c8 e7 ec e5 ed 2e 20 ed e0 f1 f2 f0 ee e5 ea 2f     ...... ......../
     347:	6e 20 e2 f0 e5 ec e5 ed e8 00                       n ........

00000351 <__c.2908>:
     351:	ca ee ed f2 f3 f0 b9 33 00                          .......3.

0000035a <__c.2906>:
     35a:	ca ee ed f2 f3 f0 b9 32 00                          .......2.

00000363 <__c.2904>:
     363:	ca ee ed f2 f3 f0 b9 31 00                          .......1.

0000036c <__c.3107>:
     36c:	53 54 00                                            ST.

0000036f <__c.3105>:
     36f:	54 31 3d 00                                         T1=.

00000373 <__c.3103>:
     373:	54 33 3d 00                                         T3=.

00000377 <__c.3101>:
     377:	54 33 3d 00                                         T3=.

0000037b <__c.3099>:
     37b:	54 32 3d 00                                         T2=.

0000037f <__c.3097>:
     37f:	54 32 3d 00                                         T2=.

00000383 <__c.3095>:
     383:	54 31 3d 00                                         T1=.

00000387 <__c.2998>:
     387:	45 52 52 4f 52 00                                   ERROR.

0000038d <__c.2568>:
     38d:	20 20 20 20 00                                          .

00000392 <__c.2562>:
     392:	20 20 20 20 00                                          .

00000397 <__c.2560>:
     397:	c2 fb ea eb 00                                      .....

0000039c <__c.2558>:
     39c:	c2 ea eb 00                                         ....

000003a0 <__c.2519>:
     3a0:	c2 fb ea eb 00                                      .....

000003a5 <__c.2517>:
     3a5:	c2 ea eb 00                                         ....

000003a9 <__c.2515>:
     3a9:	20 20 20 20 00                                          .

000003ae <__c.2509>:
     3ae:	20 20 20 20 00                                          .

000003b3 <__c.2507>:
     3b3:	c2 fb ea eb 00                                      .....

000003b8 <__c.2505>:
     3b8:	c2 ea eb 00                                         ....

000003bc <__c.2378>:
     3bc:	c2 fb ea eb 00                                      .....

000003c1 <__c.2376>:
     3c1:	c2 ea eb 00                                         ....

000003c5 <__c.2364>:
     3c5:	c2 fb ea eb 00                                      .....

000003ca <__c.2362>:
     3ca:	c2 ea eb 00                                         ....

000003ce <get_Result_Sensors>:
     3ce:	5e 54 30 30 30 32 00 5e 54 30 30 30 33 00 5e 54     ^T0002.^T0003.^T
     3de:	30 30 30 34 00                                      0004.

000003e3 <init_Sensors>:
     3e3:	5e 50 30 30 30 32 00 5e 50 30 30 30 33 00 5e 50     ^P0002.^P0003.^P
     3f3:	30 30 30 34 00                                      0004.

000003f8 <ASCII>:
     3f8:	00 01 02 03 04 05 06 07 08 09 0a 0b 0c 0d 0e 0f     ................
     408:	10 11 12 13 14 15 16 17 18 19 1a 1b 1c 1d 1e 1f     ................
     418:	20 21 22 23 24 25 26 27 28 29 2a 2b 2c 2d 2e 2f      !"#$%&'()*+,-./
     428:	30 31 32 33 34 35 36 37 38 39 3a 3b 3c 3d 3e 3f     0123456789:;<=>?
     438:	40 41 42 43 44 45 46 47 48 49 4a 4b 4c 4d 4e 4f     @ABCDEFGHIJKLMNO
     448:	50 51 52 53 54 55 56 57 58 59 5a 5b 5c 5d 5e 5f     PQRSTUVWXYZ[\]^_
     458:	60 61 62 63 64 65 66 67 68 69 6a 6b 6c 6d 6e 6f     `abcdefghijklmno
     468:	70 71 72 73 74 75 76 77 78 79 7a 7b d1 7d e9 7f     pqrstuvwxyz{.}..
     478:	80 81 27 83 22 85 86 87 88 89 8a 8b 8c 8d 8e 8f     ..'."...........
     488:	90 60 61 ca cb df 5f 5f 98 99 9a 9b 9c 9d 9e 9f     .`a...__........
     498:	a0 8d a2 a3 a4 a5 d1 fd a2 a9 aa ca ac ad ae af     ................
     4a8:	ef b1 49 69 72 b5 b6 b7 b5 cc ba cb bc bd be bf     ..Iir...........
     4b8:	41 a0 42 a1 e0 45 a3 a4 a5 a6 4b a7 4d 48 4f a8     A.B..E....K.MHO.
     4c8:	50 43 54 a9 aa 58 e1 ab ac e2 ad ae c4 af b0 b1     PCT..X..........
     4d8:	61 b2 b3 b4 e3 65 b6 b7 b8 b9 ba bb bc bd 6f be     a....e........o.
     4e8:	70 63 bf 79 e4 78 e5 c0 c1 e6 c2 c3 c4 c5 c6 c7     pc.y.x..........

000004f8 <__ctors_end>:
     4f8:	11 24       	eor	r1, r1
     4fa:	1f be       	out	0x3f, r1	; 63
     4fc:	cf ef       	ldi	r28, 0xFF	; 255
     4fe:	d0 e1       	ldi	r29, 0x10	; 16
     500:	de bf       	out	0x3e, r29	; 62
     502:	cd bf       	out	0x3d, r28	; 61

00000504 <__do_copy_data>:
     504:	11 e0       	ldi	r17, 0x01	; 1
     506:	a0 e0       	ldi	r26, 0x00	; 0
     508:	b1 e0       	ldi	r27, 0x01	; 1
     50a:	ee ec       	ldi	r30, 0xCE	; 206
     50c:	f7 e5       	ldi	r31, 0x57	; 87
     50e:	00 e0       	ldi	r16, 0x00	; 0
     510:	0b bf       	out	0x3b, r16	; 59
     512:	02 c0       	rjmp	.+4      	; 0x518 <__do_copy_data+0x14>
     514:	07 90       	elpm	r0, Z+
     516:	0d 92       	st	X+, r0
     518:	a2 37       	cpi	r26, 0x72	; 114
     51a:	b1 07       	cpc	r27, r17
     51c:	d9 f7       	brne	.-10     	; 0x514 <__do_copy_data+0x10>

0000051e <__do_clear_bss>:
     51e:	24 e0       	ldi	r18, 0x04	; 4
     520:	a2 e7       	ldi	r26, 0x72	; 114
     522:	b1 e0       	ldi	r27, 0x01	; 1
     524:	01 c0       	rjmp	.+2      	; 0x528 <.do_clear_bss_start>

00000526 <.do_clear_bss_loop>:
     526:	1d 92       	st	X+, r1

00000528 <.do_clear_bss_start>:
     528:	aa 3d       	cpi	r26, 0xDA	; 218
     52a:	b2 07       	cpc	r27, r18
     52c:	e1 f7       	brne	.-8      	; 0x526 <.do_clear_bss_loop>
     52e:	0e 94 59 23 	call	0x46b2	; 0x46b2 <main>
     532:	0c 94 e5 2b 	jmp	0x57ca	; 0x57ca <_exit>

00000536 <__bad_interrupt>:
     536:	64 cd       	rjmp	.-1336   	; 0x0 <__vectors>

00000538 <_StrobE>:
     538:	1e 9a       	sbi	0x03, 6	; 3
     53a:	85 e0       	ldi	r24, 0x05	; 5
     53c:	8a 95       	dec	r24
     53e:	f1 f7       	brne	.-4      	; 0x53c <_StrobE+0x4>
     540:	1e 98       	cbi	0x03, 6	; 3
     542:	08 95       	ret

00000544 <_LED_Function_Set>:
     544:	cf 93       	push	r28
     546:	c0 e2       	ldi	r28, 0x20	; 32
     548:	cb bb       	out	0x1b, r28	; 27
     54a:	f6 df       	rcall	.-20     	; 0x538 <_StrobE>
     54c:	cb bb       	out	0x1b, r28	; 27
     54e:	f4 df       	rcall	.-24     	; 0x538 <_StrobE>
     550:	80 ea       	ldi	r24, 0xA0	; 160
     552:	8b bb       	out	0x1b, r24	; 27
     554:	cf 91       	pop	r28
     556:	f0 cf       	rjmp	.-32     	; 0x538 <_StrobE>

00000558 <_LED_Entry_Mode_Set>:
     558:	cf 93       	push	r28
     55a:	df 93       	push	r29
     55c:	00 d0       	rcall	.+0      	; 0x55e <_LED_Entry_Mode_Set+0x6>
     55e:	cd b7       	in	r28, 0x3d	; 61
     560:	de b7       	in	r29, 0x3e	; 62
     562:	1b ba       	out	0x1b, r1	; 27
     564:	6a 83       	std	Y+2, r22	; 0x02
     566:	89 83       	std	Y+1, r24	; 0x01
     568:	e7 df       	rcall	.-50     	; 0x538 <_StrobE>
     56a:	89 81       	ldd	r24, Y+1	; 0x01
     56c:	6a 81       	ldd	r22, Y+2	; 0x02
     56e:	88 23       	and	r24, r24
     570:	11 f0       	breq	.+4      	; 0x576 <_LED_Entry_Mode_Set+0x1e>
     572:	80 e6       	ldi	r24, 0x60	; 96
     574:	01 c0       	rjmp	.+2      	; 0x578 <_LED_Entry_Mode_Set+0x20>
     576:	80 e4       	ldi	r24, 0x40	; 64
     578:	61 11       	cpse	r22, r1
     57a:	80 61       	ori	r24, 0x10	; 16
     57c:	8b bb       	out	0x1b, r24	; 27
     57e:	0f 90       	pop	r0
     580:	0f 90       	pop	r0
     582:	df 91       	pop	r29
     584:	cf 91       	pop	r28
     586:	d8 cf       	rjmp	.-80     	; 0x538 <_StrobE>

00000588 <_LED_Set_Addres>:
     588:	cf 93       	push	r28
     58a:	df 93       	push	r29
     58c:	1f 92       	push	r1
     58e:	cd b7       	in	r28, 0x3d	; 61
     590:	de b7       	in	r29, 0x3e	; 62
     592:	98 2f       	mov	r25, r24
     594:	90 7f       	andi	r25, 0xF0	; 240
     596:	90 68       	ori	r25, 0x80	; 128
     598:	9b bb       	out	0x1b, r25	; 27
     59a:	89 83       	std	Y+1, r24	; 0x01
     59c:	cd df       	rcall	.-102    	; 0x538 <_StrobE>
     59e:	89 81       	ldd	r24, Y+1	; 0x01
     5a0:	82 95       	swap	r24
     5a2:	80 7f       	andi	r24, 0xF0	; 240
     5a4:	8b bb       	out	0x1b, r24	; 27
     5a6:	0f 90       	pop	r0
     5a8:	df 91       	pop	r29
     5aa:	cf 91       	pop	r28
     5ac:	c5 cf       	rjmp	.-118    	; 0x538 <_StrobE>

000005ae <LED_Clear>:
     5ae:	1b ba       	out	0x1b, r1	; 27
     5b0:	c3 df       	rcall	.-122    	; 0x538 <_StrobE>
     5b2:	80 e1       	ldi	r24, 0x10	; 16
     5b4:	8b bb       	out	0x1b, r24	; 27
     5b6:	c0 df       	rcall	.-128    	; 0x538 <_StrobE>
     5b8:	86 e6       	ldi	r24, 0x66	; 102
     5ba:	9e e0       	ldi	r25, 0x0E	; 14
     5bc:	01 97       	sbiw	r24, 0x01	; 1
     5be:	f1 f7       	brne	.-4      	; 0x5bc <LED_Clear+0xe>
     5c0:	00 00       	nop
     5c2:	08 95       	ret

000005c4 <LED_Return_Home>:
     5c4:	1b ba       	out	0x1b, r1	; 27
     5c6:	b8 df       	rcall	.-144    	; 0x538 <_StrobE>
     5c8:	80 e2       	ldi	r24, 0x20	; 32
     5ca:	8b bb       	out	0x1b, r24	; 27
     5cc:	b5 cf       	rjmp	.-150    	; 0x538 <_StrobE>

000005ce <LED_Init>:
     5ce:	82 b1       	in	r24, 0x02	; 2
     5d0:	88 66       	ori	r24, 0x68	; 104
     5d2:	82 b9       	out	0x02, r24	; 2
     5d4:	83 b1       	in	r24, 0x03	; 3
     5d6:	88 64       	ori	r24, 0x48	; 72
     5d8:	83 b9       	out	0x03, r24	; 3
     5da:	8f ef       	ldi	r24, 0xFF	; 255
     5dc:	9f e8       	ldi	r25, 0x8F	; 143
     5de:	01 97       	sbiw	r24, 0x01	; 1
     5e0:	f1 f7       	brne	.-4      	; 0x5de <LED_Init+0x10>
     5e2:	00 c0       	rjmp	.+0      	; 0x5e4 <LED_Init+0x16>
     5e4:	00 00       	nop
     5e6:	83 b1       	in	r24, 0x03	; 3
     5e8:	87 79       	andi	r24, 0x97	; 151
     5ea:	83 b9       	out	0x03, r24	; 3
     5ec:	8a b3       	in	r24, 0x1a	; 26
     5ee:	80 6f       	ori	r24, 0xF0	; 240
     5f0:	8a bb       	out	0x1a, r24	; 26
     5f2:	8f ef       	ldi	r24, 0xFF	; 255
     5f4:	9f e8       	ldi	r25, 0x8F	; 143
     5f6:	01 97       	sbiw	r24, 0x01	; 1
     5f8:	f1 f7       	brne	.-4      	; 0x5f6 <LED_Init+0x28>
     5fa:	00 c0       	rjmp	.+0      	; 0x5fc <LED_Init+0x2e>
     5fc:	00 00       	nop
     5fe:	a2 df       	rcall	.-188    	; 0x544 <_LED_Function_Set>
     600:	1b ba       	out	0x1b, r1	; 27
     602:	9a df       	rcall	.-204    	; 0x538 <_StrobE>
     604:	80 ed       	ldi	r24, 0xD0	; 208
     606:	8b bb       	out	0x1b, r24	; 27
     608:	97 df       	rcall	.-210    	; 0x538 <_StrobE>
     60a:	d1 df       	rcall	.-94     	; 0x5ae <LED_Clear>
     60c:	db df       	rcall	.-74     	; 0x5c4 <LED_Return_Home>
     60e:	60 e0       	ldi	r22, 0x00	; 0
     610:	81 e0       	ldi	r24, 0x01	; 1
     612:	a2 cf       	rjmp	.-188    	; 0x558 <_LED_Entry_Mode_Set>

00000614 <_LED_Write_Char>:
     614:	cf 93       	push	r28
     616:	1b 9a       	sbi	0x03, 3	; 3
     618:	e8 2f       	mov	r30, r24
     61a:	f0 e0       	ldi	r31, 0x00	; 0
     61c:	e8 50       	subi	r30, 0x08	; 8
     61e:	fc 4f       	sbci	r31, 0xFC	; 252
     620:	c4 91       	lpm	r28, Z
     622:	8c 2f       	mov	r24, r28
     624:	80 7f       	andi	r24, 0xF0	; 240
     626:	8b bb       	out	0x1b, r24	; 27
     628:	87 df       	rcall	.-242    	; 0x538 <_StrobE>
     62a:	c2 95       	swap	r28
     62c:	c0 7f       	andi	r28, 0xF0	; 240
     62e:	cb bb       	out	0x1b, r28	; 27
     630:	83 df       	rcall	.-250    	; 0x538 <_StrobE>
     632:	1b 98       	cbi	0x03, 3	; 3
     634:	cf 91       	pop	r28
     636:	08 95       	ret

00000638 <LED_Write_String>:
     638:	0f 93       	push	r16
     63a:	1f 93       	push	r17
     63c:	cf 93       	push	r28
     63e:	df 93       	push	r29
     640:	ec 01       	movw	r28, r24
     642:	8c 01       	movw	r16, r24
     644:	00 5c       	subi	r16, 0xC0	; 192
     646:	1f 4f       	sbci	r17, 0xFF	; 255
     648:	89 91       	ld	r24, Y+
     64a:	88 23       	and	r24, r24
     64c:	21 f0       	breq	.+8      	; 0x656 <LED_Write_String+0x1e>
     64e:	e2 df       	rcall	.-60     	; 0x614 <_LED_Write_Char>
     650:	c0 17       	cp	r28, r16
     652:	d1 07       	cpc	r29, r17
     654:	c9 f7       	brne	.-14     	; 0x648 <LED_Write_String+0x10>
     656:	df 91       	pop	r29
     658:	cf 91       	pop	r28
     65a:	1f 91       	pop	r17
     65c:	0f 91       	pop	r16
     65e:	08 95       	ret

00000660 <LED_Write_String_P>:
     660:	0f 93       	push	r16
     662:	1f 93       	push	r17
     664:	cf 93       	push	r28
     666:	df 93       	push	r29
     668:	ec 01       	movw	r28, r24
     66a:	8c 01       	movw	r16, r24
     66c:	00 5c       	subi	r16, 0xC0	; 192
     66e:	1f 4f       	sbci	r17, 0xFF	; 255
     670:	fe 01       	movw	r30, r28
     672:	21 96       	adiw	r28, 0x01	; 1
     674:	85 91       	lpm	r24, Z+
     676:	88 23       	and	r24, r24
     678:	21 f0       	breq	.+8      	; 0x682 <LED_Write_String_P+0x22>
     67a:	cc df       	rcall	.-104    	; 0x614 <_LED_Write_Char>
     67c:	c0 17       	cp	r28, r16
     67e:	d1 07       	cpc	r29, r17
     680:	b9 f7       	brne	.-18     	; 0x670 <LED_Write_String_P+0x10>
     682:	df 91       	pop	r29
     684:	cf 91       	pop	r28
     686:	1f 91       	pop	r17
     688:	0f 91       	pop	r16
     68a:	08 95       	ret

0000068c <Led>:
     68c:	90 91 64 00 	lds	r25, 0x0064	; 0x800064 <__TEXT_REGION_LENGTH__+0x7e0064>
     690:	90 61       	ori	r25, 0x10	; 16
     692:	90 93 64 00 	sts	0x0064, r25	; 0x800064 <__TEXT_REGION_LENGTH__+0x7e0064>
     696:	81 30       	cpi	r24, 0x01	; 1
     698:	41 f0       	breq	.+16     	; 0x6aa <Led+0x1e>
     69a:	18 f0       	brcs	.+6      	; 0x6a2 <Led+0x16>
     69c:	82 30       	cpi	r24, 0x02	; 2
     69e:	49 f0       	breq	.+18     	; 0x6b2 <Led+0x26>
     6a0:	08 95       	ret
     6a2:	80 91 65 00 	lds	r24, 0x0065	; 0x800065 <__TEXT_REGION_LENGTH__+0x7e0065>
     6a6:	8f 7e       	andi	r24, 0xEF	; 239
     6a8:	08 c0       	rjmp	.+16     	; 0x6ba <Led+0x2e>
     6aa:	80 91 65 00 	lds	r24, 0x0065	; 0x800065 <__TEXT_REGION_LENGTH__+0x7e0065>
     6ae:	80 61       	ori	r24, 0x10	; 16
     6b0:	04 c0       	rjmp	.+8      	; 0x6ba <Led+0x2e>
     6b2:	90 91 65 00 	lds	r25, 0x0065	; 0x800065 <__TEXT_REGION_LENGTH__+0x7e0065>
     6b6:	80 e1       	ldi	r24, 0x10	; 16
     6b8:	89 27       	eor	r24, r25
     6ba:	80 93 65 00 	sts	0x0065, r24	; 0x800065 <__TEXT_REGION_LENGTH__+0x7e0065>
     6be:	08 95       	ret

000006c0 <Key>:
     6c0:	90 91 51 02 	lds	r25, 0x0251	; 0x800251 <_Latch>
     6c4:	91 11       	cpse	r25, r1
     6c6:	1b c0       	rjmp	.+54     	; 0x6fe <Key+0x3e>
     6c8:	81 30       	cpi	r24, 0x01	; 1
     6ca:	69 f0       	breq	.+26     	; 0x6e6 <Key+0x26>
     6cc:	38 f0       	brcs	.+14     	; 0x6dc <Key+0x1c>
     6ce:	82 30       	cpi	r24, 0x02	; 2
     6d0:	81 f0       	breq	.+32     	; 0x6f2 <Key+0x32>
     6d2:	83 30       	cpi	r24, 0x03	; 3
     6d4:	81 f5       	brne	.+96     	; 0x736 <Key+0x76>
     6d6:	89 b3       	in	r24, 0x19	; 25
     6d8:	80 95       	com	r24
     6da:	2b c0       	rjmp	.+86     	; 0x732 <Key+0x72>
     6dc:	89 b3       	in	r24, 0x19	; 25
     6de:	83 fb       	bst	r24, 3
     6e0:	88 27       	eor	r24, r24
     6e2:	80 f9       	bld	r24, 0
     6e4:	09 c0       	rjmp	.+18     	; 0x6f8 <Key+0x38>
     6e6:	99 b3       	in	r25, 0x19	; 25
     6e8:	92 fb       	bst	r25, 2
     6ea:	22 27       	eor	r18, r18
     6ec:	20 f9       	bld	r18, 0
     6ee:	82 27       	eor	r24, r18
     6f0:	08 95       	ret
     6f2:	89 b3       	in	r24, 0x19	; 25
     6f4:	86 95       	lsr	r24
     6f6:	81 70       	andi	r24, 0x01	; 1
     6f8:	91 e0       	ldi	r25, 0x01	; 1
     6fa:	89 27       	eor	r24, r25
     6fc:	08 95       	ret
     6fe:	90 91 6a 02 	lds	r25, 0x026A	; 0x80026a <_Key_flags>
     702:	29 2f       	mov	r18, r25
     704:	30 e0       	ldi	r19, 0x00	; 0
     706:	08 2e       	mov	r0, r24
     708:	02 c0       	rjmp	.+4      	; 0x70e <Key+0x4e>
     70a:	35 95       	asr	r19
     70c:	27 95       	ror	r18
     70e:	0a 94       	dec	r0
     710:	e2 f7       	brpl	.-8      	; 0x70a <Key+0x4a>
     712:	30 91 6a 02 	lds	r19, 0x026A	; 0x80026a <_Key_flags>
     716:	41 e0       	ldi	r20, 0x01	; 1
     718:	50 e0       	ldi	r21, 0x00	; 0
     71a:	ba 01       	movw	r22, r20
     71c:	02 c0       	rjmp	.+4      	; 0x722 <Key+0x62>
     71e:	66 0f       	add	r22, r22
     720:	77 1f       	adc	r23, r23
     722:	8a 95       	dec	r24
     724:	e2 f7       	brpl	.-8      	; 0x71e <Key+0x5e>
     726:	cb 01       	movw	r24, r22
     728:	80 95       	com	r24
     72a:	83 23       	and	r24, r19
     72c:	80 93 6a 02 	sts	0x026A, r24	; 0x80026a <_Key_flags>
     730:	82 2f       	mov	r24, r18
     732:	81 70       	andi	r24, 0x01	; 1
     734:	08 95       	ret
     736:	8f ef       	ldi	r24, 0xFF	; 255
     738:	08 95       	ret

0000073a <Add_New_Element>:
     73a:	ef 92       	push	r14
     73c:	0f 93       	push	r16
     73e:	1f 93       	push	r17
     740:	a0 91 83 01 	lds	r26, 0x0183	; 0x800183 <count_Element.2314>
     744:	b0 91 84 01 	lds	r27, 0x0184	; 0x800184 <count_Element.2314+0x1>
     748:	a7 32       	cpi	r26, 0x27	; 39
     74a:	b1 05       	cpc	r27, r1
     74c:	f0 f5       	brcc	.+124    	; 0x7ca <Add_New_Element+0x90>
     74e:	cd 01       	movw	r24, r26
     750:	53 e0       	ldi	r21, 0x03	; 3
     752:	88 0f       	add	r24, r24
     754:	99 1f       	adc	r25, r25
     756:	5a 95       	dec	r21
     758:	e1 f7       	brne	.-8      	; 0x752 <Add_New_Element+0x18>
     75a:	fc 01       	movw	r30, r24
     75c:	e9 56       	subi	r30, 0x69	; 105
     75e:	fc 4f       	sbci	r31, 0xFC	; 252
     760:	60 83       	st	Z, r22
     762:	33 83       	std	Z+3, r19	; 0x03
     764:	22 83       	std	Z+2, r18	; 0x02
     766:	15 83       	std	Z+5, r17	; 0x05
     768:	04 83       	std	Z+4, r16	; 0x04
     76a:	41 83       	std	Z+1, r20	; 0x01
     76c:	44 23       	and	r20, r20
     76e:	39 f0       	breq	.+14     	; 0x77e <Add_New_Element+0x44>
     770:	e4 2f       	mov	r30, r20
     772:	f0 e0       	ldi	r31, 0x00	; 0
     774:	ee 0f       	add	r30, r30
     776:	ff 1f       	adc	r31, r31
     778:	e7 5c       	subi	r30, 0xC7	; 199
     77a:	fc 4f       	sbci	r31, 0xFC	; 252
     77c:	a1 83       	std	Z+1, r26	; 0x01
     77e:	ee 20       	and	r14, r14
     780:	29 f0       	breq	.+10     	; 0x78c <Add_New_Element+0x52>
     782:	fc 01       	movw	r30, r24
     784:	e9 56       	subi	r30, 0x69	; 105
     786:	fc 4f       	sbci	r31, 0xFC	; 252
     788:	e6 82       	std	Z+6, r14	; 0x06
     78a:	0c c0       	rjmp	.+24     	; 0x7a4 <Add_New_Element+0x6a>
     78c:	62 30       	cpi	r22, 0x02	; 2
     78e:	31 f4       	brne	.+12     	; 0x79c <Add_New_Element+0x62>
     790:	21 e0       	ldi	r18, 0x01	; 1
     792:	fc 01       	movw	r30, r24
     794:	e9 56       	subi	r30, 0x69	; 105
     796:	fc 4f       	sbci	r31, 0xFC	; 252
     798:	26 83       	std	Z+6, r18	; 0x06
     79a:	04 c0       	rjmp	.+8      	; 0x7a4 <Add_New_Element+0x6a>
     79c:	fc 01       	movw	r30, r24
     79e:	e9 56       	subi	r30, 0x69	; 105
     7a0:	fc 4f       	sbci	r31, 0xFC	; 252
     7a2:	16 82       	std	Z+6, r1	; 0x06
     7a4:	20 91 4b 02 	lds	r18, 0x024B	; 0x80024b <_number_In_Submenu>
     7a8:	30 91 4c 02 	lds	r19, 0x024C	; 0x80024c <_number_In_Submenu+0x1>
     7ac:	fc 01       	movw	r30, r24
     7ae:	e9 56       	subi	r30, 0x69	; 105
     7b0:	fc 4f       	sbci	r31, 0xFC	; 252
     7b2:	27 83       	std	Z+7, r18	; 0x07
     7b4:	2f 5f       	subi	r18, 0xFF	; 255
     7b6:	3f 4f       	sbci	r19, 0xFF	; 255
     7b8:	30 93 4c 02 	sts	0x024C, r19	; 0x80024c <_number_In_Submenu+0x1>
     7bc:	20 93 4b 02 	sts	0x024B, r18	; 0x80024b <_number_In_Submenu>
     7c0:	11 96       	adiw	r26, 0x01	; 1
     7c2:	b0 93 84 01 	sts	0x0184, r27	; 0x800184 <count_Element.2314+0x1>
     7c6:	a0 93 83 01 	sts	0x0183, r26	; 0x800183 <count_Element.2314>
     7ca:	1f 91       	pop	r17
     7cc:	0f 91       	pop	r16
     7ce:	ef 90       	pop	r14
     7d0:	08 95       	ret

000007d2 <Add_New_Menu>:
     7d2:	10 92 4c 02 	sts	0x024C, r1	; 0x80024c <_number_In_Submenu+0x1>
     7d6:	10 92 4b 02 	sts	0x024B, r1	; 0x80024b <_number_In_Submenu>
     7da:	80 91 81 01 	lds	r24, 0x0181	; 0x800181 <count_Submenu.2319>
     7de:	90 91 82 01 	lds	r25, 0x0182	; 0x800182 <count_Submenu.2319+0x1>
     7e2:	82 31       	cpi	r24, 0x12	; 18
     7e4:	91 05       	cpc	r25, r1
     7e6:	58 f4       	brcc	.+22     	; 0x7fe <Add_New_Menu+0x2c>
     7e8:	fc 01       	movw	r30, r24
     7ea:	ee 0f       	add	r30, r30
     7ec:	ff 1f       	adc	r31, r31
     7ee:	e7 5c       	subi	r30, 0xC7	; 199
     7f0:	fc 4f       	sbci	r31, 0xFC	; 252
     7f2:	60 83       	st	Z, r22
     7f4:	01 96       	adiw	r24, 0x01	; 1
     7f6:	90 93 82 01 	sts	0x0182, r25	; 0x800182 <count_Submenu.2319+0x1>
     7fa:	80 93 81 01 	sts	0x0181, r24	; 0x800181 <count_Submenu.2319>
     7fe:	08 95       	ret

00000800 <_Selected_Element_Calculate>:
     800:	10 92 4e 02 	sts	0x024E, r1	; 0x80024e <_selected_Element+0x1>
     804:	10 92 4d 02 	sts	0x024D, r1	; 0x80024d <_selected_Element>
     808:	61 11       	cpse	r22, r1
     80a:	0c c0       	rjmp	.+24     	; 0x824 <_Selected_Element_Calculate+0x24>
     80c:	20 91 4d 02 	lds	r18, 0x024D	; 0x80024d <_selected_Element>
     810:	30 91 4e 02 	lds	r19, 0x024E	; 0x80024e <_selected_Element+0x1>
     814:	a9 01       	movw	r20, r18
     816:	48 0f       	add	r20, r24
     818:	51 1d       	adc	r21, r1
     81a:	50 93 4e 02 	sts	0x024E, r21	; 0x80024e <_selected_Element+0x1>
     81e:	40 93 4d 02 	sts	0x024D, r20	; 0x80024d <_selected_Element>
     822:	08 95       	ret
     824:	e9 e3       	ldi	r30, 0x39	; 57
     826:	f3 e0       	ldi	r31, 0x03	; 3
     828:	20 e0       	ldi	r18, 0x00	; 0
     82a:	30 e0       	ldi	r19, 0x00	; 0
     82c:	40 e0       	ldi	r20, 0x00	; 0
     82e:	50 e0       	ldi	r21, 0x00	; 0
     830:	70 e0       	ldi	r23, 0x00	; 0
     832:	46 17       	cp	r20, r22
     834:	57 07       	cpc	r21, r23
     836:	3c f4       	brge	.+14     	; 0x846 <_Selected_Element_Calculate+0x46>
     838:	90 81       	ld	r25, Z
     83a:	29 0f       	add	r18, r25
     83c:	31 1d       	adc	r19, r1
     83e:	4f 5f       	subi	r20, 0xFF	; 255
     840:	5f 4f       	sbci	r21, 0xFF	; 255
     842:	32 96       	adiw	r30, 0x02	; 2
     844:	f6 cf       	rjmp	.-20     	; 0x832 <_Selected_Element_Calculate+0x32>
     846:	30 93 4e 02 	sts	0x024E, r19	; 0x80024e <_selected_Element+0x1>
     84a:	20 93 4d 02 	sts	0x024D, r18	; 0x80024d <_selected_Element>
     84e:	de cf       	rjmp	.-68     	; 0x80c <_Selected_Element_Calculate+0xc>

00000850 <_Temp_Array_First_Out>:
     850:	e0 91 4d 02 	lds	r30, 0x024D	; 0x80024d <_selected_Element>
     854:	f0 91 4e 02 	lds	r31, 0x024E	; 0x80024e <_selected_Element+0x1>
     858:	93 e0       	ldi	r25, 0x03	; 3
     85a:	ee 0f       	add	r30, r30
     85c:	ff 1f       	adc	r31, r31
     85e:	9a 95       	dec	r25
     860:	e1 f7       	brne	.-8      	; 0x85a <_Temp_Array_First_Out+0xa>
     862:	e9 56       	subi	r30, 0x69	; 105
     864:	fc 4f       	sbci	r31, 0xFC	; 252
     866:	04 80       	ldd	r0, Z+4	; 0x04
     868:	f5 81       	ldd	r31, Z+5	; 0x05
     86a:	e0 2d       	mov	r30, r0
     86c:	69 30       	cpi	r22, 0x09	; 9
     86e:	08 f0       	brcs	.+2      	; 0x872 <_Temp_Array_First_Out+0x22>
     870:	68 e0       	ldi	r22, 0x08	; 8
     872:	82 30       	cpi	r24, 0x02	; 2
     874:	21 f4       	brne	.+8      	; 0x87e <_Temp_Array_First_Out+0x2e>
     876:	80 81       	ld	r24, Z
     878:	80 93 4f 02 	sts	0x024F, r24	; 0x80024f <_temp_Switch>
     87c:	08 95       	ret
     87e:	98 2f       	mov	r25, r24
     880:	9b 7f       	andi	r25, 0xFB	; 251
     882:	91 30       	cpi	r25, 0x01	; 1
     884:	11 f0       	breq	.+4      	; 0x88a <_Temp_Array_First_Out+0x3a>
     886:	88 30       	cpi	r24, 0x08	; 8
     888:	69 f4       	brne	.+26     	; 0x8a4 <_Temp_Array_First_Out+0x54>
     88a:	a2 e5       	ldi	r26, 0x52	; 82
     88c:	b2 e0       	ldi	r27, 0x02	; 2
     88e:	70 e0       	ldi	r23, 0x00	; 0
     890:	cd 01       	movw	r24, r26
     892:	82 55       	subi	r24, 0x52	; 82
     894:	92 40       	sbci	r25, 0x02	; 2
     896:	86 17       	cp	r24, r22
     898:	97 07       	cpc	r25, r23
     89a:	1c f4       	brge	.+6      	; 0x8a2 <_Temp_Array_First_Out+0x52>
     89c:	81 91       	ld	r24, Z+
     89e:	8d 93       	st	X+, r24
     8a0:	f7 cf       	rjmp	.-18     	; 0x890 <_Temp_Array_First_Out+0x40>
     8a2:	08 95       	ret
     8a4:	87 30       	cpi	r24, 0x07	; 7
     8a6:	01 f5       	brne	.+64     	; 0x8e8 <_Temp_Array_First_Out+0x98>
     8a8:	70 e0       	ldi	r23, 0x00	; 0
     8aa:	80 e0       	ldi	r24, 0x00	; 0
     8ac:	90 e0       	ldi	r25, 0x00	; 0
     8ae:	20 e0       	ldi	r18, 0x00	; 0
     8b0:	30 e0       	ldi	r19, 0x00	; 0
     8b2:	df 01       	movw	r26, r30
     8b4:	a8 0f       	add	r26, r24
     8b6:	b9 1f       	adc	r27, r25
     8b8:	4c 91       	ld	r20, X
     8ba:	4f 3f       	cpi	r20, 0xFF	; 255
     8bc:	a9 f0       	breq	.+42     	; 0x8e8 <_Temp_Array_First_Out+0x98>
     8be:	86 0f       	add	r24, r22
     8c0:	97 1f       	adc	r25, r23
     8c2:	41 11       	cpse	r20, r1
     8c4:	0e c0       	rjmp	.+28     	; 0x8e2 <_Temp_Array_First_Out+0x92>
     8c6:	20 93 48 02 	sts	0x0248, r18	; 0x800248 <_temp_List>
     8ca:	fd 01       	movw	r30, r26
     8cc:	a2 e5       	ldi	r26, 0x52	; 82
     8ce:	b2 e0       	ldi	r27, 0x02	; 2
     8d0:	6e 5a       	subi	r22, 0xAE	; 174
     8d2:	7d 4f       	sbci	r23, 0xFD	; 253
     8d4:	a6 17       	cp	r26, r22
     8d6:	b7 07       	cpc	r27, r23
     8d8:	19 f0       	breq	.+6      	; 0x8e0 <_Temp_Array_First_Out+0x90>
     8da:	81 91       	ld	r24, Z+
     8dc:	8d 93       	st	X+, r24
     8de:	fa cf       	rjmp	.-12     	; 0x8d4 <_Temp_Array_First_Out+0x84>
     8e0:	08 95       	ret
     8e2:	2f 5f       	subi	r18, 0xFF	; 255
     8e4:	3f 4f       	sbci	r19, 0xFF	; 255
     8e6:	e5 cf       	rjmp	.-54     	; 0x8b2 <_Temp_Array_First_Out+0x62>
     8e8:	08 95       	ret

000008ea <_Display_Out>:
     8ea:	af 92       	push	r10
     8ec:	bf 92       	push	r11
     8ee:	cf 92       	push	r12
     8f0:	df 92       	push	r13
     8f2:	ef 92       	push	r14
     8f4:	ff 92       	push	r15
     8f6:	0f 93       	push	r16
     8f8:	1f 93       	push	r17
     8fa:	cf 93       	push	r28
     8fc:	df 93       	push	r29
     8fe:	00 d0       	rcall	.+0      	; 0x900 <_Display_Out+0x16>
     900:	cd b7       	in	r28, 0x3d	; 61
     902:	de b7       	in	r29, 0x3e	; 62
     904:	e8 2e       	mov	r14, r24
     906:	20 91 4a 02 	lds	r18, 0x024A	; 0x80024a <_line2>
     90a:	30 e0       	ldi	r19, 0x00	; 0
     90c:	f9 01       	movw	r30, r18
     90e:	ee 0f       	add	r30, r30
     910:	ff 1f       	adc	r31, r31
     912:	e4 5f       	subi	r30, 0xF4	; 244
     914:	fc 4f       	sbci	r31, 0xFC	; 252
     916:	40 81       	ld	r20, Z
     918:	51 81       	ldd	r21, Z+1	; 0x01
     91a:	e0 91 4d 02 	lds	r30, 0x024D	; 0x80024d <_selected_Element>
     91e:	f0 91 4e 02 	lds	r31, 0x024E	; 0x80024e <_selected_Element+0x1>
     922:	73 e0       	ldi	r23, 0x03	; 3
     924:	ee 0f       	add	r30, r30
     926:	ff 1f       	adc	r31, r31
     928:	7a 95       	dec	r23
     92a:	e1 f7       	brne	.-8      	; 0x924 <_Display_Out+0x3a>
     92c:	e9 56       	subi	r30, 0x69	; 105
     92e:	fc 4f       	sbci	r31, 0xFC	; 252
     930:	06 81       	ldd	r16, Z+6	; 0x06
     932:	f0 80       	ld	r15, Z
     934:	c2 80       	ldd	r12, Z+2	; 0x02
     936:	d3 80       	ldd	r13, Z+3	; 0x03
     938:	84 e0       	ldi	r24, 0x04	; 4
     93a:	f8 12       	cpse	r15, r24
     93c:	97 c0       	rjmp	.+302    	; 0xa6c <_Display_Out+0x182>
     93e:	80 91 49 02 	lds	r24, 0x0249	; 0x800249 <_line>
     942:	81 11       	cpse	r24, r1
     944:	1e c0       	rjmp	.+60     	; 0x982 <_Display_Out+0x98>
     946:	20 de       	rcall	.-960    	; 0x588 <_LED_Set_Addres>
     948:	e0 91 4d 02 	lds	r30, 0x024D	; 0x80024d <_selected_Element>
     94c:	f0 91 4e 02 	lds	r31, 0x024E	; 0x80024e <_selected_Element+0x1>
     950:	53 e0       	ldi	r21, 0x03	; 3
     952:	ee 0f       	add	r30, r30
     954:	ff 1f       	adc	r31, r31
     956:	5a 95       	dec	r21
     958:	e1 f7       	brne	.-8      	; 0x952 <_Display_Out+0x68>
     95a:	e9 56       	subi	r30, 0x69	; 105
     95c:	fc 4f       	sbci	r31, 0xFC	; 252
     95e:	02 81       	ldd	r16, Z+2	; 0x02
     960:	13 81       	ldd	r17, Z+3	; 0x03
     962:	78 01       	movw	r14, r16
     964:	90 e1       	ldi	r25, 0x10	; 16
     966:	e9 0e       	add	r14, r25
     968:	f1 1c       	adc	r15, r1
     96a:	f8 01       	movw	r30, r16
     96c:	0f 5f       	subi	r16, 0xFF	; 255
     96e:	1f 4f       	sbci	r17, 0xFF	; 255
     970:	85 91       	lpm	r24, Z+
     972:	88 23       	and	r24, r24
     974:	09 f4       	brne	.+2      	; 0x978 <_Display_Out+0x8e>
     976:	03 c1       	rjmp	.+518    	; 0xb7e <_Display_Out+0x294>
     978:	4d de       	rcall	.-870    	; 0x614 <_LED_Write_Char>
     97a:	0e 15       	cp	r16, r14
     97c:	1f 05       	cpc	r17, r15
     97e:	a9 f7       	brne	.-22     	; 0x96a <_Display_Out+0x80>
     980:	fe c0       	rjmp	.+508    	; 0xb7e <_Display_Out+0x294>
     982:	8a 01       	movw	r16, r20
     984:	43 e0       	ldi	r20, 0x03	; 3
     986:	00 0f       	add	r16, r16
     988:	11 1f       	adc	r17, r17
     98a:	4a 95       	dec	r20
     98c:	e1 f7       	brne	.-8      	; 0x986 <_Display_Out+0x9c>
     98e:	f8 01       	movw	r30, r16
     990:	e9 56       	subi	r30, 0x69	; 105
     992:	fc 4f       	sbci	r31, 0xFC	; 252
     994:	f6 80       	ldd	r15, Z+6	; 0x06
     996:	90 81       	ld	r25, Z
     998:	97 30       	cpi	r25, 0x07	; 7
     99a:	09 f4       	brne	.+2      	; 0x99e <_Display_Out+0xb4>
     99c:	fa 94       	dec	r15
     99e:	90 e0       	ldi	r25, 0x00	; 0
     9a0:	82 1b       	sub	r24, r18
     9a2:	93 0b       	sbc	r25, r19
     9a4:	9f 93       	push	r25
     9a6:	8f 93       	push	r24
     9a8:	8e e6       	ldi	r24, 0x6E	; 110
     9aa:	91 e0       	ldi	r25, 0x01	; 1
     9ac:	9f 93       	push	r25
     9ae:	8f 93       	push	r24
     9b0:	ce 01       	movw	r24, r28
     9b2:	01 96       	adiw	r24, 0x01	; 1
     9b4:	6c 01       	movw	r12, r24
     9b6:	9f 93       	push	r25
     9b8:	8f 93       	push	r24
     9ba:	0e 94 e5 28 	call	0x51ca	; 0x51ca <sprintf>
     9be:	8e e4       	ldi	r24, 0x4E	; 78
     9c0:	e3 dd       	rcall	.-1082   	; 0x588 <_LED_Set_Addres>
     9c2:	c6 01       	movw	r24, r12
     9c4:	39 de       	rcall	.-910    	; 0x638 <LED_Write_String>
     9c6:	80 e0       	ldi	r24, 0x00	; 0
     9c8:	df dd       	rcall	.-1090   	; 0x588 <_LED_Set_Addres>
     9ca:	f8 01       	movw	r30, r16
     9cc:	e9 56       	subi	r30, 0x69	; 105
     9ce:	fc 4f       	sbci	r31, 0xFC	; 252
     9d0:	c2 80       	ldd	r12, Z+2	; 0x02
     9d2:	d3 80       	ldd	r13, Z+3	; 0x03
     9d4:	56 01       	movw	r10, r12
     9d6:	90 e1       	ldi	r25, 0x10	; 16
     9d8:	a9 0e       	add	r10, r25
     9da:	b1 1c       	adc	r11, r1
     9dc:	0f 90       	pop	r0
     9de:	0f 90       	pop	r0
     9e0:	0f 90       	pop	r0
     9e2:	0f 90       	pop	r0
     9e4:	0f 90       	pop	r0
     9e6:	0f 90       	pop	r0
     9e8:	f6 01       	movw	r30, r12
     9ea:	31 96       	adiw	r30, 0x01	; 1
     9ec:	6f 01       	movw	r12, r30
     9ee:	31 97       	sbiw	r30, 0x01	; 1
     9f0:	85 91       	lpm	r24, Z+
     9f2:	81 11       	cpse	r24, r1
     9f4:	0b c0       	rjmp	.+22     	; 0xa0c <_Display_Out+0x122>
     9f6:	80 e4       	ldi	r24, 0x40	; 64
     9f8:	c7 dd       	rcall	.-1138   	; 0x588 <_LED_Set_Addres>
     9fa:	f8 01       	movw	r30, r16
     9fc:	e9 56       	subi	r30, 0x69	; 105
     9fe:	fc 4f       	sbci	r31, 0xFC	; 252
     a00:	80 81       	ld	r24, Z
     a02:	82 30       	cpi	r24, 0x02	; 2
     a04:	41 f0       	breq	.+16     	; 0xa16 <_Display_Out+0x12c>
     a06:	00 e0       	ldi	r16, 0x00	; 0
     a08:	10 e0       	ldi	r17, 0x00	; 0
     a0a:	2a c0       	rjmp	.+84     	; 0xa60 <_Display_Out+0x176>
     a0c:	03 de       	rcall	.-1018   	; 0x614 <_LED_Write_Char>
     a0e:	ca 14       	cp	r12, r10
     a10:	db 04       	cpc	r13, r11
     a12:	51 f7       	brne	.-44     	; 0x9e8 <_Display_Out+0xfe>
     a14:	f0 cf       	rjmp	.-32     	; 0x9f6 <_Display_Out+0x10c>
     a16:	e0 91 4a 02 	lds	r30, 0x024A	; 0x80024a <_line2>
     a1a:	88 e0       	ldi	r24, 0x08	; 8
     a1c:	e8 9f       	mul	r30, r24
     a1e:	f0 01       	movw	r30, r0
     a20:	11 24       	eor	r1, r1
     a22:	ef 58       	subi	r30, 0x8F	; 143
     a24:	fd 4f       	sbci	r31, 0xFD	; 253
     a26:	80 81       	ld	r24, Z
     a28:	88 23       	and	r24, r24
     a2a:	19 f0       	breq	.+6      	; 0xa32 <_Display_Out+0x148>
     a2c:	8a ec       	ldi	r24, 0xCA	; 202
     a2e:	93 e0       	ldi	r25, 0x03	; 3
     a30:	02 c0       	rjmp	.+4      	; 0xa36 <_Display_Out+0x14c>
     a32:	85 ec       	ldi	r24, 0xC5	; 197
     a34:	93 e0       	ldi	r25, 0x03	; 3
     a36:	14 de       	rcall	.-984    	; 0x660 <LED_Write_String_P>
     a38:	a2 c0       	rjmp	.+324    	; 0xb7e <_Display_Out+0x294>
     a3a:	90 e0       	ldi	r25, 0x00	; 0
     a3c:	08 17       	cp	r16, r24
     a3e:	19 07       	cpc	r17, r25
     a40:	0c f0       	brlt	.+2      	; 0xa44 <_Display_Out+0x15a>
     a42:	9d c0       	rjmp	.+314    	; 0xb7e <_Display_Out+0x294>
     a44:	80 91 4a 02 	lds	r24, 0x024A	; 0x80024a <_line2>
     a48:	f8 01       	movw	r30, r16
     a4a:	98 e0       	ldi	r25, 0x08	; 8
     a4c:	89 9f       	mul	r24, r25
     a4e:	e0 0d       	add	r30, r0
     a50:	f1 1d       	adc	r31, r1
     a52:	11 24       	eor	r1, r1
     a54:	ef 58       	subi	r30, 0x8F	; 143
     a56:	fd 4f       	sbci	r31, 0xFD	; 253
     a58:	80 81       	ld	r24, Z
     a5a:	dc dd       	rcall	.-1096   	; 0x614 <_LED_Write_Char>
     a5c:	0f 5f       	subi	r16, 0xFF	; 255
     a5e:	1f 4f       	sbci	r17, 0xFF	; 255
     a60:	8f 2d       	mov	r24, r15
     a62:	e8 e0       	ldi	r30, 0x08	; 8
     a64:	ef 15       	cp	r30, r15
     a66:	48 f7       	brcc	.-46     	; 0xa3a <_Display_Out+0x150>
     a68:	88 e0       	ldi	r24, 0x08	; 8
     a6a:	e7 cf       	rjmp	.-50     	; 0xa3a <_Display_Out+0x150>
     a6c:	80 e0       	ldi	r24, 0x00	; 0
     a6e:	8c dd       	rcall	.-1256   	; 0x588 <_LED_Set_Addres>
     a70:	90 e2       	ldi	r25, 0x20	; 32
     a72:	a9 2e       	mov	r10, r25
     a74:	b1 2c       	mov	r11, r1
     a76:	f6 01       	movw	r30, r12
     a78:	84 91       	lpm	r24, Z
     a7a:	81 11       	cpse	r24, r1
     a7c:	03 c0       	rjmp	.+6      	; 0xa84 <_Display_Out+0x19a>
     a7e:	f1 10       	cpse	r15, r1
     a80:	18 c0       	rjmp	.+48     	; 0xab2 <_Display_Out+0x1c8>
     a82:	62 c0       	rjmp	.+196    	; 0xb48 <_Display_Out+0x25e>
     a84:	8f 32       	cpi	r24, 0x2F	; 47
     a86:	51 f4       	brne	.+20     	; 0xa9c <_Display_Out+0x1b2>
     a88:	f6 01       	movw	r30, r12
     a8a:	31 96       	adiw	r30, 0x01	; 1
     a8c:	84 91       	lpm	r24, Z
     a8e:	8e 36       	cpi	r24, 0x6E	; 110
     a90:	29 f4       	brne	.+10     	; 0xa9c <_Display_Out+0x1b2>
     a92:	f2 e0       	ldi	r31, 0x02	; 2
     a94:	cf 0e       	add	r12, r31
     a96:	d1 1c       	adc	r13, r1
     a98:	80 e4       	ldi	r24, 0x40	; 64
     a9a:	76 dd       	rcall	.-1300   	; 0x588 <_LED_Set_Addres>
     a9c:	f6 01       	movw	r30, r12
     a9e:	31 96       	adiw	r30, 0x01	; 1
     aa0:	6f 01       	movw	r12, r30
     aa2:	31 97       	sbiw	r30, 0x01	; 1
     aa4:	85 91       	lpm	r24, Z+
     aa6:	b6 dd       	rcall	.-1172   	; 0x614 <_LED_Write_Char>
     aa8:	f1 e0       	ldi	r31, 0x01	; 1
     aaa:	af 1a       	sub	r10, r31
     aac:	b1 08       	sbc	r11, r1
     aae:	19 f7       	brne	.-58     	; 0xa76 <_Display_Out+0x18c>
     ab0:	e6 cf       	rjmp	.-52     	; 0xa7e <_Display_Out+0x194>
     ab2:	09 30       	cpi	r16, 0x09	; 9
     ab4:	08 f0       	brcs	.+2      	; 0xab8 <_Display_Out+0x1ce>
     ab6:	08 e0       	ldi	r16, 0x08	; 8
     ab8:	80 91 50 02 	lds	r24, 0x0250	; 0x800250 <_my_Lib_Flags>
     abc:	88 71       	andi	r24, 0x18	; 24
     abe:	19 f4       	brne	.+6      	; 0xac6 <_Display_Out+0x1dc>
     ac0:	60 2f       	mov	r22, r16
     ac2:	8f 2d       	mov	r24, r15
     ac4:	c5 de       	rcall	.-630    	; 0x850 <_Temp_Array_First_Out>
     ac6:	82 e0       	ldi	r24, 0x02	; 2
     ac8:	f8 12       	cpse	r15, r24
     aca:	0f c0       	rjmp	.+30     	; 0xaea <_Display_Out+0x200>
     acc:	80 e4       	ldi	r24, 0x40	; 64
     ace:	5c dd       	rcall	.-1352   	; 0x588 <_LED_Set_Addres>
     ad0:	80 91 4f 02 	lds	r24, 0x024F	; 0x80024f <_temp_Switch>
     ad4:	81 30       	cpi	r24, 0x01	; 1
     ad6:	19 f4       	brne	.+6      	; 0xade <_Display_Out+0x1f4>
     ad8:	81 ec       	ldi	r24, 0xC1	; 193
     ada:	93 e0       	ldi	r25, 0x03	; 3
     adc:	04 c0       	rjmp	.+8      	; 0xae6 <_Display_Out+0x1fc>
     ade:	81 11       	cpse	r24, r1
     ae0:	33 c0       	rjmp	.+102    	; 0xb48 <_Display_Out+0x25e>
     ae2:	8c eb       	ldi	r24, 0xBC	; 188
     ae4:	93 e0       	ldi	r25, 0x03	; 3
     ae6:	bc dd       	rcall	.-1160   	; 0x660 <LED_Write_String_P>
     ae8:	2f c0       	rjmp	.+94     	; 0xb48 <_Display_Out+0x25e>
     aea:	8f 2d       	mov	r24, r15
     aec:	8b 7f       	andi	r24, 0xFB	; 251
     aee:	81 30       	cpi	r24, 0x01	; 1
     af0:	19 f0       	breq	.+6      	; 0xaf8 <_Display_Out+0x20e>
     af2:	98 e0       	ldi	r25, 0x08	; 8
     af4:	f9 12       	cpse	r15, r25
     af6:	12 c0       	rjmp	.+36     	; 0xb1c <_Display_Out+0x232>
     af8:	80 e4       	ldi	r24, 0x40	; 64
     afa:	46 dd       	rcall	.-1396   	; 0x588 <_LED_Set_Addres>
     afc:	82 e5       	ldi	r24, 0x52	; 82
     afe:	c8 2e       	mov	r12, r24
     b00:	82 e0       	ldi	r24, 0x02	; 2
     b02:	d8 2e       	mov	r13, r24
     b04:	10 e0       	ldi	r17, 0x00	; 0
     b06:	c6 01       	movw	r24, r12
     b08:	82 55       	subi	r24, 0x52	; 82
     b0a:	92 40       	sbci	r25, 0x02	; 2
     b0c:	80 17       	cp	r24, r16
     b0e:	91 07       	cpc	r25, r17
     b10:	dc f4       	brge	.+54     	; 0xb48 <_Display_Out+0x25e>
     b12:	f6 01       	movw	r30, r12
     b14:	81 91       	ld	r24, Z+
     b16:	6f 01       	movw	r12, r30
     b18:	7d dd       	rcall	.-1286   	; 0x614 <_LED_Write_Char>
     b1a:	f5 cf       	rjmp	.-22     	; 0xb06 <_Display_Out+0x21c>
     b1c:	f7 e0       	ldi	r31, 0x07	; 7
     b1e:	ff 12       	cpse	r15, r31
     b20:	13 c0       	rjmp	.+38     	; 0xb48 <_Display_Out+0x25e>
     b22:	80 e4       	ldi	r24, 0x40	; 64
     b24:	31 dd       	rcall	.-1438   	; 0x588 <_LED_Set_Addres>
     b26:	c1 2c       	mov	r12, r1
     b28:	d1 2c       	mov	r13, r1
     b2a:	10 e0       	ldi	r17, 0x00	; 0
     b2c:	01 50       	subi	r16, 0x01	; 1
     b2e:	11 09       	sbc	r17, r1
     b30:	c0 16       	cp	r12, r16
     b32:	d1 06       	cpc	r13, r17
     b34:	4c f4       	brge	.+18     	; 0xb48 <_Display_Out+0x25e>
     b36:	8f ef       	ldi	r24, 0xFF	; 255
     b38:	c8 1a       	sub	r12, r24
     b3a:	d8 0a       	sbc	r13, r24
     b3c:	f6 01       	movw	r30, r12
     b3e:	ee 5a       	subi	r30, 0xAE	; 174
     b40:	fd 4f       	sbci	r31, 0xFD	; 253
     b42:	80 81       	ld	r24, Z
     b44:	67 dd       	rcall	.-1330   	; 0x614 <_LED_Write_Char>
     b46:	f4 cf       	rjmp	.-24     	; 0xb30 <_Display_Out+0x246>
     b48:	80 91 50 02 	lds	r24, 0x0250	; 0x800250 <_my_Lib_Flags>
     b4c:	83 ff       	sbrs	r24, 3
     b4e:	17 c0       	rjmp	.+46     	; 0xb7e <_Display_Out+0x294>
     b50:	95 e0       	ldi	r25, 0x05	; 5
     b52:	f9 16       	cp	r15, r25
     b54:	69 f0       	breq	.+26     	; 0xb70 <_Display_Out+0x286>
     b56:	e8 e0       	ldi	r30, 0x08	; 8
     b58:	fe 16       	cp	r15, r30
     b5a:	71 f0       	breq	.+28     	; 0xb78 <_Display_Out+0x28e>
     b5c:	f1 e0       	ldi	r31, 0x01	; 1
     b5e:	ff 12       	cpse	r15, r31
     b60:	0e c0       	rjmp	.+28     	; 0xb7e <_Display_Out+0x294>
     b62:	8f e3       	ldi	r24, 0x3F	; 63
     b64:	8e 15       	cp	r24, r14
     b66:	58 f0       	brcs	.+22     	; 0xb7e <_Display_Out+0x294>
     b68:	80 e4       	ldi	r24, 0x40	; 64
     b6a:	8e 0d       	add	r24, r14
     b6c:	0d dd       	rcall	.-1510   	; 0x588 <_LED_Set_Addres>
     b6e:	07 c0       	rjmp	.+14     	; 0xb7e <_Display_Out+0x294>
     b70:	9f e3       	ldi	r25, 0x3F	; 63
     b72:	9e 15       	cp	r25, r14
     b74:	20 f0       	brcs	.+8      	; 0xb7e <_Display_Out+0x294>
     b76:	f8 cf       	rjmp	.-16     	; 0xb68 <_Display_Out+0x27e>
     b78:	ef e3       	ldi	r30, 0x3F	; 63
     b7a:	ee 15       	cp	r30, r14
     b7c:	a8 f7       	brcc	.-22     	; 0xb68 <_Display_Out+0x27e>
     b7e:	0f 90       	pop	r0
     b80:	0f 90       	pop	r0
     b82:	df 91       	pop	r29
     b84:	cf 91       	pop	r28
     b86:	1f 91       	pop	r17
     b88:	0f 91       	pop	r16
     b8a:	ff 90       	pop	r15
     b8c:	ef 90       	pop	r14
     b8e:	df 90       	pop	r13
     b90:	cf 90       	pop	r12
     b92:	bf 90       	pop	r11
     b94:	af 90       	pop	r10
     b96:	08 95       	ret

00000b98 <_History_Save>:
     b98:	af 92       	push	r10
     b9a:	bf 92       	push	r11
     b9c:	cf 92       	push	r12
     b9e:	df 92       	push	r13
     ba0:	ef 92       	push	r14
     ba2:	ff 92       	push	r15
     ba4:	0f 93       	push	r16
     ba6:	1f 93       	push	r17
     ba8:	cf 93       	push	r28
     baa:	df 93       	push	r29
     bac:	20 91 4d 02 	lds	r18, 0x024D	; 0x80024d <_selected_Element>
     bb0:	30 91 4e 02 	lds	r19, 0x024E	; 0x80024e <_selected_Element+0x1>
     bb4:	f9 01       	movw	r30, r18
     bb6:	83 e0       	ldi	r24, 0x03	; 3
     bb8:	ee 0f       	add	r30, r30
     bba:	ff 1f       	adc	r31, r31
     bbc:	8a 95       	dec	r24
     bbe:	e1 f7       	brne	.-8      	; 0xbb8 <_History_Save+0x20>
     bc0:	df 01       	movw	r26, r30
     bc2:	a9 56       	subi	r26, 0x69	; 105
     bc4:	bc 4f       	sbci	r27, 0xFC	; 252
     bc6:	7c 91       	ld	r23, X
     bc8:	16 96       	adiw	r26, 0x06	; 6
     bca:	4c 91       	ld	r20, X
     bcc:	49 30       	cpi	r20, 0x09	; 9
     bce:	08 f0       	brcs	.+2      	; 0xbd2 <_History_Save+0x3a>
     bd0:	48 e0       	ldi	r20, 0x08	; 8
     bd2:	e9 56       	subi	r30, 0x69	; 105
     bd4:	fc 4f       	sbci	r31, 0xFC	; 252
     bd6:	54 81       	ldd	r21, Z+4	; 0x04
     bd8:	a5 80       	ldd	r10, Z+5	; 0x05
     bda:	60 91 50 02 	lds	r22, 0x0250	; 0x800250 <_my_Lib_Flags>
     bde:	65 fd       	sbrc	r22, 5
     be0:	33 c0       	rjmp	.+102    	; 0xc48 <_History_Save+0xb0>
     be2:	a0 91 49 02 	lds	r26, 0x0249	; 0x800249 <_line>
     be6:	8a 2f       	mov	r24, r26
     be8:	90 e0       	ldi	r25, 0x00	; 0
     bea:	fc 01       	movw	r30, r24
     bec:	ee 0f       	add	r30, r30
     bee:	ff 1f       	adc	r31, r31
     bf0:	e4 5f       	subi	r30, 0xF4	; 244
     bf2:	fc 4f       	sbci	r31, 0xFC	; 252
     bf4:	31 83       	std	Z+1, r19	; 0x01
     bf6:	20 83       	st	Z, r18
     bf8:	e5 2f       	mov	r30, r21
     bfa:	fa 2d       	mov	r31, r10
     bfc:	03 e0       	ldi	r16, 0x03	; 3
     bfe:	88 0f       	add	r24, r24
     c00:	99 1f       	adc	r25, r25
     c02:	0a 95       	dec	r16
     c04:	e1 f7       	brne	.-8      	; 0xbfe <_History_Save+0x66>
     c06:	20 e0       	ldi	r18, 0x00	; 0
     c08:	30 e0       	ldi	r19, 0x00	; 0
     c0a:	50 e0       	ldi	r21, 0x00	; 0
     c0c:	24 17       	cp	r18, r20
     c0e:	35 07       	cpc	r19, r21
     c10:	b4 f4       	brge	.+44     	; 0xc3e <_History_Save+0xa6>
     c12:	77 30       	cpi	r23, 0x07	; 7
     c14:	51 f0       	breq	.+20     	; 0xc2a <_History_Save+0x92>
     c16:	b1 91       	ld	r27, Z+
     c18:	e9 01       	movw	r28, r18
     c1a:	c8 0f       	add	r28, r24
     c1c:	d9 1f       	adc	r29, r25
     c1e:	cf 58       	subi	r28, 0x8F	; 143
     c20:	dd 4f       	sbci	r29, 0xFD	; 253
     c22:	b8 83       	st	Y, r27
     c24:	2f 5f       	subi	r18, 0xFF	; 255
     c26:	3f 4f       	sbci	r19, 0xFF	; 255
     c28:	f1 cf       	rjmp	.-30     	; 0xc0c <_History_Save+0x74>
     c2a:	82 0f       	add	r24, r18
     c2c:	93 1f       	adc	r25, r19
     c2e:	fc 01       	movw	r30, r24
     c30:	ef 58       	subi	r30, 0x8F	; 143
     c32:	fd 4f       	sbci	r31, 0xFD	; 253
     c34:	e9 01       	movw	r28, r18
     c36:	ce 5a       	subi	r28, 0xAE	; 174
     c38:	dd 4f       	sbci	r29, 0xFD	; 253
     c3a:	89 81       	ldd	r24, Y+1	; 0x01
     c3c:	80 83       	st	Z, r24
     c3e:	81 e0       	ldi	r24, 0x01	; 1
     c40:	8a 0f       	add	r24, r26
     c42:	80 93 49 02 	sts	0x0249, r24	; 0x800249 <_line>
     c46:	5d c0       	rjmp	.+186    	; 0xd02 <_History_Save+0x16a>
     c48:	0c e0       	ldi	r16, 0x0C	; 12
     c4a:	13 e0       	ldi	r17, 0x03	; 3
     c4c:	a1 e7       	ldi	r26, 0x71	; 113
     c4e:	b2 e0       	ldi	r27, 0x02	; 2
     c50:	e8 01       	movw	r28, r16
     c52:	8a 81       	ldd	r24, Y+2	; 0x02
     c54:	9b 81       	ldd	r25, Y+3	; 0x03
     c56:	f8 01       	movw	r30, r16
     c58:	81 93       	st	Z+, r24
     c5a:	91 93       	st	Z+, r25
     c5c:	8f 01       	movw	r16, r30
     c5e:	d3 e0       	ldi	r29, 0x03	; 3
     c60:	88 0f       	add	r24, r24
     c62:	99 1f       	adc	r25, r25
     c64:	da 95       	dec	r29
     c66:	e1 f7       	brne	.-8      	; 0xc60 <_History_Save+0xc8>
     c68:	fc 01       	movw	r30, r24
     c6a:	e9 56       	subi	r30, 0x69	; 105
     c6c:	fc 4f       	sbci	r31, 0xFC	; 252
     c6e:	e6 81       	ldd	r30, Z+6	; 0x06
     c70:	f0 e0       	ldi	r31, 0x00	; 0
     c72:	80 e0       	ldi	r24, 0x00	; 0
     c74:	90 e0       	ldi	r25, 0x00	; 0
     c76:	ed 01       	movw	r28, r26
     c78:	28 96       	adiw	r28, 0x08	; 8
     c7a:	7e 01       	movw	r14, r28
     c7c:	8e 17       	cp	r24, r30
     c7e:	9f 07       	cpc	r25, r31
     c80:	64 f4       	brge	.+24     	; 0xc9a <_History_Save+0x102>
     c82:	67 01       	movw	r12, r14
     c84:	c8 0e       	add	r12, r24
     c86:	d9 1e       	adc	r13, r25
     c88:	e6 01       	movw	r28, r12
     c8a:	b8 80       	ld	r11, Y
     c8c:	6d 01       	movw	r12, r26
     c8e:	c8 0e       	add	r12, r24
     c90:	d9 1e       	adc	r13, r25
     c92:	e6 01       	movw	r28, r12
     c94:	b8 82       	st	Y, r11
     c96:	01 96       	adiw	r24, 0x01	; 1
     c98:	f1 cf       	rjmp	.-30     	; 0xc7c <_History_Save+0xe4>
     c9a:	d7 01       	movw	r26, r14
     c9c:	d2 e0       	ldi	r29, 0x02	; 2
     c9e:	a9 3e       	cpi	r26, 0xE9	; 233
     ca0:	bd 07       	cpc	r27, r29
     ca2:	b1 f6       	brne	.-84     	; 0xc50 <_History_Save+0xb8>
     ca4:	a0 91 49 02 	lds	r26, 0x0249	; 0x800249 <_line>
     ca8:	8a 2f       	mov	r24, r26
     caa:	90 e0       	ldi	r25, 0x00	; 0
     cac:	fc 01       	movw	r30, r24
     cae:	ee 0f       	add	r30, r30
     cb0:	ff 1f       	adc	r31, r31
     cb2:	e6 5f       	subi	r30, 0xF6	; 246
     cb4:	fc 4f       	sbci	r31, 0xFC	; 252
     cb6:	31 83       	std	Z+1, r19	; 0x01
     cb8:	20 83       	st	Z, r18
     cba:	e5 2f       	mov	r30, r21
     cbc:	fa 2d       	mov	r31, r10
     cbe:	c3 e0       	ldi	r28, 0x03	; 3
     cc0:	88 0f       	add	r24, r24
     cc2:	99 1f       	adc	r25, r25
     cc4:	ca 95       	dec	r28
     cc6:	e1 f7       	brne	.-8      	; 0xcc0 <_History_Save+0x128>
     cc8:	20 e0       	ldi	r18, 0x00	; 0
     cca:	30 e0       	ldi	r19, 0x00	; 0
     ccc:	50 e0       	ldi	r21, 0x00	; 0
     cce:	24 17       	cp	r18, r20
     cd0:	35 07       	cpc	r19, r21
     cd2:	b4 f4       	brge	.+44     	; 0xd00 <_History_Save+0x168>
     cd4:	77 30       	cpi	r23, 0x07	; 7
     cd6:	51 f0       	breq	.+20     	; 0xcec <_History_Save+0x154>
     cd8:	b1 91       	ld	r27, Z+
     cda:	e9 01       	movw	r28, r18
     cdc:	c8 0f       	add	r28, r24
     cde:	d9 1f       	adc	r29, r25
     ce0:	cf 58       	subi	r28, 0x8F	; 143
     ce2:	dd 4f       	sbci	r29, 0xFD	; 253
     ce4:	b8 83       	st	Y, r27
     ce6:	2f 5f       	subi	r18, 0xFF	; 255
     ce8:	3f 4f       	sbci	r19, 0xFF	; 255
     cea:	f1 cf       	rjmp	.-30     	; 0xcce <_History_Save+0x136>
     cec:	82 0f       	add	r24, r18
     cee:	93 1f       	adc	r25, r19
     cf0:	fc 01       	movw	r30, r24
     cf2:	ef 58       	subi	r30, 0x8F	; 143
     cf4:	fd 4f       	sbci	r31, 0xFD	; 253
     cf6:	e9 01       	movw	r28, r18
     cf8:	ce 5a       	subi	r28, 0xAE	; 174
     cfa:	dd 4f       	sbci	r29, 0xFD	; 253
     cfc:	89 81       	ldd	r24, Y+1	; 0x01
     cfe:	80 83       	st	Z, r24
     d00:	a1 50       	subi	r26, 0x01	; 1
     d02:	a0 93 4a 02 	sts	0x024A, r26	; 0x80024a <_line2>
     d06:	80 91 49 02 	lds	r24, 0x0249	; 0x800249 <_line>
     d0a:	80 31       	cpi	r24, 0x10	; 16
     d0c:	18 f0       	brcs	.+6      	; 0xd14 <_History_Save+0x17c>
     d0e:	60 62       	ori	r22, 0x20	; 32
     d10:	60 93 50 02 	sts	0x0250, r22	; 0x800250 <_my_Lib_Flags>
     d14:	df 91       	pop	r29
     d16:	cf 91       	pop	r28
     d18:	1f 91       	pop	r17
     d1a:	0f 91       	pop	r16
     d1c:	ff 90       	pop	r15
     d1e:	ef 90       	pop	r14
     d20:	df 90       	pop	r13
     d22:	cf 90       	pop	r12
     d24:	bf 90       	pop	r11
     d26:	af 90       	pop	r10
     d28:	08 95       	ret

00000d2a <_New_Param>:
     d2a:	cf 93       	push	r28
     d2c:	df 93       	push	r29
     d2e:	e0 91 4d 02 	lds	r30, 0x024D	; 0x80024d <_selected_Element>
     d32:	f0 91 4e 02 	lds	r31, 0x024E	; 0x80024e <_selected_Element+0x1>
     d36:	93 e0       	ldi	r25, 0x03	; 3
     d38:	ee 0f       	add	r30, r30
     d3a:	ff 1f       	adc	r31, r31
     d3c:	9a 95       	dec	r25
     d3e:	e1 f7       	brne	.-8      	; 0xd38 <_New_Param+0xe>
     d40:	df 01       	movw	r26, r30
     d42:	a9 56       	subi	r26, 0x69	; 105
     d44:	bc 4f       	sbci	r27, 0xFC	; 252
     d46:	16 96       	adiw	r26, 0x06	; 6
     d48:	2c 91       	ld	r18, X
     d4a:	29 30       	cpi	r18, 0x09	; 9
     d4c:	08 f0       	brcs	.+2      	; 0xd50 <_New_Param+0x26>
     d4e:	28 e0       	ldi	r18, 0x08	; 8
     d50:	e9 56       	subi	r30, 0x69	; 105
     d52:	fc 4f       	sbci	r31, 0xFC	; 252
     d54:	90 81       	ld	r25, Z
     d56:	88 23       	and	r24, r24
     d58:	29 f0       	breq	.+10     	; 0xd64 <_New_Param+0x3a>
     d5a:	e2 e5       	ldi	r30, 0x52	; 82
     d5c:	f2 e0       	ldi	r31, 0x02	; 2
     d5e:	50 e0       	ldi	r21, 0x00	; 0
     d60:	30 e0       	ldi	r19, 0x00	; 0
     d62:	0a c0       	rjmp	.+20     	; 0xd78 <_New_Param+0x4e>
     d64:	6f 5f       	subi	r22, 0xFF	; 255
     d66:	62 17       	cp	r22, r18
     d68:	08 f4       	brcc	.+2      	; 0xd6c <_New_Param+0x42>
     d6a:	50 c1       	rjmp	.+672    	; 0x100c <_New_Param+0x2e2>
     d6c:	60 e0       	ldi	r22, 0x00	; 0
     d6e:	4e c1       	rjmp	.+668    	; 0x100c <_New_Param+0x2e2>
     d70:	71 91       	ld	r23, Z+
     d72:	7e 32       	cpi	r23, 0x2E	; 46
     d74:	09 f4       	brne	.+2      	; 0xd78 <_New_Param+0x4e>
     d76:	51 e0       	ldi	r21, 0x01	; 1
     d78:	df 01       	movw	r26, r30
     d7a:	a2 55       	subi	r26, 0x52	; 82
     d7c:	b2 40       	sbci	r27, 0x02	; 2
     d7e:	a2 17       	cp	r26, r18
     d80:	b3 07       	cpc	r27, r19
     d82:	b4 f3       	brlt	.-20     	; 0xd70 <_New_Param+0x46>
     d84:	81 30       	cpi	r24, 0x01	; 1
     d86:	21 f0       	breq	.+8      	; 0xd90 <_New_Param+0x66>
     d88:	82 30       	cpi	r24, 0x02	; 2
     d8a:	09 f4       	brne	.+2      	; 0xd8e <_New_Param+0x64>
     d8c:	a1 c0       	rjmp	.+322    	; 0xed0 <_New_Param+0x1a6>
     d8e:	3e c1       	rjmp	.+636    	; 0x100c <_New_Param+0x2e2>
     d90:	95 30       	cpi	r25, 0x05	; 5
     d92:	09 f4       	brne	.+2      	; 0xd96 <_New_Param+0x6c>
     d94:	46 c0       	rjmp	.+140    	; 0xe22 <_New_Param+0xf8>
     d96:	28 f4       	brcc	.+10     	; 0xda2 <_New_Param+0x78>
     d98:	91 30       	cpi	r25, 0x01	; 1
     d9a:	79 f0       	breq	.+30     	; 0xdba <_New_Param+0x90>
     d9c:	92 30       	cpi	r25, 0x02	; 2
     d9e:	41 f0       	breq	.+16     	; 0xdb0 <_New_Param+0x86>
     da0:	35 c1       	rjmp	.+618    	; 0x100c <_New_Param+0x2e2>
     da2:	97 30       	cpi	r25, 0x07	; 7
     da4:	09 f4       	brne	.+2      	; 0xda8 <_New_Param+0x7e>
     da6:	57 c0       	rjmp	.+174    	; 0xe56 <_New_Param+0x12c>
     da8:	98 30       	cpi	r25, 0x08	; 8
     daa:	09 f4       	brne	.+2      	; 0xdae <_New_Param+0x84>
     dac:	84 c0       	rjmp	.+264    	; 0xeb6 <_New_Param+0x18c>
     dae:	2e c1       	rjmp	.+604    	; 0x100c <_New_Param+0x2e2>
     db0:	90 91 4f 02 	lds	r25, 0x024F	; 0x80024f <_temp_Switch>
     db4:	91 11       	cpse	r25, r1
     db6:	a4 c0       	rjmp	.+328    	; 0xf00 <_New_Param+0x1d6>
     db8:	a0 c0       	rjmp	.+320    	; 0xefa <_New_Param+0x1d0>
     dba:	a6 2f       	mov	r26, r22
     dbc:	b0 e0       	ldi	r27, 0x00	; 0
     dbe:	fd 01       	movw	r30, r26
     dc0:	ee 5a       	subi	r30, 0xAE	; 174
     dc2:	fd 4f       	sbci	r31, 0xFD	; 253
     dc4:	80 81       	ld	r24, Z
     dc6:	8b 32       	cpi	r24, 0x2B	; 43
     dc8:	09 f4       	brne	.+2      	; 0xdcc <_New_Param+0xa2>
     dca:	a5 c0       	rjmp	.+330    	; 0xf16 <_New_Param+0x1ec>
     dcc:	8d 32       	cpi	r24, 0x2D	; 45
     dce:	09 f4       	brne	.+2      	; 0xdd2 <_New_Param+0xa8>
     dd0:	a6 c0       	rjmp	.+332    	; 0xf1e <_New_Param+0x1f4>
     dd2:	8f 5f       	subi	r24, 0xFF	; 255
     dd4:	80 83       	st	Z, r24
     dd6:	66 23       	and	r22, r22
     dd8:	39 f0       	breq	.+14     	; 0xde8 <_New_Param+0xbe>
     dda:	21 50       	subi	r18, 0x01	; 1
     ddc:	31 09       	sbc	r19, r1
     dde:	a2 17       	cp	r26, r18
     de0:	b3 07       	cpc	r27, r19
     de2:	11 f0       	breq	.+4      	; 0xde8 <_New_Param+0xbe>
     de4:	51 30       	cpi	r21, 0x01	; 1
     de6:	19 f4       	brne	.+6      	; 0xdee <_New_Param+0xc4>
     de8:	8a 33       	cpi	r24, 0x3A	; 58
     dea:	b8 f0       	brcs	.+46     	; 0xe1a <_New_Param+0xf0>
     dec:	6f c0       	rjmp	.+222    	; 0xecc <_New_Param+0x1a2>
     dee:	61 30       	cpi	r22, 0x01	; 1
     df0:	89 f4       	brne	.+34     	; 0xe14 <_New_Param+0xea>
     df2:	90 91 52 02 	lds	r25, 0x0252	; 0x800252 <_temp_Array>
     df6:	9b 32       	cpi	r25, 0x2B	; 43
     df8:	11 f0       	breq	.+4      	; 0xdfe <_New_Param+0xd4>
     dfa:	9d 32       	cpi	r25, 0x2D	; 45
     dfc:	19 f4       	brne	.+6      	; 0xe04 <_New_Param+0xda>
     dfe:	8a 33       	cpi	r24, 0x3A	; 58
     e00:	20 f0       	brcs	.+8      	; 0xe0a <_New_Param+0xe0>
     e02:	64 c0       	rjmp	.+200    	; 0xecc <_New_Param+0x1a2>
     e04:	8a 33       	cpi	r24, 0x3A	; 58
     e06:	08 f0       	brcs	.+2      	; 0xe0a <_New_Param+0xe0>
     e08:	b4 c0       	rjmp	.+360    	; 0xf72 <_New_Param+0x248>
     e0a:	80 33       	cpi	r24, 0x30	; 48
     e0c:	08 f4       	brcc	.+2      	; 0xe10 <_New_Param+0xe6>
     e0e:	5e c0       	rjmp	.+188    	; 0xecc <_New_Param+0x1a2>
     e10:	61 e0       	ldi	r22, 0x01	; 1
     e12:	fc c0       	rjmp	.+504    	; 0x100c <_New_Param+0x2e2>
     e14:	8a 33       	cpi	r24, 0x3A	; 58
     e16:	08 f0       	brcs	.+2      	; 0xe1a <_New_Param+0xf0>
     e18:	ac c0       	rjmp	.+344    	; 0xf72 <_New_Param+0x248>
     e1a:	80 33       	cpi	r24, 0x30	; 48
     e1c:	08 f0       	brcs	.+2      	; 0xe20 <_New_Param+0xf6>
     e1e:	f6 c0       	rjmp	.+492    	; 0x100c <_New_Param+0x2e2>
     e20:	55 c0       	rjmp	.+170    	; 0xecc <_New_Param+0x1a2>
     e22:	e6 2f       	mov	r30, r22
     e24:	f0 e0       	ldi	r31, 0x00	; 0
     e26:	ee 5a       	subi	r30, 0xAE	; 174
     e28:	fd 4f       	sbci	r31, 0xFD	; 253
     e2a:	80 81       	ld	r24, Z
     e2c:	8f 5f       	subi	r24, 0xFF	; 255
     e2e:	80 3e       	cpi	r24, 0xE0	; 224
     e30:	09 f4       	brne	.+2      	; 0xe34 <_New_Param+0x10a>
     e32:	4c c0       	rjmp	.+152    	; 0xecc <_New_Param+0x1a2>
     e34:	8a 33       	cpi	r24, 0x3A	; 58
     e36:	09 f4       	brne	.+2      	; 0xe3a <_New_Param+0x110>
     e38:	9c c0       	rjmp	.+312    	; 0xf72 <_New_Param+0x248>
     e3a:	8f 32       	cpi	r24, 0x2F	; 47
     e3c:	09 f4       	brne	.+2      	; 0xe40 <_New_Param+0x116>
     e3e:	e5 c0       	rjmp	.+458    	; 0x100a <_New_Param+0x2e0>
     e40:	80 33       	cpi	r24, 0x30	; 48
     e42:	09 f4       	brne	.+2      	; 0xe46 <_New_Param+0x11c>
     e44:	a4 c0       	rjmp	.+328    	; 0xf8e <_New_Param+0x264>
     e46:	8f 35       	cpi	r24, 0x5F	; 95
     e48:	09 f4       	brne	.+2      	; 0xe4c <_New_Param+0x122>
     e4a:	9d c0       	rjmp	.+314    	; 0xf86 <_New_Param+0x25c>
     e4c:	81 32       	cpi	r24, 0x21	; 33
     e4e:	09 f0       	breq	.+2      	; 0xe52 <_New_Param+0x128>
     e50:	dc c0       	rjmp	.+440    	; 0x100a <_New_Param+0x2e0>
     e52:	80 ec       	ldi	r24, 0xC0	; 192
     e54:	da c0       	rjmp	.+436    	; 0x100a <_New_Param+0x2e0>
     e56:	80 91 48 02 	lds	r24, 0x0248	; 0x800248 <_temp_List>
     e5a:	51 e0       	ldi	r21, 0x01	; 1
     e5c:	58 0f       	add	r21, r24
     e5e:	50 93 48 02 	sts	0x0248, r21	; 0x800248 <_temp_List>
     e62:	98 e0       	ldi	r25, 0x08	; 8
     e64:	49 9f       	mul	r20, r25
     e66:	f0 01       	movw	r30, r0
     e68:	11 24       	eor	r1, r1
     e6a:	e9 56       	subi	r30, 0x69	; 105
     e6c:	fc 4f       	sbci	r31, 0xFC	; 252
     e6e:	04 80       	ldd	r0, Z+4	; 0x04
     e70:	f5 81       	ldd	r31, Z+5	; 0x05
     e72:	e0 2d       	mov	r30, r0
     e74:	52 03       	mulsu	r21, r18
     e76:	d0 01       	movw	r26, r0
     e78:	53 9f       	mul	r21, r19
     e7a:	b0 0d       	add	r27, r0
     e7c:	11 24       	eor	r1, r1
     e7e:	ae 0f       	add	r26, r30
     e80:	bf 1f       	adc	r27, r31
     e82:	9c 91       	ld	r25, X
     e84:	9f 3f       	cpi	r25, 0xFF	; 255
     e86:	11 f4       	brne	.+4      	; 0xe8c <_New_Param+0x162>
     e88:	80 93 48 02 	sts	0x0248, r24	; 0x800248 <_temp_List>
     e8c:	40 91 48 02 	lds	r20, 0x0248	; 0x800248 <_temp_List>
     e90:	42 03       	mulsu	r20, r18
     e92:	c0 01       	movw	r24, r0
     e94:	43 9f       	mul	r20, r19
     e96:	90 0d       	add	r25, r0
     e98:	11 24       	eor	r1, r1
     e9a:	e8 0f       	add	r30, r24
     e9c:	f9 1f       	adc	r31, r25
     e9e:	a2 e5       	ldi	r26, 0x52	; 82
     ea0:	b2 e0       	ldi	r27, 0x02	; 2
     ea2:	cd 01       	movw	r24, r26
     ea4:	82 55       	subi	r24, 0x52	; 82
     ea6:	92 40       	sbci	r25, 0x02	; 2
     ea8:	82 17       	cp	r24, r18
     eaa:	93 07       	cpc	r25, r19
     eac:	0c f0       	brlt	.+2      	; 0xeb0 <_New_Param+0x186>
     eae:	ae c0       	rjmp	.+348    	; 0x100c <_New_Param+0x2e2>
     eb0:	81 91       	ld	r24, Z+
     eb2:	8d 93       	st	X+, r24
     eb4:	f6 cf       	rjmp	.-20     	; 0xea2 <_New_Param+0x178>
     eb6:	e6 2f       	mov	r30, r22
     eb8:	f0 e0       	ldi	r31, 0x00	; 0
     eba:	ee 5a       	subi	r30, 0xAE	; 174
     ebc:	fd 4f       	sbci	r31, 0xFD	; 253
     ebe:	80 81       	ld	r24, Z
     ec0:	8f 5f       	subi	r24, 0xFF	; 255
     ec2:	8a 33       	cpi	r24, 0x3A	; 58
     ec4:	18 f4       	brcc	.+6      	; 0xecc <_New_Param+0x1a2>
     ec6:	80 33       	cpi	r24, 0x30	; 48
     ec8:	08 f0       	brcs	.+2      	; 0xecc <_New_Param+0x1a2>
     eca:	9f c0       	rjmp	.+318    	; 0x100a <_New_Param+0x2e0>
     ecc:	80 e3       	ldi	r24, 0x30	; 48
     ece:	9d c0       	rjmp	.+314    	; 0x100a <_New_Param+0x2e0>
     ed0:	95 30       	cpi	r25, 0x05	; 5
     ed2:	09 f4       	brne	.+2      	; 0xed6 <_New_Param+0x1ac>
     ed4:	50 c0       	rjmp	.+160    	; 0xf76 <_New_Param+0x24c>
     ed6:	28 f4       	brcc	.+10     	; 0xee2 <_New_Param+0x1b8>
     ed8:	91 30       	cpi	r25, 0x01	; 1
     eda:	a9 f0       	breq	.+42     	; 0xf06 <_New_Param+0x1dc>
     edc:	92 30       	cpi	r25, 0x02	; 2
     ede:	41 f0       	breq	.+16     	; 0xef0 <_New_Param+0x1c6>
     ee0:	95 c0       	rjmp	.+298    	; 0x100c <_New_Param+0x2e2>
     ee2:	97 30       	cpi	r25, 0x07	; 7
     ee4:	09 f4       	brne	.+2      	; 0xee8 <_New_Param+0x1be>
     ee6:	61 c0       	rjmp	.+194    	; 0xfaa <_New_Param+0x280>
     ee8:	98 30       	cpi	r25, 0x08	; 8
     eea:	09 f4       	brne	.+2      	; 0xeee <_New_Param+0x1c4>
     eec:	85 c0       	rjmp	.+266    	; 0xff8 <_New_Param+0x2ce>
     eee:	8e c0       	rjmp	.+284    	; 0x100c <_New_Param+0x2e2>
     ef0:	80 91 4f 02 	lds	r24, 0x024F	; 0x80024f <_temp_Switch>
     ef4:	81 11       	cpse	r24, r1
     ef6:	04 c0       	rjmp	.+8      	; 0xf00 <_New_Param+0x1d6>
     ef8:	81 e0       	ldi	r24, 0x01	; 1
     efa:	80 93 4f 02 	sts	0x024F, r24	; 0x80024f <_temp_Switch>
     efe:	86 c0       	rjmp	.+268    	; 0x100c <_New_Param+0x2e2>
     f00:	10 92 4f 02 	sts	0x024F, r1	; 0x80024f <_temp_Switch>
     f04:	83 c0       	rjmp	.+262    	; 0x100c <_New_Param+0x2e2>
     f06:	a6 2f       	mov	r26, r22
     f08:	b0 e0       	ldi	r27, 0x00	; 0
     f0a:	fd 01       	movw	r30, r26
     f0c:	ee 5a       	subi	r30, 0xAE	; 174
     f0e:	fd 4f       	sbci	r31, 0xFD	; 253
     f10:	80 81       	ld	r24, Z
     f12:	8b 32       	cpi	r24, 0x2B	; 43
     f14:	11 f4       	brne	.+4      	; 0xf1a <_New_Param+0x1f0>
     f16:	8d e2       	ldi	r24, 0x2D	; 45
     f18:	78 c0       	rjmp	.+240    	; 0x100a <_New_Param+0x2e0>
     f1a:	8d 32       	cpi	r24, 0x2D	; 45
     f1c:	11 f4       	brne	.+4      	; 0xf22 <_New_Param+0x1f8>
     f1e:	8b e2       	ldi	r24, 0x2B	; 43
     f20:	74 c0       	rjmp	.+232    	; 0x100a <_New_Param+0x2e0>
     f22:	81 50       	subi	r24, 0x01	; 1
     f24:	80 83       	st	Z, r24
     f26:	66 23       	and	r22, r22
     f28:	39 f0       	breq	.+14     	; 0xf38 <_New_Param+0x20e>
     f2a:	21 50       	subi	r18, 0x01	; 1
     f2c:	31 09       	sbc	r19, r1
     f2e:	a2 17       	cp	r26, r18
     f30:	b3 07       	cpc	r27, r19
     f32:	11 f0       	breq	.+4      	; 0xf38 <_New_Param+0x20e>
     f34:	51 30       	cpi	r21, 0x01	; 1
     f36:	21 f4       	brne	.+8      	; 0xf40 <_New_Param+0x216>
     f38:	80 33       	cpi	r24, 0x30	; 48
     f3a:	08 f0       	brcs	.+2      	; 0xf3e <_New_Param+0x214>
     f3c:	67 c0       	rjmp	.+206    	; 0x100c <_New_Param+0x2e2>
     f3e:	64 c0       	rjmp	.+200    	; 0x1008 <_New_Param+0x2de>
     f40:	61 30       	cpi	r22, 0x01	; 1
     f42:	89 f4       	brne	.+34     	; 0xf66 <_New_Param+0x23c>
     f44:	90 91 52 02 	lds	r25, 0x0252	; 0x800252 <_temp_Array>
     f48:	9b 32       	cpi	r25, 0x2B	; 43
     f4a:	11 f0       	breq	.+4      	; 0xf50 <_New_Param+0x226>
     f4c:	9d 32       	cpi	r25, 0x2D	; 45
     f4e:	21 f4       	brne	.+8      	; 0xf58 <_New_Param+0x22e>
     f50:	80 33       	cpi	r24, 0x30	; 48
     f52:	08 f0       	brcs	.+2      	; 0xf56 <_New_Param+0x22c>
     f54:	5d cf       	rjmp	.-326    	; 0xe10 <_New_Param+0xe6>
     f56:	58 c0       	rjmp	.+176    	; 0x1008 <_New_Param+0x2de>
     f58:	8e 32       	cpi	r24, 0x2E	; 46
     f5a:	08 f4       	brcc	.+2      	; 0xf5e <_New_Param+0x234>
     f5c:	55 c0       	rjmp	.+170    	; 0x1008 <_New_Param+0x2de>
     f5e:	80 33       	cpi	r24, 0x30	; 48
     f60:	08 f0       	brcs	.+2      	; 0xf64 <_New_Param+0x23a>
     f62:	56 cf       	rjmp	.-340    	; 0xe10 <_New_Param+0xe6>
     f64:	06 c0       	rjmp	.+12     	; 0xf72 <_New_Param+0x248>
     f66:	8e 32       	cpi	r24, 0x2E	; 46
     f68:	08 f4       	brcc	.+2      	; 0xf6c <_New_Param+0x242>
     f6a:	4e c0       	rjmp	.+156    	; 0x1008 <_New_Param+0x2de>
     f6c:	80 33       	cpi	r24, 0x30	; 48
     f6e:	08 f0       	brcs	.+2      	; 0xf72 <_New_Param+0x248>
     f70:	4d c0       	rjmp	.+154    	; 0x100c <_New_Param+0x2e2>
     f72:	8e e2       	ldi	r24, 0x2E	; 46
     f74:	4a c0       	rjmp	.+148    	; 0x100a <_New_Param+0x2e0>
     f76:	e6 2f       	mov	r30, r22
     f78:	f0 e0       	ldi	r31, 0x00	; 0
     f7a:	ee 5a       	subi	r30, 0xAE	; 174
     f7c:	fd 4f       	sbci	r31, 0xFD	; 253
     f7e:	80 81       	ld	r24, Z
     f80:	81 50       	subi	r24, 0x01	; 1
     f82:	8f 3b       	cpi	r24, 0xBF	; 191
     f84:	11 f4       	brne	.+4      	; 0xf8a <_New_Param+0x260>
     f86:	80 e2       	ldi	r24, 0x20	; 32
     f88:	40 c0       	rjmp	.+128    	; 0x100a <_New_Param+0x2e0>
     f8a:	8f 31       	cpi	r24, 0x1F	; 31
     f8c:	11 f4       	brne	.+4      	; 0xf92 <_New_Param+0x268>
     f8e:	8e e5       	ldi	r24, 0x5E	; 94
     f90:	3c c0       	rjmp	.+120    	; 0x100a <_New_Param+0x2e0>
     f92:	8d 35       	cpi	r24, 0x5D	; 93
     f94:	11 f4       	brne	.+4      	; 0xf9a <_New_Param+0x270>
     f96:	8f e2       	ldi	r24, 0x2F	; 47
     f98:	38 c0       	rjmp	.+112    	; 0x100a <_New_Param+0x2e0>
     f9a:	8e 32       	cpi	r24, 0x2E	; 46
     f9c:	b1 f1       	breq	.+108    	; 0x100a <_New_Param+0x2e0>
     f9e:	8d 32       	cpi	r24, 0x2D	; 45
     fa0:	99 f1       	breq	.+102    	; 0x1008 <_New_Param+0x2de>
     fa2:	8f 32       	cpi	r24, 0x2F	; 47
     fa4:	91 f5       	brne	.+100    	; 0x100a <_New_Param+0x2e0>
     fa6:	8f ed       	ldi	r24, 0xDF	; 223
     fa8:	30 c0       	rjmp	.+96     	; 0x100a <_New_Param+0x2e0>
     faa:	80 91 48 02 	lds	r24, 0x0248	; 0x800248 <_temp_List>
     fae:	88 23       	and	r24, r24
     fb0:	19 f0       	breq	.+6      	; 0xfb8 <_New_Param+0x28e>
     fb2:	81 50       	subi	r24, 0x01	; 1
     fb4:	80 93 48 02 	sts	0x0248, r24	; 0x800248 <_temp_List>
     fb8:	50 91 48 02 	lds	r21, 0x0248	; 0x800248 <_temp_List>
     fbc:	52 03       	mulsu	r21, r18
     fbe:	c0 01       	movw	r24, r0
     fc0:	53 9f       	mul	r21, r19
     fc2:	90 0d       	add	r25, r0
     fc4:	11 24       	eor	r1, r1
     fc6:	c2 e5       	ldi	r28, 0x52	; 82
     fc8:	d2 e0       	ldi	r29, 0x02	; 2
     fca:	58 e0       	ldi	r21, 0x08	; 8
     fcc:	45 9f       	mul	r20, r21
     fce:	f0 01       	movw	r30, r0
     fd0:	11 24       	eor	r1, r1
     fd2:	e5 56       	subi	r30, 0x65	; 101
     fd4:	fc 4f       	sbci	r31, 0xFC	; 252
     fd6:	82 55       	subi	r24, 0x52	; 82
     fd8:	92 40       	sbci	r25, 0x02	; 2
     fda:	ae 01       	movw	r20, r28
     fdc:	42 55       	subi	r20, 0x52	; 82
     fde:	52 40       	sbci	r21, 0x02	; 2
     fe0:	42 17       	cp	r20, r18
     fe2:	53 07       	cpc	r21, r19
     fe4:	9c f4       	brge	.+38     	; 0x100c <_New_Param+0x2e2>
     fe6:	a0 81       	ld	r26, Z
     fe8:	b1 81       	ldd	r27, Z+1	; 0x01
     fea:	ac 0f       	add	r26, r28
     fec:	bd 1f       	adc	r27, r29
     fee:	a8 0f       	add	r26, r24
     ff0:	b9 1f       	adc	r27, r25
     ff2:	4c 91       	ld	r20, X
     ff4:	49 93       	st	Y+, r20
     ff6:	f1 cf       	rjmp	.-30     	; 0xfda <_New_Param+0x2b0>
     ff8:	e6 2f       	mov	r30, r22
     ffa:	f0 e0       	ldi	r31, 0x00	; 0
     ffc:	ee 5a       	subi	r30, 0xAE	; 174
     ffe:	fd 4f       	sbci	r31, 0xFD	; 253
    1000:	80 81       	ld	r24, Z
    1002:	81 50       	subi	r24, 0x01	; 1
    1004:	80 33       	cpi	r24, 0x30	; 48
    1006:	08 f4       	brcc	.+2      	; 0x100a <_New_Param+0x2e0>
    1008:	89 e3       	ldi	r24, 0x39	; 57
    100a:	80 83       	st	Z, r24
    100c:	86 2f       	mov	r24, r22
    100e:	df 91       	pop	r29
    1010:	cf 91       	pop	r28
    1012:	08 95       	ret

00001014 <_Menu_Data_Change>:
    1014:	dc 01       	movw	r26, r24
    1016:	e0 91 4d 02 	lds	r30, 0x024D	; 0x80024d <_selected_Element>
    101a:	f0 91 4e 02 	lds	r31, 0x024E	; 0x80024e <_selected_Element+0x1>
    101e:	83 e0       	ldi	r24, 0x03	; 3
    1020:	ee 0f       	add	r30, r30
    1022:	ff 1f       	adc	r31, r31
    1024:	8a 95       	dec	r24
    1026:	e1 f7       	brne	.-8      	; 0x1020 <_Menu_Data_Change+0xc>
    1028:	e9 56       	subi	r30, 0x69	; 105
    102a:	fc 4f       	sbci	r31, 0xFC	; 252
    102c:	90 81       	ld	r25, Z
    102e:	26 81       	ldd	r18, Z+6	; 0x06
    1030:	80 91 50 02 	lds	r24, 0x0250	; 0x800250 <_my_Lib_Flags>
    1034:	84 ff       	sbrs	r24, 4
    1036:	34 c0       	rjmp	.+104    	; 0x10a0 <_Menu_Data_Change+0x8c>
    1038:	29 30       	cpi	r18, 0x09	; 9
    103a:	08 f0       	brcs	.+2      	; 0x103e <_Menu_Data_Change+0x2a>
    103c:	28 e0       	ldi	r18, 0x08	; 8
    103e:	8f 7e       	andi	r24, 0xEF	; 239
    1040:	80 93 50 02 	sts	0x0250, r24	; 0x800250 <_my_Lib_Flags>
    1044:	95 30       	cpi	r25, 0x05	; 5
    1046:	91 f0       	breq	.+36     	; 0x106c <_Menu_Data_Change+0x58>
    1048:	40 f4       	brcc	.+16     	; 0x105a <_Menu_Data_Change+0x46>
    104a:	91 30       	cpi	r25, 0x01	; 1
    104c:	79 f0       	breq	.+30     	; 0x106c <_Menu_Data_Change+0x58>
    104e:	92 30       	cpi	r25, 0x02	; 2
    1050:	11 f5       	brne	.+68     	; 0x1096 <_Menu_Data_Change+0x82>
    1052:	80 91 4f 02 	lds	r24, 0x024F	; 0x80024f <_temp_Switch>
    1056:	8c 93       	st	X, r24
    1058:	1e c0       	rjmp	.+60     	; 0x1096 <_Menu_Data_Change+0x82>
    105a:	97 30       	cpi	r25, 0x07	; 7
    105c:	19 f0       	breq	.+6      	; 0x1064 <_Menu_Data_Change+0x50>
    105e:	98 30       	cpi	r25, 0x08	; 8
    1060:	d1 f4       	brne	.+52     	; 0x1096 <_Menu_Data_Change+0x82>
    1062:	04 c0       	rjmp	.+8      	; 0x106c <_Menu_Data_Change+0x58>
    1064:	e2 e5       	ldi	r30, 0x52	; 82
    1066:	f2 e0       	ldi	r31, 0x02	; 2
    1068:	30 e0       	ldi	r19, 0x00	; 0
    106a:	0c c0       	rjmp	.+24     	; 0x1084 <_Menu_Data_Change+0x70>
    106c:	e2 e5       	ldi	r30, 0x52	; 82
    106e:	f2 e0       	ldi	r31, 0x02	; 2
    1070:	30 e0       	ldi	r19, 0x00	; 0
    1072:	af 01       	movw	r20, r30
    1074:	42 55       	subi	r20, 0x52	; 82
    1076:	52 40       	sbci	r21, 0x02	; 2
    1078:	42 17       	cp	r20, r18
    107a:	53 07       	cpc	r21, r19
    107c:	64 f4       	brge	.+24     	; 0x1096 <_Menu_Data_Change+0x82>
    107e:	81 91       	ld	r24, Z+
    1080:	8d 93       	st	X+, r24
    1082:	f7 cf       	rjmp	.-18     	; 0x1072 <_Menu_Data_Change+0x5e>
    1084:	af 01       	movw	r20, r30
    1086:	42 55       	subi	r20, 0x52	; 82
    1088:	52 40       	sbci	r21, 0x02	; 2
    108a:	42 17       	cp	r20, r18
    108c:	53 07       	cpc	r21, r19
    108e:	1c f4       	brge	.+6      	; 0x1096 <_Menu_Data_Change+0x82>
    1090:	81 91       	ld	r24, Z+
    1092:	8d 93       	st	X+, r24
    1094:	f7 cf       	rjmp	.-18     	; 0x1084 <_Menu_Data_Change+0x70>
    1096:	fb 01       	movw	r30, r22
    1098:	90 83       	st	Z, r25
    109a:	80 91 4d 02 	lds	r24, 0x024D	; 0x80024d <_selected_Element>
    109e:	08 95       	ret
    10a0:	80 e0       	ldi	r24, 0x00	; 0
    10a2:	08 95       	ret

000010a4 <Save_Changes>:
    10a4:	af 92       	push	r10
    10a6:	bf 92       	push	r11
    10a8:	cf 92       	push	r12
    10aa:	df 92       	push	r13
    10ac:	ef 92       	push	r14
    10ae:	ff 92       	push	r15
    10b0:	0f 93       	push	r16
    10b2:	1f 93       	push	r17
    10b4:	cf 93       	push	r28
    10b6:	8b 01       	movw	r16, r22
    10b8:	23 e0       	ldi	r18, 0x03	; 3
    10ba:	88 0f       	add	r24, r24
    10bc:	99 1f       	adc	r25, r25
    10be:	2a 95       	dec	r18
    10c0:	e1 f7       	brne	.-8      	; 0x10ba <Save_Changes+0x16>
    10c2:	dc 01       	movw	r26, r24
    10c4:	a9 56       	subi	r26, 0x69	; 105
    10c6:	bc 4f       	sbci	r27, 0xFC	; 252
    10c8:	e0 91 4d 02 	lds	r30, 0x024D	; 0x80024d <_selected_Element>
    10cc:	f0 91 4e 02 	lds	r31, 0x024E	; 0x80024e <_selected_Element+0x1>
    10d0:	33 e0       	ldi	r19, 0x03	; 3
    10d2:	ee 0f       	add	r30, r30
    10d4:	ff 1f       	adc	r31, r31
    10d6:	3a 95       	dec	r19
    10d8:	e1 f7       	brne	.-8      	; 0x10d2 <Save_Changes+0x2e>
    10da:	e9 56       	subi	r30, 0x69	; 105
    10dc:	fc 4f       	sbci	r31, 0xFC	; 252
    10de:	c4 80       	ldd	r12, Z+4	; 0x04
    10e0:	d5 80       	ldd	r13, Z+5	; 0x05
    10e2:	16 96       	adiw	r26, 0x06	; 6
    10e4:	cc 91       	ld	r28, X
    10e6:	c9 30       	cpi	r28, 0x09	; 9
    10e8:	08 f0       	brcs	.+2      	; 0x10ec <Save_Changes+0x48>
    10ea:	c8 e0       	ldi	r28, 0x08	; 8
    10ec:	9c 01       	movw	r18, r24
    10ee:	29 56       	subi	r18, 0x69	; 105
    10f0:	3c 4f       	sbci	r19, 0xFC	; 252
    10f2:	79 01       	movw	r14, r18
    10f4:	f9 01       	movw	r30, r18
    10f6:	a4 80       	ldd	r10, Z+4	; 0x04
    10f8:	b5 80       	ldd	r11, Z+5	; 0x05
    10fa:	4e dd       	rcall	.-1380   	; 0xb98 <_History_Save>
    10fc:	f7 01       	movw	r30, r14
    10fe:	80 81       	ld	r24, Z
    1100:	85 30       	cpi	r24, 0x05	; 5
    1102:	71 f0       	breq	.+28     	; 0x1120 <__stack+0x21>
    1104:	48 f4       	brcc	.+18     	; 0x1118 <__stack+0x19>
    1106:	81 30       	cpi	r24, 0x01	; 1
    1108:	59 f0       	breq	.+22     	; 0x1120 <__stack+0x21>
    110a:	82 30       	cpi	r24, 0x02	; 2
    110c:	e1 f5       	brne	.+120    	; 0x1186 <__stack+0x87>
    110e:	f8 01       	movw	r30, r16
    1110:	80 81       	ld	r24, Z
    1112:	f5 01       	movw	r30, r10
    1114:	80 83       	st	Z, r24
    1116:	37 c0       	rjmp	.+110    	; 0x1186 <__stack+0x87>
    1118:	87 30       	cpi	r24, 0x07	; 7
    111a:	79 f0       	breq	.+30     	; 0x113a <__stack+0x3b>
    111c:	88 30       	cpi	r24, 0x08	; 8
    111e:	99 f5       	brne	.+102    	; 0x1186 <__stack+0x87>
    1120:	f8 01       	movw	r30, r16
    1122:	d5 01       	movw	r26, r10
    1124:	8c 2f       	mov	r24, r28
    1126:	90 e0       	ldi	r25, 0x00	; 0
    1128:	9d 01       	movw	r18, r26
    112a:	2a 19       	sub	r18, r10
    112c:	3b 09       	sbc	r19, r11
    112e:	28 17       	cp	r18, r24
    1130:	39 07       	cpc	r19, r25
    1132:	4c f5       	brge	.+82     	; 0x1186 <__stack+0x87>
    1134:	21 91       	ld	r18, Z+
    1136:	2d 93       	st	X+, r18
    1138:	f7 cf       	rjmp	.-18     	; 0x1128 <__stack+0x29>
    113a:	50 91 52 02 	lds	r21, 0x0252	; 0x800252 <_temp_Array>
    113e:	8c 2f       	mov	r24, r28
    1140:	90 e0       	ldi	r25, 0x00	; 0
    1142:	f6 01       	movw	r30, r12
    1144:	20 e0       	ldi	r18, 0x00	; 0
    1146:	60 e0       	ldi	r22, 0x00	; 0
    1148:	40 e0       	ldi	r20, 0x00	; 0
    114a:	30 81       	ld	r19, Z
    114c:	3f 3f       	cpi	r19, 0xFF	; 255
    114e:	51 f0       	breq	.+20     	; 0x1164 <__stack+0x65>
    1150:	31 11       	cpse	r19, r1
    1152:	01 c0       	rjmp	.+2      	; 0x1156 <__stack+0x57>
    1154:	62 2f       	mov	r22, r18
    1156:	35 13       	cpse	r19, r21
    1158:	01 c0       	rjmp	.+2      	; 0x115c <__stack+0x5d>
    115a:	42 2f       	mov	r20, r18
    115c:	e8 0f       	add	r30, r24
    115e:	f9 1f       	adc	r31, r25
    1160:	2f 5f       	subi	r18, 0xFF	; 255
    1162:	f3 cf       	rjmp	.-26     	; 0x114a <__stack+0x4b>
    1164:	68 9f       	mul	r22, r24
    1166:	f0 01       	movw	r30, r0
    1168:	69 9f       	mul	r22, r25
    116a:	f0 0d       	add	r31, r0
    116c:	11 24       	eor	r1, r1
    116e:	ec 0d       	add	r30, r12
    1170:	fd 1d       	adc	r31, r13
    1172:	50 83       	st	Z, r21
    1174:	48 9f       	mul	r20, r24
    1176:	90 01       	movw	r18, r0
    1178:	49 9f       	mul	r20, r25
    117a:	30 0d       	add	r19, r0
    117c:	11 24       	eor	r1, r1
    117e:	f6 01       	movw	r30, r12
    1180:	e2 0f       	add	r30, r18
    1182:	f3 1f       	adc	r31, r19
    1184:	10 82       	st	Z, r1
    1186:	cf 91       	pop	r28
    1188:	1f 91       	pop	r17
    118a:	0f 91       	pop	r16
    118c:	ff 90       	pop	r15
    118e:	ef 90       	pop	r14
    1190:	df 90       	pop	r13
    1192:	cf 90       	pop	r12
    1194:	bf 90       	pop	r11
    1196:	af 90       	pop	r10
    1198:	08 95       	ret

0000119a <Goto_Menu>:
    119a:	8f 92       	push	r8
    119c:	9f 92       	push	r9
    119e:	bf 92       	push	r11
    11a0:	cf 92       	push	r12
    11a2:	df 92       	push	r13
    11a4:	ef 92       	push	r14
    11a6:	ff 92       	push	r15
    11a8:	0f 93       	push	r16
    11aa:	1f 93       	push	r17
    11ac:	cf 93       	push	r28
    11ae:	df 93       	push	r29
    11b0:	7c 01       	movw	r14, r24
    11b2:	8b 01       	movw	r16, r22
    11b4:	80 91 50 02 	lds	r24, 0x0250	; 0x800250 <_my_Lib_Flags>
    11b8:	86 60       	ori	r24, 0x06	; 6
    11ba:	80 93 50 02 	sts	0x0250, r24	; 0x800250 <_my_Lib_Flags>
    11be:	dd 24       	eor	r13, r13
    11c0:	d3 94       	inc	r13
    11c2:	cc 24       	eor	r12, r12
    11c4:	ca 94       	dec	r12
    11c6:	80 91 50 02 	lds	r24, 0x0250	; 0x800250 <_my_Lib_Flags>
    11ca:	86 fd       	sbrc	r24, 6
    11cc:	04 c0       	rjmp	.+8      	; 0x11d6 <Goto_Menu+0x3c>
    11ce:	8f 7e       	andi	r24, 0xEF	; 239
    11d0:	80 93 50 02 	sts	0x0250, r24	; 0x800250 <_my_Lib_Flags>
    11d4:	07 c0       	rjmp	.+14     	; 0x11e4 <Goto_Menu+0x4a>
    11d6:	8f 7a       	andi	r24, 0xAF	; 175
    11d8:	80 93 50 02 	sts	0x0250, r24	; 0x800250 <_my_Lib_Flags>
    11dc:	10 92 80 01 	sts	0x0180, r1	; 0x800180 <element_Count.2497>
    11e0:	10 92 7f 01 	sts	0x017F, r1	; 0x80017f <submenu_Count.2498>
    11e4:	60 91 7f 01 	lds	r22, 0x017F	; 0x80017f <submenu_Count.2498>
    11e8:	80 91 80 01 	lds	r24, 0x0180	; 0x800180 <element_Count.2497>
    11ec:	09 db       	rcall	.-2542   	; 0x800 <_Selected_Element_Calculate>
    11ee:	80 e0       	ldi	r24, 0x00	; 0
    11f0:	67 da       	rcall	.-2866   	; 0x6c0 <Key>
    11f2:	81 30       	cpi	r24, 0x01	; 1
    11f4:	09 f0       	breq	.+2      	; 0x11f8 <Goto_Menu+0x5e>
    11f6:	69 c1       	rjmp	.+722    	; 0x14ca <Goto_Menu+0x330>
    11f8:	c0 e0       	ldi	r28, 0x00	; 0
    11fa:	d0 e0       	ldi	r29, 0x00	; 0
    11fc:	b1 2c       	mov	r11, r1
    11fe:	80 e0       	ldi	r24, 0x00	; 0
    1200:	5f da       	rcall	.-2882   	; 0x6c0 <Key>
    1202:	81 30       	cpi	r24, 0x01	; 1
    1204:	09 f0       	breq	.+2      	; 0x1208 <Goto_Menu+0x6e>
    1206:	e3 c0       	rjmp	.+454    	; 0x13ce <Goto_Menu+0x234>
    1208:	83 e3       	ldi	r24, 0x33	; 51
    120a:	9b e2       	ldi	r25, 0x2B	; 43
    120c:	01 97       	sbiw	r24, 0x01	; 1
    120e:	f1 f7       	brne	.-4      	; 0x120c <Goto_Menu+0x72>
    1210:	90 91 50 02 	lds	r25, 0x0250	; 0x800250 <_my_Lib_Flags>
    1214:	93 ff       	sbrs	r25, 3
    1216:	13 c0       	rjmp	.+38     	; 0x123e <Goto_Menu+0xa4>
    1218:	cc 32       	cpi	r28, 0x2C	; 44
    121a:	91 e0       	ldi	r25, 0x01	; 1
    121c:	d9 07       	cpc	r29, r25
    121e:	80 f1       	brcs	.+96     	; 0x1280 <Goto_Menu+0xe6>
    1220:	81 e5       	ldi	r24, 0x51	; 81
    1222:	b2 d9       	rcall	.-3228   	; 0x588 <_LED_Set_Addres>
    1224:	c0 92 00 01 	sts	0x0100, r12	; 0x800100 <__data_start>
    1228:	80 91 50 02 	lds	r24, 0x0250	; 0x800250 <_my_Lib_Flags>
    122c:	87 7f       	andi	r24, 0xF7	; 247
    122e:	80 61       	ori	r24, 0x10	; 16
    1230:	80 93 50 02 	sts	0x0250, r24	; 0x800250 <_my_Lib_Flags>
    1234:	81 e0       	ldi	r24, 0x01	; 1
    1236:	2a da       	rcall	.-2988   	; 0x68c <Led>
    1238:	bb 24       	eor	r11, r11
    123a:	b3 94       	inc	r11
    123c:	29 c0       	rjmp	.+82     	; 0x1290 <Goto_Menu+0xf6>
    123e:	e0 91 4d 02 	lds	r30, 0x024D	; 0x80024d <_selected_Element>
    1242:	f0 91 4e 02 	lds	r31, 0x024E	; 0x80024e <_selected_Element+0x1>
    1246:	63 e0       	ldi	r22, 0x03	; 3
    1248:	ee 0f       	add	r30, r30
    124a:	ff 1f       	adc	r31, r31
    124c:	6a 95       	dec	r22
    124e:	e1 f7       	brne	.-8      	; 0x1248 <Goto_Menu+0xae>
    1250:	e9 56       	subi	r30, 0x69	; 105
    1252:	fc 4f       	sbci	r31, 0xFC	; 252
    1254:	80 81       	ld	r24, Z
    1256:	83 30       	cpi	r24, 0x03	; 3
    1258:	69 f4       	brne	.+26     	; 0x1274 <Goto_Menu+0xda>
    125a:	cc 32       	cpi	r28, 0x2C	; 44
    125c:	e1 e0       	ldi	r30, 0x01	; 1
    125e:	de 07       	cpc	r29, r30
    1260:	78 f0       	brcs	.+30     	; 0x1280 <Goto_Menu+0xe6>
    1262:	9b 7f       	andi	r25, 0xFB	; 251
    1264:	90 61       	ori	r25, 0x10	; 16
    1266:	90 93 50 02 	sts	0x0250, r25	; 0x800250 <_my_Lib_Flags>
    126a:	10 92 80 01 	sts	0x0180, r1	; 0x800180 <element_Count.2497>
    126e:	10 92 7f 01 	sts	0x017F, r1	; 0x80017f <submenu_Count.2498>
    1272:	0c c0       	rjmp	.+24     	; 0x128c <Goto_Menu+0xf2>
    1274:	86 30       	cpi	r24, 0x06	; 6
    1276:	61 f4       	brne	.+24     	; 0x1290 <Goto_Menu+0xf6>
    1278:	cc 32       	cpi	r28, 0x2C	; 44
    127a:	f1 e0       	ldi	r31, 0x01	; 1
    127c:	df 07       	cpc	r29, r31
    127e:	10 f4       	brcc	.+4      	; 0x1284 <Goto_Menu+0xea>
    1280:	21 96       	adiw	r28, 0x01	; 1
    1282:	06 c0       	rjmp	.+12     	; 0x1290 <Goto_Menu+0xf6>
    1284:	9b 7f       	andi	r25, 0xFB	; 251
    1286:	90 61       	ori	r25, 0x10	; 16
    1288:	90 93 50 02 	sts	0x0250, r25	; 0x800250 <_my_Lib_Flags>
    128c:	81 e0       	ldi	r24, 0x01	; 1
    128e:	fe d9       	rcall	.-3076   	; 0x68c <Led>
    1290:	80 91 50 02 	lds	r24, 0x0250	; 0x800250 <_my_Lib_Flags>
    1294:	83 ff       	sbrs	r24, 3
    1296:	78 c0       	rjmp	.+240    	; 0x1388 <Goto_Menu+0x1ee>
    1298:	e0 91 4d 02 	lds	r30, 0x024D	; 0x80024d <_selected_Element>
    129c:	f0 91 4e 02 	lds	r31, 0x024E	; 0x80024e <_selected_Element+0x1>
    12a0:	53 e0       	ldi	r21, 0x03	; 3
    12a2:	ee 0f       	add	r30, r30
    12a4:	ff 1f       	adc	r31, r31
    12a6:	5a 95       	dec	r21
    12a8:	e1 f7       	brne	.-8      	; 0x12a2 <Goto_Menu+0x108>
    12aa:	e9 56       	subi	r30, 0x69	; 105
    12ac:	fc 4f       	sbci	r31, 0xFC	; 252
    12ae:	80 81       	ld	r24, Z
    12b0:	82 30       	cpi	r24, 0x02	; 2
    12b2:	51 f5       	brne	.+84     	; 0x1308 <Goto_Menu+0x16e>
    12b4:	80 91 7e 01 	lds	r24, 0x017E	; 0x80017e <led_Curs.2500>
    12b8:	86 34       	cpi	r24, 0x46	; 70
    12ba:	58 f4       	brcc	.+22     	; 0x12d2 <Goto_Menu+0x138>
    12bc:	86 e6       	ldi	r24, 0x66	; 102
    12be:	9e e0       	ldi	r25, 0x0E	; 14
    12c0:	01 97       	sbiw	r24, 0x01	; 1
    12c2:	f1 f7       	brne	.-4      	; 0x12c0 <Goto_Menu+0x126>
    12c4:	00 00       	nop
    12c6:	80 91 7e 01 	lds	r24, 0x017E	; 0x80017e <led_Curs.2500>
    12ca:	8f 5f       	subi	r24, 0xFF	; 255
    12cc:	80 93 7e 01 	sts	0x017E, r24	; 0x80017e <led_Curs.2500>
    12d0:	19 c0       	rjmp	.+50     	; 0x1304 <Goto_Menu+0x16a>
    12d2:	10 92 7e 01 	sts	0x017E, r1	; 0x80017e <led_Curs.2500>
    12d6:	80 e4       	ldi	r24, 0x40	; 64
    12d8:	57 d9       	rcall	.-3410   	; 0x588 <_LED_Set_Addres>
    12da:	80 91 7d 01 	lds	r24, 0x017D	; 0x80017d <state.2501>
    12de:	88 23       	and	r24, r24
    12e0:	61 f0       	breq	.+24     	; 0x12fa <Goto_Menu+0x160>
    12e2:	10 92 7d 01 	sts	0x017D, r1	; 0x80017d <state.2501>
    12e6:	80 91 4f 02 	lds	r24, 0x024F	; 0x80024f <_temp_Switch>
    12ea:	88 23       	and	r24, r24
    12ec:	19 f0       	breq	.+6      	; 0x12f4 <Goto_Menu+0x15a>
    12ee:	88 eb       	ldi	r24, 0xB8	; 184
    12f0:	93 e0       	ldi	r25, 0x03	; 3
    12f2:	07 c0       	rjmp	.+14     	; 0x1302 <Goto_Menu+0x168>
    12f4:	83 eb       	ldi	r24, 0xB3	; 179
    12f6:	93 e0       	ldi	r25, 0x03	; 3
    12f8:	04 c0       	rjmp	.+8      	; 0x1302 <Goto_Menu+0x168>
    12fa:	d0 92 7d 01 	sts	0x017D, r13	; 0x80017d <state.2501>
    12fe:	8e ea       	ldi	r24, 0xAE	; 174
    1300:	93 e0       	ldi	r25, 0x03	; 3
    1302:	ae d9       	rcall	.-3236   	; 0x660 <LED_Write_String_P>
    1304:	81 e5       	ldi	r24, 0x51	; 81
    1306:	3e c0       	rjmp	.+124    	; 0x1384 <Goto_Menu+0x1ea>
    1308:	87 30       	cpi	r24, 0x07	; 7
    130a:	09 f0       	breq	.+2      	; 0x130e <Goto_Menu+0x174>
    130c:	78 cf       	rjmp	.-272    	; 0x11fe <Goto_Menu+0x64>
    130e:	80 91 7e 01 	lds	r24, 0x017E	; 0x80017e <led_Curs.2500>
    1312:	86 34       	cpi	r24, 0x46	; 70
    1314:	58 f4       	brcc	.+22     	; 0x132c <Goto_Menu+0x192>
    1316:	e6 e6       	ldi	r30, 0x66	; 102
    1318:	fe e0       	ldi	r31, 0x0E	; 14
    131a:	31 97       	sbiw	r30, 0x01	; 1
    131c:	f1 f7       	brne	.-4      	; 0x131a <Goto_Menu+0x180>
    131e:	00 00       	nop
    1320:	80 91 7e 01 	lds	r24, 0x017E	; 0x80017e <led_Curs.2500>
    1324:	8f 5f       	subi	r24, 0xFF	; 255
    1326:	80 93 7e 01 	sts	0x017E, r24	; 0x80017e <led_Curs.2500>
    132a:	2b c0       	rjmp	.+86     	; 0x1382 <Goto_Menu+0x1e8>
    132c:	10 92 7e 01 	sts	0x017E, r1	; 0x80017e <led_Curs.2500>
    1330:	80 e4       	ldi	r24, 0x40	; 64
    1332:	2a d9       	rcall	.-3500   	; 0x588 <_LED_Set_Addres>
    1334:	80 91 7d 01 	lds	r24, 0x017D	; 0x80017d <state.2501>
    1338:	88 23       	and	r24, r24
    133a:	f1 f0       	breq	.+60     	; 0x1378 <Goto_Menu+0x1de>
    133c:	10 92 7d 01 	sts	0x017D, r1	; 0x80017d <state.2501>
    1340:	43 e5       	ldi	r20, 0x53	; 83
    1342:	84 2e       	mov	r8, r20
    1344:	42 e0       	ldi	r20, 0x02	; 2
    1346:	94 2e       	mov	r9, r20
    1348:	e0 91 4d 02 	lds	r30, 0x024D	; 0x80024d <_selected_Element>
    134c:	f0 91 4e 02 	lds	r31, 0x024E	; 0x80024e <_selected_Element+0x1>
    1350:	33 e0       	ldi	r19, 0x03	; 3
    1352:	ee 0f       	add	r30, r30
    1354:	ff 1f       	adc	r31, r31
    1356:	3a 95       	dec	r19
    1358:	e1 f7       	brne	.-8      	; 0x1352 <Goto_Menu+0x1b8>
    135a:	e9 56       	subi	r30, 0x69	; 105
    135c:	fc 4f       	sbci	r31, 0xFC	; 252
    135e:	86 81       	ldd	r24, Z+6	; 0x06
    1360:	90 e0       	ldi	r25, 0x00	; 0
    1362:	94 01       	movw	r18, r8
    1364:	22 55       	subi	r18, 0x52	; 82
    1366:	32 40       	sbci	r19, 0x02	; 2
    1368:	28 17       	cp	r18, r24
    136a:	39 07       	cpc	r19, r25
    136c:	54 f4       	brge	.+20     	; 0x1382 <Goto_Menu+0x1e8>
    136e:	f4 01       	movw	r30, r8
    1370:	81 91       	ld	r24, Z+
    1372:	4f 01       	movw	r8, r30
    1374:	4f d9       	rcall	.-3426   	; 0x614 <_LED_Write_Char>
    1376:	e8 cf       	rjmp	.-48     	; 0x1348 <Goto_Menu+0x1ae>
    1378:	d0 92 7d 01 	sts	0x017D, r13	; 0x80017d <state.2501>
    137c:	89 ea       	ldi	r24, 0xA9	; 169
    137e:	93 e0       	ldi	r25, 0x03	; 3
    1380:	6f d9       	rcall	.-3362   	; 0x660 <LED_Write_String_P>
    1382:	85 e4       	ldi	r24, 0x45	; 69
    1384:	01 d9       	rcall	.-3582   	; 0x588 <_LED_Set_Addres>
    1386:	3b cf       	rjmp	.-394    	; 0x11fe <Goto_Menu+0x64>
    1388:	84 ff       	sbrs	r24, 4
    138a:	39 cf       	rjmp	.-398    	; 0x11fe <Goto_Menu+0x64>
    138c:	e0 91 4d 02 	lds	r30, 0x024D	; 0x80024d <_selected_Element>
    1390:	f0 91 4e 02 	lds	r31, 0x024E	; 0x80024e <_selected_Element+0x1>
    1394:	23 e0       	ldi	r18, 0x03	; 3
    1396:	ee 0f       	add	r30, r30
    1398:	ff 1f       	adc	r31, r31
    139a:	2a 95       	dec	r18
    139c:	e1 f7       	brne	.-8      	; 0x1396 <Goto_Menu+0x1fc>
    139e:	e9 56       	subi	r30, 0x69	; 105
    13a0:	fc 4f       	sbci	r31, 0xFC	; 252
    13a2:	80 81       	ld	r24, Z
    13a4:	82 30       	cpi	r24, 0x02	; 2
    13a6:	09 f0       	breq	.+2      	; 0x13aa <Goto_Menu+0x210>
    13a8:	2a cf       	rjmp	.-428    	; 0x11fe <Goto_Menu+0x64>
    13aa:	f1 e0       	ldi	r31, 0x01	; 1
    13ac:	bf 12       	cpse	r11, r31
    13ae:	27 cf       	rjmp	.-434    	; 0x11fe <Goto_Menu+0x64>
    13b0:	80 e4       	ldi	r24, 0x40	; 64
    13b2:	ea d8       	rcall	.-3628   	; 0x588 <_LED_Set_Addres>
    13b4:	80 91 4f 02 	lds	r24, 0x024F	; 0x80024f <_temp_Switch>
    13b8:	88 23       	and	r24, r24
    13ba:	19 f0       	breq	.+6      	; 0x13c2 <Goto_Menu+0x228>
    13bc:	85 ea       	ldi	r24, 0xA5	; 165
    13be:	93 e0       	ldi	r25, 0x03	; 3
    13c0:	02 c0       	rjmp	.+4      	; 0x13c6 <Goto_Menu+0x22c>
    13c2:	80 ea       	ldi	r24, 0xA0	; 160
    13c4:	93 e0       	ldi	r25, 0x03	; 3
    13c6:	4c d9       	rcall	.-3432   	; 0x660 <LED_Write_String_P>
    13c8:	81 e5       	ldi	r24, 0x51	; 81
    13ca:	de d8       	rcall	.-3652   	; 0x588 <_LED_Set_Addres>
    13cc:	17 cf       	rjmp	.-466    	; 0x11fc <Goto_Menu+0x62>
    13ce:	80 91 50 02 	lds	r24, 0x0250	; 0x800250 <_my_Lib_Flags>
    13d2:	40 91 4d 02 	lds	r20, 0x024D	; 0x80024d <_selected_Element>
    13d6:	50 91 4e 02 	lds	r21, 0x024E	; 0x80024e <_selected_Element+0x1>
    13da:	28 2f       	mov	r18, r24
    13dc:	20 71       	andi	r18, 0x10	; 16
    13de:	84 ff       	sbrs	r24, 4
    13e0:	17 c0       	rjmp	.+46     	; 0x1410 <Goto_Menu+0x276>
    13e2:	fa 01       	movw	r30, r20
    13e4:	93 e0       	ldi	r25, 0x03	; 3
    13e6:	ee 0f       	add	r30, r30
    13e8:	ff 1f       	adc	r31, r31
    13ea:	9a 95       	dec	r25
    13ec:	e1 f7       	brne	.-8      	; 0x13e6 <Goto_Menu+0x24c>
    13ee:	e9 56       	subi	r30, 0x69	; 105
    13f0:	fc 4f       	sbci	r31, 0xFC	; 252
    13f2:	90 81       	ld	r25, Z
    13f4:	93 30       	cpi	r25, 0x03	; 3
    13f6:	11 f0       	breq	.+4      	; 0x13fc <Goto_Menu+0x262>
    13f8:	96 30       	cpi	r25, 0x06	; 6
    13fa:	51 f4       	brne	.+20     	; 0x1410 <Goto_Menu+0x276>
    13fc:	86 e0       	ldi	r24, 0x06	; 6
    13fe:	f8 01       	movw	r30, r16
    1400:	80 83       	st	Z, r24
    1402:	80 e0       	ldi	r24, 0x00	; 0
    1404:	43 d9       	rcall	.-3450   	; 0x68c <Led>
    1406:	80 91 4d 02 	lds	r24, 0x024D	; 0x80024d <_selected_Element>
    140a:	90 91 4e 02 	lds	r25, 0x024E	; 0x80024e <_selected_Element+0x1>
    140e:	08 c2       	rjmp	.+1040   	; 0x1820 <Goto_Menu+0x686>
    1410:	fa 01       	movw	r30, r20
    1412:	d3 e0       	ldi	r29, 0x03	; 3
    1414:	ee 0f       	add	r30, r30
    1416:	ff 1f       	adc	r31, r31
    1418:	da 95       	dec	r29
    141a:	e1 f7       	brne	.-8      	; 0x1414 <Goto_Menu+0x27a>
    141c:	e9 56       	subi	r30, 0x69	; 105
    141e:	fc 4f       	sbci	r31, 0xFC	; 252
    1420:	91 81       	ldd	r25, Z+1	; 0x01
    1422:	99 23       	and	r25, r25
    1424:	29 f0       	breq	.+10     	; 0x1430 <Goto_Menu+0x296>
    1426:	10 92 80 01 	sts	0x0180, r1	; 0x800180 <element_Count.2497>
    142a:	90 93 7f 01 	sts	0x017F, r25	; 0x80017f <submenu_Count.2498>
    142e:	46 c0       	rjmp	.+140    	; 0x14bc <Goto_Menu+0x322>
    1430:	22 23       	and	r18, r18
    1432:	21 f0       	breq	.+8      	; 0x143c <Goto_Menu+0x2a2>
    1434:	87 7f       	andi	r24, 0xF7	; 247
    1436:	80 93 50 02 	sts	0x0250, r24	; 0x800250 <_my_Lib_Flags>
    143a:	40 c0       	rjmp	.+128    	; 0x14bc <Goto_Menu+0x322>
    143c:	90 81       	ld	r25, Z
    143e:	2f ef       	ldi	r18, 0xFF	; 255
    1440:	29 0f       	add	r18, r25
    1442:	22 30       	cpi	r18, 0x02	; 2
    1444:	30 f0       	brcs	.+12     	; 0x1452 <Goto_Menu+0x2b8>
    1446:	95 30       	cpi	r25, 0x05	; 5
    1448:	21 f0       	breq	.+8      	; 0x1452 <Goto_Menu+0x2b8>
    144a:	29 ef       	ldi	r18, 0xF9	; 249
    144c:	29 0f       	add	r18, r25
    144e:	22 30       	cpi	r18, 0x02	; 2
    1450:	a8 f5       	brcc	.+106    	; 0x14bc <Goto_Menu+0x322>
    1452:	88 60       	ori	r24, 0x08	; 8
    1454:	80 93 50 02 	sts	0x0250, r24	; 0x800250 <_my_Lib_Flags>
    1458:	91 30       	cpi	r25, 0x01	; 1
    145a:	31 f4       	brne	.+12     	; 0x1468 <Goto_Menu+0x2ce>
    145c:	60 91 00 01 	lds	r22, 0x0100	; 0x800100 <__data_start>
    1460:	80 e0       	ldi	r24, 0x00	; 0
    1462:	63 dc       	rcall	.-1850   	; 0xd2a <_New_Param>
    1464:	80 93 00 01 	sts	0x0100, r24	; 0x800100 <__data_start>
    1468:	40 91 4d 02 	lds	r20, 0x024D	; 0x80024d <_selected_Element>
    146c:	50 91 4e 02 	lds	r21, 0x024E	; 0x80024e <_selected_Element+0x1>
    1470:	fa 01       	movw	r30, r20
    1472:	c3 e0       	ldi	r28, 0x03	; 3
    1474:	ee 0f       	add	r30, r30
    1476:	ff 1f       	adc	r31, r31
    1478:	ca 95       	dec	r28
    147a:	e1 f7       	brne	.-8      	; 0x1474 <Goto_Menu+0x2da>
    147c:	e9 56       	subi	r30, 0x69	; 105
    147e:	fc 4f       	sbci	r31, 0xFC	; 252
    1480:	80 81       	ld	r24, Z
    1482:	85 30       	cpi	r24, 0x05	; 5
    1484:	31 f4       	brne	.+12     	; 0x1492 <Goto_Menu+0x2f8>
    1486:	60 91 00 01 	lds	r22, 0x0100	; 0x800100 <__data_start>
    148a:	80 e0       	ldi	r24, 0x00	; 0
    148c:	4e dc       	rcall	.-1892   	; 0xd2a <_New_Param>
    148e:	80 93 00 01 	sts	0x0100, r24	; 0x800100 <__data_start>
    1492:	40 91 4d 02 	lds	r20, 0x024D	; 0x80024d <_selected_Element>
    1496:	50 91 4e 02 	lds	r21, 0x024E	; 0x80024e <_selected_Element+0x1>
    149a:	fa 01       	movw	r30, r20
    149c:	b3 e0       	ldi	r27, 0x03	; 3
    149e:	ee 0f       	add	r30, r30
    14a0:	ff 1f       	adc	r31, r31
    14a2:	ba 95       	dec	r27
    14a4:	e1 f7       	brne	.-8      	; 0x149e <Goto_Menu+0x304>
    14a6:	e9 56       	subi	r30, 0x69	; 105
    14a8:	fc 4f       	sbci	r31, 0xFC	; 252
    14aa:	80 81       	ld	r24, Z
    14ac:	88 30       	cpi	r24, 0x08	; 8
    14ae:	31 f4       	brne	.+12     	; 0x14bc <Goto_Menu+0x322>
    14b0:	60 91 00 01 	lds	r22, 0x0100	; 0x800100 <__data_start>
    14b4:	80 e0       	ldi	r24, 0x00	; 0
    14b6:	39 dc       	rcall	.-1934   	; 0xd2a <_New_Param>
    14b8:	80 93 00 01 	sts	0x0100, r24	; 0x800100 <__data_start>
    14bc:	80 91 50 02 	lds	r24, 0x0250	; 0x800250 <_my_Lib_Flags>
    14c0:	82 60       	ori	r24, 0x02	; 2
    14c2:	80 93 50 02 	sts	0x0250, r24	; 0x800250 <_my_Lib_Flags>
    14c6:	80 e0       	ldi	r24, 0x00	; 0
    14c8:	e1 d8       	rcall	.-3646   	; 0x68c <Led>
    14ca:	83 e0       	ldi	r24, 0x03	; 3
    14cc:	f9 d8       	rcall	.-3598   	; 0x6c0 <Key>
    14ce:	81 30       	cpi	r24, 0x01	; 1
    14d0:	09 f0       	breq	.+2      	; 0x14d4 <Goto_Menu+0x33a>
    14d2:	79 c0       	rjmp	.+242    	; 0x15c6 <Goto_Menu+0x42c>
    14d4:	83 e0       	ldi	r24, 0x03	; 3
    14d6:	f4 d8       	rcall	.-3608   	; 0x6c0 <Key>
    14d8:	81 30       	cpi	r24, 0x01	; 1
    14da:	49 f4       	brne	.+18     	; 0x14ee <Goto_Menu+0x354>
    14dc:	84 e1       	ldi	r24, 0x14	; 20
    14de:	90 e0       	ldi	r25, 0x00	; 0
    14e0:	e3 e3       	ldi	r30, 0x33	; 51
    14e2:	f7 e0       	ldi	r31, 0x07	; 7
    14e4:	31 97       	sbiw	r30, 0x01	; 1
    14e6:	f1 f7       	brne	.-4      	; 0x14e4 <Goto_Menu+0x34a>
    14e8:	01 97       	sbiw	r24, 0x01	; 1
    14ea:	d1 f7       	brne	.-12     	; 0x14e0 <Goto_Menu+0x346>
    14ec:	f3 cf       	rjmp	.-26     	; 0x14d4 <Goto_Menu+0x33a>
    14ee:	40 91 7f 01 	lds	r20, 0x017F	; 0x80017f <submenu_Count.2498>
    14f2:	90 91 50 02 	lds	r25, 0x0250	; 0x800250 <_my_Lib_Flags>
    14f6:	44 23       	and	r20, r20
    14f8:	79 f1       	breq	.+94     	; 0x1558 <Goto_Menu+0x3be>
    14fa:	93 fd       	sbrc	r25, 3
    14fc:	59 c0       	rjmp	.+178    	; 0x15b0 <Goto_Menu+0x416>
    14fe:	50 e0       	ldi	r21, 0x00	; 0
    1500:	fa 01       	movw	r30, r20
    1502:	ee 0f       	add	r30, r30
    1504:	ff 1f       	adc	r31, r31
    1506:	e7 5c       	subi	r30, 0xC7	; 199
    1508:	fc 4f       	sbci	r31, 0xFC	; 252
    150a:	61 81       	ldd	r22, Z+1	; 0x01
    150c:	70 e0       	ldi	r23, 0x00	; 0
    150e:	70 93 4e 02 	sts	0x024E, r23	; 0x80024e <_selected_Element+0x1>
    1512:	60 93 4d 02 	sts	0x024D, r22	; 0x80024d <_selected_Element>
    1516:	fb 01       	movw	r30, r22
    1518:	a3 e0       	ldi	r26, 0x03	; 3
    151a:	ee 0f       	add	r30, r30
    151c:	ff 1f       	adc	r31, r31
    151e:	aa 95       	dec	r26
    1520:	e1 f7       	brne	.-8      	; 0x151a <Goto_Menu+0x380>
    1522:	e9 56       	subi	r30, 0x69	; 105
    1524:	fc 4f       	sbci	r31, 0xFC	; 252
    1526:	87 81       	ldd	r24, Z+7	; 0x07
    1528:	80 93 80 01 	sts	0x0180, r24	; 0x800180 <element_Count.2497>
    152c:	a9 e3       	ldi	r26, 0x39	; 57
    152e:	b3 e0       	ldi	r27, 0x03	; 3
    1530:	20 e0       	ldi	r18, 0x00	; 0
    1532:	30 e0       	ldi	r19, 0x00	; 0
    1534:	e0 e0       	ldi	r30, 0x00	; 0
    1536:	f0 e0       	ldi	r31, 0x00	; 0
    1538:	24 17       	cp	r18, r20
    153a:	35 07       	cpc	r19, r21
    153c:	c8 f5       	brcc	.+114    	; 0x15b0 <Goto_Menu+0x416>
    153e:	8c 91       	ld	r24, X
    1540:	e8 0f       	add	r30, r24
    1542:	f1 1d       	adc	r31, r1
    1544:	12 96       	adiw	r26, 0x02	; 2
    1546:	6e 17       	cp	r22, r30
    1548:	7f 07       	cpc	r23, r31
    154a:	18 f4       	brcc	.+6      	; 0x1552 <Goto_Menu+0x3b8>
    154c:	20 93 7f 01 	sts	0x017F, r18	; 0x80017f <submenu_Count.2498>
    1550:	2f c0       	rjmp	.+94     	; 0x15b0 <Goto_Menu+0x416>
    1552:	2f 5f       	subi	r18, 0xFF	; 255
    1554:	3f 4f       	sbci	r19, 0xFF	; 255
    1556:	f0 cf       	rjmp	.-32     	; 0x1538 <Goto_Menu+0x39e>
    1558:	93 ff       	sbrs	r25, 3
    155a:	22 c0       	rjmp	.+68     	; 0x15a0 <Goto_Menu+0x406>
    155c:	e0 91 4d 02 	lds	r30, 0x024D	; 0x80024d <_selected_Element>
    1560:	f0 91 4e 02 	lds	r31, 0x024E	; 0x80024e <_selected_Element+0x1>
    1564:	63 e0       	ldi	r22, 0x03	; 3
    1566:	ee 0f       	add	r30, r30
    1568:	ff 1f       	adc	r31, r31
    156a:	6a 95       	dec	r22
    156c:	e1 f7       	brne	.-8      	; 0x1566 <Goto_Menu+0x3cc>
    156e:	e9 56       	subi	r30, 0x69	; 105
    1570:	fc 4f       	sbci	r31, 0xFC	; 252
    1572:	80 81       	ld	r24, Z
    1574:	81 30       	cpi	r24, 0x01	; 1
    1576:	49 f0       	breq	.+18     	; 0x158a <Goto_Menu+0x3f0>
    1578:	82 30       	cpi	r24, 0x02	; 2
    157a:	d1 f4       	brne	.+52     	; 0x15b0 <Goto_Menu+0x416>
    157c:	04 80       	ldd	r0, Z+4	; 0x04
    157e:	f5 81       	ldd	r31, Z+5	; 0x05
    1580:	e0 2d       	mov	r30, r0
    1582:	80 81       	ld	r24, Z
    1584:	80 93 4f 02 	sts	0x024F, r24	; 0x80024f <_temp_Switch>
    1588:	13 c0       	rjmp	.+38     	; 0x15b0 <Goto_Menu+0x416>
    158a:	a4 81       	ldd	r26, Z+4	; 0x04
    158c:	b5 81       	ldd	r27, Z+5	; 0x05
    158e:	e2 e5       	ldi	r30, 0x52	; 82
    1590:	f2 e0       	ldi	r31, 0x02	; 2
    1592:	82 e0       	ldi	r24, 0x02	; 2
    1594:	ea 35       	cpi	r30, 0x5A	; 90
    1596:	f8 07       	cpc	r31, r24
    1598:	59 f0       	breq	.+22     	; 0x15b0 <Goto_Menu+0x416>
    159a:	8d 91       	ld	r24, X+
    159c:	81 93       	st	Z+, r24
    159e:	f9 cf       	rjmp	.-14     	; 0x1592 <Goto_Menu+0x3f8>
    15a0:	9b 7f       	andi	r25, 0xFB	; 251
    15a2:	90 64       	ori	r25, 0x40	; 64
    15a4:	90 93 50 02 	sts	0x0250, r25	; 0x800250 <_my_Lib_Flags>
    15a8:	02 d8       	rcall	.-4092   	; 0x5ae <LED_Clear>
    15aa:	8f ef       	ldi	r24, 0xFF	; 255
    15ac:	9f ef       	ldi	r25, 0xFF	; 255
    15ae:	38 c1       	rjmp	.+624    	; 0x1820 <Goto_Menu+0x686>
    15b0:	c0 92 00 01 	sts	0x0100, r12	; 0x800100 <__data_start>
    15b4:	80 91 49 02 	lds	r24, 0x0249	; 0x800249 <_line>
    15b8:	81 50       	subi	r24, 0x01	; 1
    15ba:	80 93 4a 02 	sts	0x024A, r24	; 0x80024a <_line2>
    15be:	97 7f       	andi	r25, 0xF7	; 247
    15c0:	92 60       	ori	r25, 0x02	; 2
    15c2:	90 93 50 02 	sts	0x0250, r25	; 0x800250 <_my_Lib_Flags>
    15c6:	82 e0       	ldi	r24, 0x02	; 2
    15c8:	7b d8       	rcall	.-3850   	; 0x6c0 <Key>
    15ca:	81 30       	cpi	r24, 0x01	; 1
    15cc:	09 f0       	breq	.+2      	; 0x15d0 <Goto_Menu+0x436>
    15ce:	4c c0       	rjmp	.+152    	; 0x1668 <Goto_Menu+0x4ce>
    15d0:	82 e0       	ldi	r24, 0x02	; 2
    15d2:	76 d8       	rcall	.-3860   	; 0x6c0 <Key>
    15d4:	81 30       	cpi	r24, 0x01	; 1
    15d6:	49 f4       	brne	.+18     	; 0x15ea <Goto_Menu+0x450>
    15d8:	84 e1       	ldi	r24, 0x14	; 20
    15da:	90 e0       	ldi	r25, 0x00	; 0
    15dc:	e3 e3       	ldi	r30, 0x33	; 51
    15de:	f7 e0       	ldi	r31, 0x07	; 7
    15e0:	31 97       	sbiw	r30, 0x01	; 1
    15e2:	f1 f7       	brne	.-4      	; 0x15e0 <Goto_Menu+0x446>
    15e4:	01 97       	sbiw	r24, 0x01	; 1
    15e6:	d1 f7       	brne	.-12     	; 0x15dc <Goto_Menu+0x442>
    15e8:	f3 cf       	rjmp	.-26     	; 0x15d0 <Goto_Menu+0x436>
    15ea:	80 91 50 02 	lds	r24, 0x0250	; 0x800250 <_my_Lib_Flags>
    15ee:	83 ff       	sbrs	r24, 3
    15f0:	07 c0       	rjmp	.+14     	; 0x1600 <Goto_Menu+0x466>
    15f2:	40 91 4d 02 	lds	r20, 0x024D	; 0x80024d <_selected_Element>
    15f6:	60 91 00 01 	lds	r22, 0x0100	; 0x800100 <__data_start>
    15fa:	81 e0       	ldi	r24, 0x01	; 1
    15fc:	96 db       	rcall	.-2260   	; 0xd2a <_New_Param>
    15fe:	2f c0       	rjmp	.+94     	; 0x165e <Goto_Menu+0x4c4>
    1600:	e0 91 4d 02 	lds	r30, 0x024D	; 0x80024d <_selected_Element>
    1604:	f0 91 4e 02 	lds	r31, 0x024E	; 0x80024e <_selected_Element+0x1>
    1608:	53 e0       	ldi	r21, 0x03	; 3
    160a:	ee 0f       	add	r30, r30
    160c:	ff 1f       	adc	r31, r31
    160e:	5a 95       	dec	r21
    1610:	e1 f7       	brne	.-8      	; 0x160a <Goto_Menu+0x470>
    1612:	e9 56       	subi	r30, 0x69	; 105
    1614:	fc 4f       	sbci	r31, 0xFC	; 252
    1616:	80 81       	ld	r24, Z
    1618:	84 30       	cpi	r24, 0x04	; 4
    161a:	69 f4       	brne	.+26     	; 0x1636 <Goto_Menu+0x49c>
    161c:	80 91 4a 02 	lds	r24, 0x024A	; 0x80024a <_line2>
    1620:	81 50       	subi	r24, 0x01	; 1
    1622:	80 93 4a 02 	sts	0x024A, r24	; 0x80024a <_line2>
    1626:	8f 3f       	cpi	r24, 0xFF	; 255
    1628:	d1 f4       	brne	.+52     	; 0x165e <Goto_Menu+0x4c4>
    162a:	80 91 49 02 	lds	r24, 0x0249	; 0x800249 <_line>
    162e:	81 50       	subi	r24, 0x01	; 1
    1630:	80 93 4a 02 	sts	0x024A, r24	; 0x80024a <_line2>
    1634:	14 c0       	rjmp	.+40     	; 0x165e <Goto_Menu+0x4c4>
    1636:	80 91 80 01 	lds	r24, 0x0180	; 0x800180 <element_Count.2497>
    163a:	8f 5f       	subi	r24, 0xFF	; 255
    163c:	80 93 80 01 	sts	0x0180, r24	; 0x800180 <element_Count.2497>
    1640:	e0 91 7f 01 	lds	r30, 0x017F	; 0x80017f <submenu_Count.2498>
    1644:	f0 e0       	ldi	r31, 0x00	; 0
    1646:	ee 0f       	add	r30, r30
    1648:	ff 1f       	adc	r31, r31
    164a:	e7 5c       	subi	r30, 0xC7	; 199
    164c:	fc 4f       	sbci	r31, 0xFC	; 252
    164e:	20 81       	ld	r18, Z
    1650:	30 e0       	ldi	r19, 0x00	; 0
    1652:	90 e0       	ldi	r25, 0x00	; 0
    1654:	82 17       	cp	r24, r18
    1656:	93 07       	cpc	r25, r19
    1658:	14 f0       	brlt	.+4      	; 0x165e <Goto_Menu+0x4c4>
    165a:	10 92 80 01 	sts	0x0180, r1	; 0x800180 <element_Count.2497>
    165e:	80 91 50 02 	lds	r24, 0x0250	; 0x800250 <_my_Lib_Flags>
    1662:	82 60       	ori	r24, 0x02	; 2
    1664:	80 93 50 02 	sts	0x0250, r24	; 0x800250 <_my_Lib_Flags>
    1668:	81 e0       	ldi	r24, 0x01	; 1
    166a:	2a d8       	rcall	.-4012   	; 0x6c0 <Key>
    166c:	81 30       	cpi	r24, 0x01	; 1
    166e:	09 f0       	breq	.+2      	; 0x1672 <Goto_Menu+0x4d8>
    1670:	49 c0       	rjmp	.+146    	; 0x1704 <Goto_Menu+0x56a>
    1672:	81 e0       	ldi	r24, 0x01	; 1
    1674:	25 d8       	rcall	.-4022   	; 0x6c0 <Key>
    1676:	81 30       	cpi	r24, 0x01	; 1
    1678:	49 f4       	brne	.+18     	; 0x168c <Goto_Menu+0x4f2>
    167a:	84 e1       	ldi	r24, 0x14	; 20
    167c:	90 e0       	ldi	r25, 0x00	; 0
    167e:	e3 e3       	ldi	r30, 0x33	; 51
    1680:	f7 e0       	ldi	r31, 0x07	; 7
    1682:	31 97       	sbiw	r30, 0x01	; 1
    1684:	f1 f7       	brne	.-4      	; 0x1682 <Goto_Menu+0x4e8>
    1686:	01 97       	sbiw	r24, 0x01	; 1
    1688:	d1 f7       	brne	.-12     	; 0x167e <Goto_Menu+0x4e4>
    168a:	f3 cf       	rjmp	.-26     	; 0x1672 <Goto_Menu+0x4d8>
    168c:	80 91 50 02 	lds	r24, 0x0250	; 0x800250 <_my_Lib_Flags>
    1690:	83 ff       	sbrs	r24, 3
    1692:	07 c0       	rjmp	.+14     	; 0x16a2 <Goto_Menu+0x508>
    1694:	40 91 4d 02 	lds	r20, 0x024D	; 0x80024d <_selected_Element>
    1698:	60 91 00 01 	lds	r22, 0x0100	; 0x800100 <__data_start>
    169c:	82 e0       	ldi	r24, 0x02	; 2
    169e:	45 db       	rcall	.-2422   	; 0xd2a <_New_Param>
    16a0:	2c c0       	rjmp	.+88     	; 0x16fa <Goto_Menu+0x560>
    16a2:	e0 91 4d 02 	lds	r30, 0x024D	; 0x80024d <_selected_Element>
    16a6:	f0 91 4e 02 	lds	r31, 0x024E	; 0x80024e <_selected_Element+0x1>
    16aa:	33 e0       	ldi	r19, 0x03	; 3
    16ac:	ee 0f       	add	r30, r30
    16ae:	ff 1f       	adc	r31, r31
    16b0:	3a 95       	dec	r19
    16b2:	e1 f7       	brne	.-8      	; 0x16ac <Goto_Menu+0x512>
    16b4:	e9 56       	subi	r30, 0x69	; 105
    16b6:	fc 4f       	sbci	r31, 0xFC	; 252
    16b8:	80 81       	ld	r24, Z
    16ba:	84 30       	cpi	r24, 0x04	; 4
    16bc:	79 f4       	brne	.+30     	; 0x16dc <Goto_Menu+0x542>
    16be:	80 91 4a 02 	lds	r24, 0x024A	; 0x80024a <_line2>
    16c2:	8f 5f       	subi	r24, 0xFF	; 255
    16c4:	80 93 4a 02 	sts	0x024A, r24	; 0x80024a <_line2>
    16c8:	20 91 49 02 	lds	r18, 0x0249	; 0x800249 <_line>
    16cc:	30 e0       	ldi	r19, 0x00	; 0
    16ce:	90 e0       	ldi	r25, 0x00	; 0
    16d0:	82 17       	cp	r24, r18
    16d2:	93 07       	cpc	r25, r19
    16d4:	94 f0       	brlt	.+36     	; 0x16fa <Goto_Menu+0x560>
    16d6:	10 92 4a 02 	sts	0x024A, r1	; 0x80024a <_line2>
    16da:	0f c0       	rjmp	.+30     	; 0x16fa <Goto_Menu+0x560>
    16dc:	80 91 80 01 	lds	r24, 0x0180	; 0x800180 <element_Count.2497>
    16e0:	81 11       	cpse	r24, r1
    16e2:	08 c0       	rjmp	.+16     	; 0x16f4 <Goto_Menu+0x55a>
    16e4:	e0 91 7f 01 	lds	r30, 0x017F	; 0x80017f <submenu_Count.2498>
    16e8:	f0 e0       	ldi	r31, 0x00	; 0
    16ea:	ee 0f       	add	r30, r30
    16ec:	ff 1f       	adc	r31, r31
    16ee:	e7 5c       	subi	r30, 0xC7	; 199
    16f0:	fc 4f       	sbci	r31, 0xFC	; 252
    16f2:	80 81       	ld	r24, Z
    16f4:	81 50       	subi	r24, 0x01	; 1
    16f6:	80 93 80 01 	sts	0x0180, r24	; 0x800180 <element_Count.2497>
    16fa:	80 91 50 02 	lds	r24, 0x0250	; 0x800250 <_my_Lib_Flags>
    16fe:	82 60       	ori	r24, 0x02	; 2
    1700:	80 93 50 02 	sts	0x0250, r24	; 0x800250 <_my_Lib_Flags>
    1704:	80 91 50 02 	lds	r24, 0x0250	; 0x800250 <_my_Lib_Flags>
    1708:	83 ff       	sbrs	r24, 3
    170a:	6c c0       	rjmp	.+216    	; 0x17e4 <Goto_Menu+0x64a>
    170c:	e0 91 4d 02 	lds	r30, 0x024D	; 0x80024d <_selected_Element>
    1710:	f0 91 4e 02 	lds	r31, 0x024E	; 0x80024e <_selected_Element+0x1>
    1714:	93 e0       	ldi	r25, 0x03	; 3
    1716:	ee 0f       	add	r30, r30
    1718:	ff 1f       	adc	r31, r31
    171a:	9a 95       	dec	r25
    171c:	e1 f7       	brne	.-8      	; 0x1716 <Goto_Menu+0x57c>
    171e:	e9 56       	subi	r30, 0x69	; 105
    1720:	fc 4f       	sbci	r31, 0xFC	; 252
    1722:	80 81       	ld	r24, Z
    1724:	82 30       	cpi	r24, 0x02	; 2
    1726:	79 f5       	brne	.+94     	; 0x1786 <Goto_Menu+0x5ec>
    1728:	80 91 7e 01 	lds	r24, 0x017E	; 0x80017e <led_Curs.2500>
    172c:	84 36       	cpi	r24, 0x64	; 100
    172e:	60 f4       	brcc	.+24     	; 0x1748 <Goto_Menu+0x5ae>
    1730:	8c ec       	ldi	r24, 0xCC	; 204
    1732:	9c e1       	ldi	r25, 0x1C	; 28
    1734:	01 97       	sbiw	r24, 0x01	; 1
    1736:	f1 f7       	brne	.-4      	; 0x1734 <Goto_Menu+0x59a>
    1738:	00 c0       	rjmp	.+0      	; 0x173a <Goto_Menu+0x5a0>
    173a:	00 00       	nop
    173c:	80 91 7e 01 	lds	r24, 0x017E	; 0x80017e <led_Curs.2500>
    1740:	8f 5f       	subi	r24, 0xFF	; 255
    1742:	80 93 7e 01 	sts	0x017E, r24	; 0x80017e <led_Curs.2500>
    1746:	1b c0       	rjmp	.+54     	; 0x177e <Goto_Menu+0x5e4>
    1748:	10 92 7e 01 	sts	0x017E, r1	; 0x80017e <led_Curs.2500>
    174c:	80 e4       	ldi	r24, 0x40	; 64
    174e:	0e 94 c4 02 	call	0x588	; 0x588 <_LED_Set_Addres>
    1752:	80 91 7d 01 	lds	r24, 0x017D	; 0x80017d <state.2501>
    1756:	88 23       	and	r24, r24
    1758:	61 f0       	breq	.+24     	; 0x1772 <Goto_Menu+0x5d8>
    175a:	10 92 7d 01 	sts	0x017D, r1	; 0x80017d <state.2501>
    175e:	80 91 4f 02 	lds	r24, 0x024F	; 0x80024f <_temp_Switch>
    1762:	88 23       	and	r24, r24
    1764:	19 f0       	breq	.+6      	; 0x176c <Goto_Menu+0x5d2>
    1766:	8c e9       	ldi	r24, 0x9C	; 156
    1768:	93 e0       	ldi	r25, 0x03	; 3
    176a:	07 c0       	rjmp	.+14     	; 0x177a <Goto_Menu+0x5e0>
    176c:	87 e9       	ldi	r24, 0x97	; 151
    176e:	93 e0       	ldi	r25, 0x03	; 3
    1770:	04 c0       	rjmp	.+8      	; 0x177a <Goto_Menu+0x5e0>
    1772:	d0 92 7d 01 	sts	0x017D, r13	; 0x80017d <state.2501>
    1776:	82 e9       	ldi	r24, 0x92	; 146
    1778:	93 e0       	ldi	r25, 0x03	; 3
    177a:	0e 94 30 03 	call	0x660	; 0x660 <LED_Write_String_P>
    177e:	85 e4       	ldi	r24, 0x45	; 69
    1780:	0e 94 c4 02 	call	0x588	; 0x588 <_LED_Set_Addres>
    1784:	2f c0       	rjmp	.+94     	; 0x17e4 <Goto_Menu+0x64a>
    1786:	87 30       	cpi	r24, 0x07	; 7
    1788:	69 f5       	brne	.+90     	; 0x17e4 <Goto_Menu+0x64a>
    178a:	80 91 7e 01 	lds	r24, 0x017E	; 0x80017e <led_Curs.2500>
    178e:	84 36       	cpi	r24, 0x64	; 100
    1790:	78 f2       	brcs	.-98     	; 0x1730 <Goto_Menu+0x596>
    1792:	10 92 7e 01 	sts	0x017E, r1	; 0x80017e <led_Curs.2500>
    1796:	80 e4       	ldi	r24, 0x40	; 64
    1798:	0e 94 c4 02 	call	0x588	; 0x588 <_LED_Set_Addres>
    179c:	80 91 7d 01 	lds	r24, 0x017D	; 0x80017d <state.2501>
    17a0:	88 23       	and	r24, r24
    17a2:	d9 f0       	breq	.+54     	; 0x17da <Goto_Menu+0x640>
    17a4:	10 92 7d 01 	sts	0x017D, r1	; 0x80017d <state.2501>
    17a8:	c3 e5       	ldi	r28, 0x53	; 83
    17aa:	d2 e0       	ldi	r29, 0x02	; 2
    17ac:	e0 91 4d 02 	lds	r30, 0x024D	; 0x80024d <_selected_Element>
    17b0:	f0 91 4e 02 	lds	r31, 0x024E	; 0x80024e <_selected_Element+0x1>
    17b4:	83 e0       	ldi	r24, 0x03	; 3
    17b6:	ee 0f       	add	r30, r30
    17b8:	ff 1f       	adc	r31, r31
    17ba:	8a 95       	dec	r24
    17bc:	e1 f7       	brne	.-8      	; 0x17b6 <Goto_Menu+0x61c>
    17be:	e9 56       	subi	r30, 0x69	; 105
    17c0:	fc 4f       	sbci	r31, 0xFC	; 252
    17c2:	86 81       	ldd	r24, Z+6	; 0x06
    17c4:	90 e0       	ldi	r25, 0x00	; 0
    17c6:	9e 01       	movw	r18, r28
    17c8:	22 55       	subi	r18, 0x52	; 82
    17ca:	32 40       	sbci	r19, 0x02	; 2
    17cc:	28 17       	cp	r18, r24
    17ce:	39 07       	cpc	r19, r25
    17d0:	b4 f6       	brge	.-84     	; 0x177e <Goto_Menu+0x5e4>
    17d2:	89 91       	ld	r24, Y+
    17d4:	0e 94 0a 03 	call	0x614	; 0x614 <_LED_Write_Char>
    17d8:	e9 cf       	rjmp	.-46     	; 0x17ac <Goto_Menu+0x612>
    17da:	d0 92 7d 01 	sts	0x017D, r13	; 0x80017d <state.2501>
    17de:	8d e8       	ldi	r24, 0x8D	; 141
    17e0:	93 e0       	ldi	r25, 0x03	; 3
    17e2:	cb cf       	rjmp	.-106    	; 0x177a <Goto_Menu+0x5e0>
    17e4:	80 91 50 02 	lds	r24, 0x0250	; 0x800250 <_my_Lib_Flags>
    17e8:	81 ff       	sbrs	r24, 1
    17ea:	10 c0       	rjmp	.+32     	; 0x180c <Goto_Menu+0x672>
    17ec:	0e 94 d7 02 	call	0x5ae	; 0x5ae <LED_Clear>
    17f0:	80 91 50 02 	lds	r24, 0x0250	; 0x800250 <_my_Lib_Flags>
    17f4:	8d 7f       	andi	r24, 0xFD	; 253
    17f6:	80 93 50 02 	sts	0x0250, r24	; 0x800250 <_my_Lib_Flags>
    17fa:	60 91 7f 01 	lds	r22, 0x017F	; 0x80017f <submenu_Count.2498>
    17fe:	80 91 80 01 	lds	r24, 0x0180	; 0x800180 <element_Count.2497>
    1802:	0e 94 00 04 	call	0x800	; 0x800 <_Selected_Element_Calculate>
    1806:	80 91 00 01 	lds	r24, 0x0100	; 0x800100 <__data_start>
    180a:	6f d8       	rcall	.-3874   	; 0x8ea <_Display_Out>
    180c:	b8 01       	movw	r22, r16
    180e:	c7 01       	movw	r24, r14
    1810:	01 dc       	rcall	.-2046   	; 0x1014 <_Menu_Data_Change>
    1812:	28 2f       	mov	r18, r24
    1814:	30 e0       	ldi	r19, 0x00	; 0
    1816:	21 15       	cp	r18, r1
    1818:	31 05       	cpc	r19, r1
    181a:	09 f4       	brne	.+2      	; 0x181e <Goto_Menu+0x684>
    181c:	d4 cc       	rjmp	.-1624   	; 0x11c6 <Goto_Menu+0x2c>
    181e:	c9 01       	movw	r24, r18
    1820:	df 91       	pop	r29
    1822:	cf 91       	pop	r28
    1824:	1f 91       	pop	r17
    1826:	0f 91       	pop	r16
    1828:	ff 90       	pop	r15
    182a:	ef 90       	pop	r14
    182c:	df 90       	pop	r13
    182e:	cf 90       	pop	r12
    1830:	bf 90       	pop	r11
    1832:	9f 90       	pop	r9
    1834:	8f 90       	pop	r8
    1836:	08 95       	ret

00001838 <__vector_18>:
    1838:	1f 92       	push	r1
    183a:	0f 92       	push	r0
    183c:	0f b6       	in	r0, 0x3f	; 63
    183e:	0f 92       	push	r0
    1840:	11 24       	eor	r1, r1
    1842:	0b b6       	in	r0, 0x3b	; 59
    1844:	0f 92       	push	r0
    1846:	2f 93       	push	r18
    1848:	3f 93       	push	r19
    184a:	8f 93       	push	r24
    184c:	9f 93       	push	r25
    184e:	ef 93       	push	r30
    1850:	ff 93       	push	r31
    1852:	8c b1       	in	r24, 0x0c	; 12
    1854:	e0 91 02 02 	lds	r30, 0x0202	; 0x800202 <_UART_RX_point>
    1858:	f0 91 03 02 	lds	r31, 0x0203	; 0x800203 <_UART_RX_point+0x1>
    185c:	ea 5f       	subi	r30, 0xFA	; 250
    185e:	fd 4f       	sbci	r31, 0xFD	; 253
    1860:	80 83       	st	Z, r24
    1862:	81 34       	cpi	r24, 0x41	; 65
    1864:	50 f4       	brcc	.+20     	; 0x187a <__vector_18+0x42>
    1866:	8e 33       	cpi	r24, 0x3E	; 62
    1868:	60 f4       	brcc	.+24     	; 0x1882 <__vector_18+0x4a>
    186a:	81 32       	cpi	r24, 0x21	; 33
    186c:	51 f0       	breq	.+20     	; 0x1882 <__vector_18+0x4a>
    186e:	78 f0       	brcs	.+30     	; 0x188e <__vector_18+0x56>
    1870:	9d ed       	ldi	r25, 0xDD	; 221
    1872:	98 0f       	add	r25, r24
    1874:	93 30       	cpi	r25, 0x03	; 3
    1876:	58 f4       	brcc	.+22     	; 0x188e <__vector_18+0x56>
    1878:	04 c0       	rjmp	.+8      	; 0x1882 <__vector_18+0x4a>
    187a:	8e 35       	cpi	r24, 0x5E	; 94
    187c:	11 f0       	breq	.+4      	; 0x1882 <__vector_18+0x4a>
    187e:	8e 37       	cpi	r24, 0x7E	; 126
    1880:	31 f4       	brne	.+12     	; 0x188e <__vector_18+0x56>
    1882:	10 92 03 02 	sts	0x0203, r1	; 0x800203 <_UART_RX_point+0x1>
    1886:	10 92 02 02 	sts	0x0202, r1	; 0x800202 <_UART_RX_point>
    188a:	80 93 06 02 	sts	0x0206, r24	; 0x800206 <_UART_RX_Buf>
    188e:	20 91 02 02 	lds	r18, 0x0202	; 0x800202 <_UART_RX_point>
    1892:	30 91 03 02 	lds	r19, 0x0203	; 0x800203 <_UART_RX_point+0x1>
    1896:	8d 30       	cpi	r24, 0x0D	; 13
    1898:	61 f4       	brne	.+24     	; 0x18b2 <__vector_18+0x7a>
    189a:	81 e0       	ldi	r24, 0x01	; 1
    189c:	82 0f       	add	r24, r18
    189e:	80 93 00 02 	sts	0x0200, r24	; 0x800200 <_UART_RX_length>
    18a2:	10 92 03 02 	sts	0x0203, r1	; 0x800203 <_UART_RX_point+0x1>
    18a6:	10 92 02 02 	sts	0x0202, r1	; 0x800202 <_UART_RX_point>
    18aa:	81 e0       	ldi	r24, 0x01	; 1
    18ac:	80 93 fe 01 	sts	0x01FE, r24	; 0x8001fe <_UART_RX_end>
    18b0:	0e c0       	rjmp	.+28     	; 0x18ce <__vector_18+0x96>
    18b2:	c9 01       	movw	r24, r18
    18b4:	01 96       	adiw	r24, 0x01	; 1
    18b6:	80 32       	cpi	r24, 0x20	; 32
    18b8:	91 05       	cpc	r25, r1
    18ba:	2c f4       	brge	.+10     	; 0x18c6 <__vector_18+0x8e>
    18bc:	90 93 03 02 	sts	0x0203, r25	; 0x800203 <_UART_RX_point+0x1>
    18c0:	80 93 02 02 	sts	0x0202, r24	; 0x800202 <_UART_RX_point>
    18c4:	04 c0       	rjmp	.+8      	; 0x18ce <__vector_18+0x96>
    18c6:	10 92 03 02 	sts	0x0203, r1	; 0x800203 <_UART_RX_point+0x1>
    18ca:	10 92 02 02 	sts	0x0202, r1	; 0x800202 <_UART_RX_point>
    18ce:	ff 91       	pop	r31
    18d0:	ef 91       	pop	r30
    18d2:	9f 91       	pop	r25
    18d4:	8f 91       	pop	r24
    18d6:	3f 91       	pop	r19
    18d8:	2f 91       	pop	r18
    18da:	0f 90       	pop	r0
    18dc:	0b be       	out	0x3b, r0	; 59
    18de:	0f 90       	pop	r0
    18e0:	0f be       	out	0x3f, r0	; 63
    18e2:	0f 90       	pop	r0
    18e4:	1f 90       	pop	r1
    18e6:	18 95       	reti

000018e8 <__vector_20>:
    18e8:	1f 92       	push	r1
    18ea:	0f 92       	push	r0
    18ec:	0f b6       	in	r0, 0x3f	; 63
    18ee:	0f 92       	push	r0
    18f0:	11 24       	eor	r1, r1
    18f2:	0b b6       	in	r0, 0x3b	; 59
    18f4:	0f 92       	push	r0
    18f6:	2f 93       	push	r18
    18f8:	3f 93       	push	r19
    18fa:	8f 93       	push	r24
    18fc:	9f 93       	push	r25
    18fe:	ef 93       	push	r30
    1900:	ff 93       	push	r31
    1902:	80 91 ba 01 	lds	r24, 0x01BA	; 0x8001ba <_UART_TX_point>
    1906:	90 91 bb 01 	lds	r25, 0x01BB	; 0x8001bb <_UART_TX_point+0x1>
    190a:	20 91 b8 01 	lds	r18, 0x01B8	; 0x8001b8 <_UART_TX_length>
    190e:	30 e0       	ldi	r19, 0x00	; 0
    1910:	82 17       	cp	r24, r18
    1912:	93 07       	cpc	r25, r19
    1914:	69 f4       	brne	.+26     	; 0x1930 <__vector_20+0x48>
    1916:	10 92 bb 01 	sts	0x01BB, r1	; 0x8001bb <_UART_TX_point+0x1>
    191a:	10 92 ba 01 	sts	0x01BA, r1	; 0x8001ba <_UART_TX_point>
    191e:	80 91 65 00 	lds	r24, 0x0065	; 0x800065 <__TEXT_REGION_LENGTH__+0x7e0065>
    1922:	8e 7f       	andi	r24, 0xFE	; 254
    1924:	80 93 65 00 	sts	0x0065, r24	; 0x800065 <__TEXT_REGION_LENGTH__+0x7e0065>
    1928:	81 e0       	ldi	r24, 0x01	; 1
    192a:	80 93 b6 01 	sts	0x01B6, r24	; 0x8001b6 <_UART_TX_end>
    192e:	0e c0       	rjmp	.+28     	; 0x194c <__vector_20+0x64>
    1930:	fc 01       	movw	r30, r24
    1932:	e2 54       	subi	r30, 0x42	; 66
    1934:	fe 4f       	sbci	r31, 0xFE	; 254
    1936:	80 81       	ld	r24, Z
    1938:	8c b9       	out	0x0c, r24	; 12
    193a:	80 91 ba 01 	lds	r24, 0x01BA	; 0x8001ba <_UART_TX_point>
    193e:	90 91 bb 01 	lds	r25, 0x01BB	; 0x8001bb <_UART_TX_point+0x1>
    1942:	01 96       	adiw	r24, 0x01	; 1
    1944:	90 93 bb 01 	sts	0x01BB, r25	; 0x8001bb <_UART_TX_point+0x1>
    1948:	80 93 ba 01 	sts	0x01BA, r24	; 0x8001ba <_UART_TX_point>
    194c:	ff 91       	pop	r31
    194e:	ef 91       	pop	r30
    1950:	9f 91       	pop	r25
    1952:	8f 91       	pop	r24
    1954:	3f 91       	pop	r19
    1956:	2f 91       	pop	r18
    1958:	0f 90       	pop	r0
    195a:	0b be       	out	0x3b, r0	; 59
    195c:	0f 90       	pop	r0
    195e:	0f be       	out	0x3f, r0	; 63
    1960:	0f 90       	pop	r0
    1962:	1f 90       	pop	r1
    1964:	18 95       	reti

00001966 <COM_Init>:
    1966:	cf 92       	push	r12
    1968:	df 92       	push	r13
    196a:	ef 92       	push	r14
    196c:	ff 92       	push	r15
    196e:	cf 93       	push	r28
    1970:	df 93       	push	r29
    1972:	ec 01       	movw	r28, r24
    1974:	02 97       	sbiw	r24, 0x02	; 2
    1976:	0c f0       	brlt	.+2      	; 0x197a <COM_Init+0x14>
    1978:	7f c0       	rjmp	.+254    	; 0x1a78 <COM_Init+0x112>
    197a:	db 01       	movw	r26, r22
    197c:	ca 01       	movw	r24, r20
    197e:	01 97       	sbiw	r24, 0x01	; 1
    1980:	a1 09       	sbc	r26, r1
    1982:	b1 09       	sbc	r27, r1
    1984:	80 34       	cpi	r24, 0x40	; 64
    1986:	92 44       	sbci	r25, 0x42	; 66
    1988:	af 40       	sbci	r26, 0x0F	; 15
    198a:	b1 05       	cpc	r27, r1
    198c:	08 f0       	brcs	.+2      	; 0x1990 <COM_Init+0x2a>
    198e:	74 c0       	rjmp	.+232    	; 0x1a78 <COM_Init+0x112>
    1990:	cb 01       	movw	r24, r22
    1992:	ba 01       	movw	r22, r20
    1994:	0e 94 2b 26 	call	0x4c56	; 0x4c56 <__floatsisf>
    1998:	9b 01       	movw	r18, r22
    199a:	ac 01       	movw	r20, r24
    199c:	60 e0       	ldi	r22, 0x00	; 0
    199e:	70 e0       	ldi	r23, 0x00	; 0
    19a0:	81 e6       	ldi	r24, 0x61	; 97
    19a2:	9b e4       	ldi	r25, 0x4B	; 75
    19a4:	0e 94 95 25 	call	0x4b2a	; 0x4b2a <__divsf3>
    19a8:	20 e0       	ldi	r18, 0x00	; 0
    19aa:	30 e0       	ldi	r19, 0x00	; 0
    19ac:	40 e8       	ldi	r20, 0x80	; 128
    19ae:	5d e3       	ldi	r21, 0x3D	; 61
    19b0:	0e 94 bb 26 	call	0x4d76	; 0x4d76 <__mulsf3>
    19b4:	20 e0       	ldi	r18, 0x00	; 0
    19b6:	30 e0       	ldi	r19, 0x00	; 0
    19b8:	40 e0       	ldi	r20, 0x00	; 0
    19ba:	5f e3       	ldi	r21, 0x3F	; 63
    19bc:	0e 94 30 25 	call	0x4a60	; 0x4a60 <__subsf3>
    19c0:	6b 01       	movw	r12, r22
    19c2:	7c 01       	movw	r14, r24
    19c4:	20 e0       	ldi	r18, 0x00	; 0
    19c6:	30 e0       	ldi	r19, 0x00	; 0
    19c8:	40 e0       	ldi	r20, 0x00	; 0
    19ca:	5f e3       	ldi	r21, 0x3F	; 63
    19cc:	0e 94 b7 26 	call	0x4d6e	; 0x4d6e <__gesf2>
    19d0:	87 fd       	sbrc	r24, 7
    19d2:	52 c0       	rjmp	.+164    	; 0x1a78 <COM_Init+0x112>
    19d4:	c7 01       	movw	r24, r14
    19d6:	b6 01       	movw	r22, r12
    19d8:	20 97       	sbiw	r28, 0x00	; 0
    19da:	11 f5       	brne	.+68     	; 0x1a20 <COM_Init+0xba>
    19dc:	0e 94 fd 25 	call	0x4bfa	; 0x4bfa <__fixunssfsi>
    19e0:	c7 2e       	mov	r12, r23
    19e2:	d8 2e       	mov	r13, r24
    19e4:	e9 2e       	mov	r14, r25
    19e6:	ff 24       	eor	r15, r15
    19e8:	c0 92 90 00 	sts	0x0090, r12	; 0x800090 <__TEXT_REGION_LENGTH__+0x7e0090>
    19ec:	69 b9       	out	0x09, r22	; 9
    19ee:	88 ed       	ldi	r24, 0xD8	; 216
    19f0:	8a b9       	out	0x0a, r24	; 10
    19f2:	86 e0       	ldi	r24, 0x06	; 6
    19f4:	80 93 95 00 	sts	0x0095, r24	; 0x800095 <__TEXT_REGION_LENGTH__+0x7e0095>
    19f8:	80 91 64 00 	lds	r24, 0x0064	; 0x800064 <__TEXT_REGION_LENGTH__+0x7e0064>
    19fc:	81 60       	ori	r24, 0x01	; 1
    19fe:	80 93 64 00 	sts	0x0064, r24	; 0x800064 <__TEXT_REGION_LENGTH__+0x7e0064>
    1a02:	80 91 65 00 	lds	r24, 0x0065	; 0x800065 <__TEXT_REGION_LENGTH__+0x7e0065>
    1a06:	8e 7f       	andi	r24, 0xFE	; 254
    1a08:	80 93 65 00 	sts	0x0065, r24	; 0x800065 <__TEXT_REGION_LENGTH__+0x7e0065>
    1a0c:	10 92 03 02 	sts	0x0203, r1	; 0x800203 <_UART_RX_point+0x1>
    1a10:	10 92 02 02 	sts	0x0202, r1	; 0x800202 <_UART_RX_point>
    1a14:	10 92 fe 01 	sts	0x01FE, r1	; 0x8001fe <_UART_RX_end>
    1a18:	81 e0       	ldi	r24, 0x01	; 1
    1a1a:	80 93 b6 01 	sts	0x01B6, r24	; 0x8001b6 <_UART_TX_end>
    1a1e:	29 c0       	rjmp	.+82     	; 0x1a72 <COM_Init+0x10c>
    1a20:	0e 94 fd 25 	call	0x4bfa	; 0x4bfa <__fixunssfsi>
    1a24:	c7 2e       	mov	r12, r23
    1a26:	d8 2e       	mov	r13, r24
    1a28:	e9 2e       	mov	r14, r25
    1a2a:	ff 24       	eor	r15, r15
    1a2c:	c0 92 98 00 	sts	0x0098, r12	; 0x800098 <__TEXT_REGION_LENGTH__+0x7e0098>
    1a30:	60 93 99 00 	sts	0x0099, r22	; 0x800099 <__TEXT_REGION_LENGTH__+0x7e0099>
    1a34:	88 ed       	ldi	r24, 0xD8	; 216
    1a36:	80 93 9a 00 	sts	0x009A, r24	; 0x80009a <__TEXT_REGION_LENGTH__+0x7e009a>
    1a3a:	86 e0       	ldi	r24, 0x06	; 6
    1a3c:	80 93 9d 00 	sts	0x009D, r24	; 0x80009d <__TEXT_REGION_LENGTH__+0x7e009d>
    1a40:	80 91 64 00 	lds	r24, 0x0064	; 0x800064 <__TEXT_REGION_LENGTH__+0x7e0064>
    1a44:	82 60       	ori	r24, 0x02	; 2
    1a46:	80 93 64 00 	sts	0x0064, r24	; 0x800064 <__TEXT_REGION_LENGTH__+0x7e0064>
    1a4a:	80 91 65 00 	lds	r24, 0x0065	; 0x800065 <__TEXT_REGION_LENGTH__+0x7e0065>
    1a4e:	8d 7f       	andi	r24, 0xFD	; 253
    1a50:	80 93 65 00 	sts	0x0065, r24	; 0x800065 <__TEXT_REGION_LENGTH__+0x7e0065>
    1a54:	fe 01       	movw	r30, r28
    1a56:	ee 0f       	add	r30, r30
    1a58:	ff 1f       	adc	r31, r31
    1a5a:	ee 5f       	subi	r30, 0xFE	; 254
    1a5c:	fd 4f       	sbci	r31, 0xFD	; 253
    1a5e:	11 82       	std	Z+1, r1	; 0x01
    1a60:	10 82       	st	Z, r1
    1a62:	fe 01       	movw	r30, r28
    1a64:	e2 50       	subi	r30, 0x02	; 2
    1a66:	fe 4f       	sbci	r31, 0xFE	; 254
    1a68:	10 82       	st	Z, r1
    1a6a:	ca 54       	subi	r28, 0x4A	; 74
    1a6c:	de 4f       	sbci	r29, 0xFE	; 254
    1a6e:	81 e0       	ldi	r24, 0x01	; 1
    1a70:	88 83       	st	Y, r24
    1a72:	78 94       	sei
    1a74:	80 e0       	ldi	r24, 0x00	; 0
    1a76:	01 c0       	rjmp	.+2      	; 0x1a7a <COM_Init+0x114>
    1a78:	8f ef       	ldi	r24, 0xFF	; 255
    1a7a:	df 91       	pop	r29
    1a7c:	cf 91       	pop	r28
    1a7e:	ff 90       	pop	r15
    1a80:	ef 90       	pop	r14
    1a82:	df 90       	pop	r13
    1a84:	cf 90       	pop	r12
    1a86:	08 95       	ret

00001a88 <_UART_Go>:
    1a88:	81 11       	cpse	r24, r1
    1a8a:	17 c0       	rjmp	.+46     	; 0x1aba <_UART_Go+0x32>
    1a8c:	10 92 b6 01 	sts	0x01B6, r1	; 0x8001b6 <_UART_TX_end>
    1a90:	80 91 65 00 	lds	r24, 0x0065	; 0x800065 <__TEXT_REGION_LENGTH__+0x7e0065>
    1a94:	81 60       	ori	r24, 0x01	; 1
    1a96:	80 93 65 00 	sts	0x0065, r24	; 0x800065 <__TEXT_REGION_LENGTH__+0x7e0065>
    1a9a:	88 e1       	ldi	r24, 0x18	; 24
    1a9c:	8a 95       	dec	r24
    1a9e:	f1 f7       	brne	.-4      	; 0x1a9c <_UART_Go+0x14>
    1aa0:	00 c0       	rjmp	.+0      	; 0x1aa2 <_UART_Go+0x1a>
    1aa2:	60 93 b8 01 	sts	0x01B8, r22	; 0x8001b8 <_UART_TX_length>
    1aa6:	81 e0       	ldi	r24, 0x01	; 1
    1aa8:	90 e0       	ldi	r25, 0x00	; 0
    1aaa:	90 93 bb 01 	sts	0x01BB, r25	; 0x8001bb <_UART_TX_point+0x1>
    1aae:	80 93 ba 01 	sts	0x01BA, r24	; 0x8001ba <_UART_TX_point>
    1ab2:	80 91 be 01 	lds	r24, 0x01BE	; 0x8001be <_UART_TX_Buf>
    1ab6:	8c b9       	out	0x0c, r24	; 12
    1ab8:	08 95       	ret
    1aba:	10 92 b7 01 	sts	0x01B7, r1	; 0x8001b7 <_UART_TX_end+0x1>
    1abe:	80 91 65 00 	lds	r24, 0x0065	; 0x800065 <__TEXT_REGION_LENGTH__+0x7e0065>
    1ac2:	82 60       	ori	r24, 0x02	; 2
    1ac4:	80 93 65 00 	sts	0x0065, r24	; 0x800065 <__TEXT_REGION_LENGTH__+0x7e0065>
    1ac8:	88 e1       	ldi	r24, 0x18	; 24
    1aca:	8a 95       	dec	r24
    1acc:	f1 f7       	brne	.-4      	; 0x1aca <_UART_Go+0x42>
    1ace:	00 c0       	rjmp	.+0      	; 0x1ad0 <_UART_Go+0x48>
    1ad0:	60 93 b9 01 	sts	0x01B9, r22	; 0x8001b9 <_UART_TX_length+0x1>
    1ad4:	81 e0       	ldi	r24, 0x01	; 1
    1ad6:	90 e0       	ldi	r25, 0x00	; 0
    1ad8:	90 93 bd 01 	sts	0x01BD, r25	; 0x8001bd <_UART_TX_point+0x3>
    1adc:	80 93 bc 01 	sts	0x01BC, r24	; 0x8001bc <_UART_TX_point+0x2>
    1ae0:	80 91 de 01 	lds	r24, 0x01DE	; 0x8001de <_UART_TX_Buf+0x20>
    1ae4:	80 93 9c 00 	sts	0x009C, r24	; 0x80009c <__TEXT_REGION_LENGTH__+0x7e009c>
    1ae8:	08 95       	ret

00001aea <Write_DCON>:
    1aea:	cf 93       	push	r28
    1aec:	df 93       	push	r29
    1aee:	dc 01       	movw	r26, r24
    1af0:	82 30       	cpi	r24, 0x02	; 2
    1af2:	91 05       	cpc	r25, r1
    1af4:	0c f0       	brlt	.+2      	; 0x1af8 <Write_DCON+0xe>
    1af6:	58 c0       	rjmp	.+176    	; 0x1ba8 <Write_DCON+0xbe>
    1af8:	fc 01       	movw	r30, r24
    1afa:	ea 54       	subi	r30, 0x4A	; 74
    1afc:	fe 4f       	sbci	r31, 0xFE	; 254
    1afe:	80 81       	ld	r24, Z
    1b00:	81 11       	cpse	r24, r1
    1b02:	05 c0       	rjmp	.+10     	; 0x1b0e <Write_DCON+0x24>
    1b04:	88 e1       	ldi	r24, 0x18	; 24
    1b06:	8a 95       	dec	r24
    1b08:	f1 f7       	brne	.-4      	; 0x1b06 <Write_DCON+0x1c>
    1b0a:	00 c0       	rjmp	.+0      	; 0x1b0c <Write_DCON+0x22>
    1b0c:	f8 cf       	rjmp	.-16     	; 0x1afe <Write_DCON+0x14>
    1b0e:	fb 01       	movw	r30, r22
    1b10:	9d 01       	movw	r18, r26
    1b12:	85 e0       	ldi	r24, 0x05	; 5
    1b14:	22 0f       	add	r18, r18
    1b16:	33 1f       	adc	r19, r19
    1b18:	8a 95       	dec	r24
    1b1a:	e1 f7       	brne	.-8      	; 0x1b14 <Write_DCON+0x2a>
    1b1c:	90 e0       	ldi	r25, 0x00	; 0
    1b1e:	60 e0       	ldi	r22, 0x00	; 0
    1b20:	70 e0       	ldi	r23, 0x00	; 0
    1b22:	81 91       	ld	r24, Z+
    1b24:	eb 01       	movw	r28, r22
    1b26:	c2 0f       	add	r28, r18
    1b28:	d3 1f       	adc	r29, r19
    1b2a:	c2 54       	subi	r28, 0x42	; 66
    1b2c:	de 4f       	sbci	r29, 0xFE	; 254
    1b2e:	88 83       	st	Y, r24
    1b30:	88 23       	and	r24, r24
    1b32:	41 f0       	breq	.+16     	; 0x1b44 <Write_DCON+0x5a>
    1b34:	8d 30       	cpi	r24, 0x0D	; 13
    1b36:	31 f0       	breq	.+12     	; 0x1b44 <Write_DCON+0x5a>
    1b38:	98 0f       	add	r25, r24
    1b3a:	6f 5f       	subi	r22, 0xFF	; 255
    1b3c:	7f 4f       	sbci	r23, 0xFF	; 255
    1b3e:	60 32       	cpi	r22, 0x20	; 32
    1b40:	71 05       	cpc	r23, r1
    1b42:	79 f7       	brne	.-34     	; 0x1b22 <Write_DCON+0x38>
    1b44:	fd 01       	movw	r30, r26
    1b46:	ea 5b       	subi	r30, 0xBA	; 186
    1b48:	fd 4f       	sbci	r31, 0xFD	; 253
    1b4a:	80 81       	ld	r24, Z
    1b4c:	81 30       	cpi	r24, 0x01	; 1
    1b4e:	f9 f4       	brne	.+62     	; 0x1b8e <Write_DCON+0xa4>
    1b50:	89 2f       	mov	r24, r25
    1b52:	82 95       	swap	r24
    1b54:	8f 70       	andi	r24, 0x0F	; 15
    1b56:	f9 01       	movw	r30, r18
    1b58:	e6 0f       	add	r30, r22
    1b5a:	f7 1f       	adc	r31, r23
    1b5c:	e2 54       	subi	r30, 0x42	; 66
    1b5e:	fe 4f       	sbci	r31, 0xFE	; 254
    1b60:	8a 30       	cpi	r24, 0x0A	; 10
    1b62:	10 f4       	brcc	.+4      	; 0x1b68 <Write_DCON+0x7e>
    1b64:	80 5d       	subi	r24, 0xD0	; 208
    1b66:	01 c0       	rjmp	.+2      	; 0x1b6a <Write_DCON+0x80>
    1b68:	89 5c       	subi	r24, 0xC9	; 201
    1b6a:	80 83       	st	Z, r24
    1b6c:	ab 01       	movw	r20, r22
    1b6e:	4f 5f       	subi	r20, 0xFF	; 255
    1b70:	5f 4f       	sbci	r21, 0xFF	; 255
    1b72:	9f 70       	andi	r25, 0x0F	; 15
    1b74:	42 0f       	add	r20, r18
    1b76:	53 1f       	adc	r21, r19
    1b78:	fa 01       	movw	r30, r20
    1b7a:	e2 54       	subi	r30, 0x42	; 66
    1b7c:	fe 4f       	sbci	r31, 0xFE	; 254
    1b7e:	9a 30       	cpi	r25, 0x0A	; 10
    1b80:	10 f4       	brcc	.+4      	; 0x1b86 <Write_DCON+0x9c>
    1b82:	90 5d       	subi	r25, 0xD0	; 208
    1b84:	01 c0       	rjmp	.+2      	; 0x1b88 <Write_DCON+0x9e>
    1b86:	99 5c       	subi	r25, 0xC9	; 201
    1b88:	90 83       	st	Z, r25
    1b8a:	6e 5f       	subi	r22, 0xFE	; 254
    1b8c:	7f 4f       	sbci	r23, 0xFF	; 255
    1b8e:	26 0f       	add	r18, r22
    1b90:	37 1f       	adc	r19, r23
    1b92:	f9 01       	movw	r30, r18
    1b94:	e2 54       	subi	r30, 0x42	; 66
    1b96:	fe 4f       	sbci	r31, 0xFE	; 254
    1b98:	8d e0       	ldi	r24, 0x0D	; 13
    1b9a:	80 83       	st	Z, r24
    1b9c:	6f 5f       	subi	r22, 0xFF	; 255
    1b9e:	7f 4f       	sbci	r23, 0xFF	; 255
    1ba0:	8a 2f       	mov	r24, r26
    1ba2:	72 df       	rcall	.-284    	; 0x1a88 <_UART_Go>
    1ba4:	80 e0       	ldi	r24, 0x00	; 0
    1ba6:	01 c0       	rjmp	.+2      	; 0x1baa <Write_DCON+0xc0>
    1ba8:	8f ef       	ldi	r24, 0xFF	; 255
    1baa:	df 91       	pop	r29
    1bac:	cf 91       	pop	r28
    1bae:	08 95       	ret

00001bb0 <Read_DCON>:
    1bb0:	ef 92       	push	r14
    1bb2:	ff 92       	push	r15
    1bb4:	0f 93       	push	r16
    1bb6:	1f 93       	push	r17
    1bb8:	cf 93       	push	r28
    1bba:	df 93       	push	r29
    1bbc:	9c 01       	movw	r18, r24
    1bbe:	82 30       	cpi	r24, 0x02	; 2
    1bc0:	91 05       	cpc	r25, r1
    1bc2:	0c f0       	brlt	.+2      	; 0x1bc6 <Read_DCON+0x16>
    1bc4:	6d c0       	rjmp	.+218    	; 0x1ca0 <Read_DCON+0xf0>
    1bc6:	fc 01       	movw	r30, r24
    1bc8:	e2 50       	subi	r30, 0x02	; 2
    1bca:	fe 4f       	sbci	r31, 0xFE	; 254
    1bcc:	80 81       	ld	r24, Z
    1bce:	88 23       	and	r24, r24
    1bd0:	09 f4       	brne	.+2      	; 0x1bd4 <Read_DCON+0x24>
    1bd2:	69 c0       	rjmp	.+210    	; 0x1ca6 <Read_DCON+0xf6>
    1bd4:	10 82       	st	Z, r1
    1bd6:	f9 01       	movw	r30, r18
    1bd8:	ea 5b       	subi	r30, 0xBA	; 186
    1bda:	fd 4f       	sbci	r31, 0xFD	; 253
    1bdc:	40 81       	ld	r20, Z
    1bde:	d9 01       	movw	r26, r18
    1be0:	a0 50       	subi	r26, 0x00	; 0
    1be2:	be 4f       	sbci	r27, 0xFE	; 254
    1be4:	c9 01       	movw	r24, r18
    1be6:	25 e0       	ldi	r18, 0x05	; 5
    1be8:	88 0f       	add	r24, r24
    1bea:	99 1f       	adc	r25, r25
    1bec:	2a 95       	dec	r18
    1bee:	e1 f7       	brne	.-8      	; 0x1be8 <Read_DCON+0x38>
    1bf0:	41 30       	cpi	r20, 0x01	; 1
    1bf2:	09 f0       	breq	.+2      	; 0x1bf6 <Read_DCON+0x46>
    1bf4:	40 c0       	rjmp	.+128    	; 0x1c76 <Read_DCON+0xc6>
    1bf6:	2c 91       	ld	r18, X
    1bf8:	30 e0       	ldi	r19, 0x00	; 0
    1bfa:	79 01       	movw	r14, r18
    1bfc:	43 e0       	ldi	r20, 0x03	; 3
    1bfe:	e4 1a       	sub	r14, r20
    1c00:	f1 08       	sbc	r15, r1
    1c02:	40 e0       	ldi	r20, 0x00	; 0
    1c04:	c0 e0       	ldi	r28, 0x00	; 0
    1c06:	d0 e0       	ldi	r29, 0x00	; 0
    1c08:	ce 15       	cp	r28, r14
    1c0a:	df 05       	cpc	r29, r15
    1c0c:	54 f4       	brge	.+20     	; 0x1c22 <Read_DCON+0x72>
    1c0e:	8e 01       	movw	r16, r28
    1c10:	08 0f       	add	r16, r24
    1c12:	19 1f       	adc	r17, r25
    1c14:	0a 5f       	subi	r16, 0xFA	; 250
    1c16:	1d 4f       	sbci	r17, 0xFD	; 253
    1c18:	f8 01       	movw	r30, r16
    1c1a:	50 81       	ld	r21, Z
    1c1c:	45 0f       	add	r20, r21
    1c1e:	21 96       	adiw	r28, 0x01	; 1
    1c20:	f3 cf       	rjmp	.-26     	; 0x1c08 <Read_DCON+0x58>
    1c22:	54 2f       	mov	r21, r20
    1c24:	52 95       	swap	r21
    1c26:	5f 70       	andi	r21, 0x0F	; 15
    1c28:	c5 2f       	mov	r28, r21
    1c2a:	d0 e0       	ldi	r29, 0x00	; 0
    1c2c:	5a 30       	cpi	r21, 0x0A	; 10
    1c2e:	10 f4       	brcc	.+4      	; 0x1c34 <Read_DCON+0x84>
    1c30:	e0 96       	adiw	r28, 0x30	; 48
    1c32:	01 c0       	rjmp	.+2      	; 0x1c36 <Read_DCON+0x86>
    1c34:	e7 96       	adiw	r28, 0x37	; 55
    1c36:	f7 01       	movw	r30, r14
    1c38:	e8 0f       	add	r30, r24
    1c3a:	f9 1f       	adc	r31, r25
    1c3c:	ea 5f       	subi	r30, 0xFA	; 250
    1c3e:	fd 4f       	sbci	r31, 0xFD	; 253
    1c40:	e0 81       	ld	r30, Z
    1c42:	f0 e0       	ldi	r31, 0x00	; 0
    1c44:	ce 17       	cp	r28, r30
    1c46:	df 07       	cpc	r29, r31
    1c48:	69 f5       	brne	.+90     	; 0x1ca4 <Read_DCON+0xf4>
    1c4a:	4f 70       	andi	r20, 0x0F	; 15
    1c4c:	e4 2f       	mov	r30, r20
    1c4e:	f0 e0       	ldi	r31, 0x00	; 0
    1c50:	4a 30       	cpi	r20, 0x0A	; 10
    1c52:	20 f4       	brcc	.+8      	; 0x1c5c <Read_DCON+0xac>
    1c54:	af 01       	movw	r20, r30
    1c56:	40 5d       	subi	r20, 0xD0	; 208
    1c58:	5f 4f       	sbci	r21, 0xFF	; 255
    1c5a:	03 c0       	rjmp	.+6      	; 0x1c62 <Read_DCON+0xb2>
    1c5c:	af 01       	movw	r20, r30
    1c5e:	49 5c       	subi	r20, 0xC9	; 201
    1c60:	5f 4f       	sbci	r21, 0xFF	; 255
    1c62:	28 0f       	add	r18, r24
    1c64:	39 1f       	adc	r19, r25
    1c66:	f9 01       	movw	r30, r18
    1c68:	ec 5f       	subi	r30, 0xFC	; 252
    1c6a:	fd 4f       	sbci	r31, 0xFD	; 253
    1c6c:	20 81       	ld	r18, Z
    1c6e:	30 e0       	ldi	r19, 0x00	; 0
    1c70:	42 17       	cp	r20, r18
    1c72:	53 07       	cpc	r21, r19
    1c74:	b9 f4       	brne	.+46     	; 0x1ca4 <Read_DCON+0xf4>
    1c76:	2c 91       	ld	r18, X
    1c78:	fb 01       	movw	r30, r22
    1c7a:	21 93       	st	Z+, r18
    1c7c:	40 e0       	ldi	r20, 0x00	; 0
    1c7e:	50 e0       	ldi	r21, 0x00	; 0
    1c80:	30 e0       	ldi	r19, 0x00	; 0
    1c82:	42 17       	cp	r20, r18
    1c84:	53 07       	cpc	r21, r19
    1c86:	54 f4       	brge	.+20     	; 0x1c9c <Read_DCON+0xec>
    1c88:	da 01       	movw	r26, r20
    1c8a:	a8 0f       	add	r26, r24
    1c8c:	b9 1f       	adc	r27, r25
    1c8e:	aa 5f       	subi	r26, 0xFA	; 250
    1c90:	bd 4f       	sbci	r27, 0xFD	; 253
    1c92:	6c 91       	ld	r22, X
    1c94:	61 93       	st	Z+, r22
    1c96:	4f 5f       	subi	r20, 0xFF	; 255
    1c98:	5f 4f       	sbci	r21, 0xFF	; 255
    1c9a:	f3 cf       	rjmp	.-26     	; 0x1c82 <Read_DCON+0xd2>
    1c9c:	81 e0       	ldi	r24, 0x01	; 1
    1c9e:	03 c0       	rjmp	.+6      	; 0x1ca6 <Read_DCON+0xf6>
    1ca0:	8f ef       	ldi	r24, 0xFF	; 255
    1ca2:	01 c0       	rjmp	.+2      	; 0x1ca6 <Read_DCON+0xf6>
    1ca4:	80 e8       	ldi	r24, 0x80	; 128
    1ca6:	df 91       	pop	r29
    1ca8:	cf 91       	pop	r28
    1caa:	1f 91       	pop	r17
    1cac:	0f 91       	pop	r16
    1cae:	ff 90       	pop	r15
    1cb0:	ef 90       	pop	r14
    1cb2:	08 95       	ret

00001cb4 <bin2bcd>:
    1cb4:	6a e0       	ldi	r22, 0x0A	; 10
    1cb6:	0e 94 a7 28 	call	0x514e	; 0x514e <__udivmodqi4>
    1cba:	20 e1       	ldi	r18, 0x10	; 16
    1cbc:	82 9f       	mul	r24, r18
    1cbe:	90 0d       	add	r25, r0
    1cc0:	11 24       	eor	r1, r1
    1cc2:	89 2f       	mov	r24, r25
    1cc4:	08 95       	ret

00001cc6 <bcd2bin>:
    1cc6:	98 2f       	mov	r25, r24
    1cc8:	92 95       	swap	r25
    1cca:	9f 70       	andi	r25, 0x0F	; 15
    1ccc:	8f 70       	andi	r24, 0x0F	; 15
    1cce:	2a e0       	ldi	r18, 0x0A	; 10
    1cd0:	92 9f       	mul	r25, r18
    1cd2:	80 0d       	add	r24, r0
    1cd4:	11 24       	eor	r1, r1
    1cd6:	08 95       	ret

00001cd8 <_I2C_Start>:
    1cd8:	94 ee       	ldi	r25, 0xE4	; 228
    1cda:	90 93 74 00 	sts	0x0074, r25	; 0x800074 <__TEXT_REGION_LENGTH__+0x7e0074>
    1cde:	10 92 b5 01 	sts	0x01B5, r1	; 0x8001b5 <_I2C_Time_Out>
    1ce2:	90 91 74 00 	lds	r25, 0x0074	; 0x800074 <__TEXT_REGION_LENGTH__+0x7e0074>
    1ce6:	97 fd       	sbrc	r25, 7
    1ce8:	11 c0       	rjmp	.+34     	; 0x1d0c <_I2C_Start+0x34>
    1cea:	90 91 b5 01 	lds	r25, 0x01B5	; 0x8001b5 <_I2C_Time_Out>
    1cee:	9f 5f       	subi	r25, 0xFF	; 255
    1cf0:	90 93 b5 01 	sts	0x01B5, r25	; 0x8001b5 <_I2C_Time_Out>
    1cf4:	9b 30       	cpi	r25, 0x0B	; 11
    1cf6:	20 f0       	brcs	.+8      	; 0x1d00 <_I2C_Start+0x28>
    1cf8:	91 e0       	ldi	r25, 0x01	; 1
    1cfa:	90 93 ae 01 	sts	0x01AE, r25	; 0x8001ae <_I2C_Error>
    1cfe:	06 c0       	rjmp	.+12     	; 0x1d0c <_I2C_Start+0x34>
    1d00:	e0 e7       	ldi	r30, 0x70	; 112
    1d02:	f1 e0       	ldi	r31, 0x01	; 1
    1d04:	31 97       	sbiw	r30, 0x01	; 1
    1d06:	f1 f7       	brne	.-4      	; 0x1d04 <_I2C_Start+0x2c>
    1d08:	00 c0       	rjmp	.+0      	; 0x1d0a <_I2C_Start+0x32>
    1d0a:	eb cf       	rjmp	.-42     	; 0x1ce2 <_I2C_Start+0xa>
    1d0c:	80 93 73 00 	sts	0x0073, r24	; 0x800073 <__TEXT_REGION_LENGTH__+0x7e0073>
    1d10:	84 ee       	ldi	r24, 0xE4	; 228
    1d12:	80 93 74 00 	sts	0x0074, r24	; 0x800074 <__TEXT_REGION_LENGTH__+0x7e0074>
    1d16:	10 92 b5 01 	sts	0x01B5, r1	; 0x8001b5 <_I2C_Time_Out>
    1d1a:	80 91 74 00 	lds	r24, 0x0074	; 0x800074 <__TEXT_REGION_LENGTH__+0x7e0074>
    1d1e:	87 fd       	sbrc	r24, 7
    1d20:	11 c0       	rjmp	.+34     	; 0x1d44 <_I2C_Start+0x6c>
    1d22:	80 91 b5 01 	lds	r24, 0x01B5	; 0x8001b5 <_I2C_Time_Out>
    1d26:	8f 5f       	subi	r24, 0xFF	; 255
    1d28:	80 93 b5 01 	sts	0x01B5, r24	; 0x8001b5 <_I2C_Time_Out>
    1d2c:	8b 30       	cpi	r24, 0x0B	; 11
    1d2e:	20 f0       	brcs	.+8      	; 0x1d38 <_I2C_Start+0x60>
    1d30:	81 e0       	ldi	r24, 0x01	; 1
    1d32:	80 93 ae 01 	sts	0x01AE, r24	; 0x8001ae <_I2C_Error>
    1d36:	08 95       	ret
    1d38:	80 e7       	ldi	r24, 0x70	; 112
    1d3a:	91 e0       	ldi	r25, 0x01	; 1
    1d3c:	01 97       	sbiw	r24, 0x01	; 1
    1d3e:	f1 f7       	brne	.-4      	; 0x1d3c <_I2C_Start+0x64>
    1d40:	00 c0       	rjmp	.+0      	; 0x1d42 <_I2C_Start+0x6a>
    1d42:	eb cf       	rjmp	.-42     	; 0x1d1a <_I2C_Start+0x42>
    1d44:	08 95       	ret

00001d46 <_I2C_Write>:
    1d46:	fc 01       	movw	r30, r24
    1d48:	24 e8       	ldi	r18, 0x84	; 132
    1d4a:	31 e0       	ldi	r19, 0x01	; 1
    1d4c:	9e 2f       	mov	r25, r30
    1d4e:	98 1b       	sub	r25, r24
    1d50:	96 17       	cp	r25, r22
    1d52:	d8 f4       	brcc	.+54     	; 0x1d8a <_I2C_Write+0x44>
    1d54:	91 91       	ld	r25, Z+
    1d56:	90 93 73 00 	sts	0x0073, r25	; 0x800073 <__TEXT_REGION_LENGTH__+0x7e0073>
    1d5a:	20 93 74 00 	sts	0x0074, r18	; 0x800074 <__TEXT_REGION_LENGTH__+0x7e0074>
    1d5e:	10 92 b5 01 	sts	0x01B5, r1	; 0x8001b5 <_I2C_Time_Out>
    1d62:	90 91 74 00 	lds	r25, 0x0074	; 0x800074 <__TEXT_REGION_LENGTH__+0x7e0074>
    1d66:	97 fd       	sbrc	r25, 7
    1d68:	f1 cf       	rjmp	.-30     	; 0x1d4c <_I2C_Write+0x6>
    1d6a:	90 91 b5 01 	lds	r25, 0x01B5	; 0x8001b5 <_I2C_Time_Out>
    1d6e:	9f 5f       	subi	r25, 0xFF	; 255
    1d70:	90 93 b5 01 	sts	0x01B5, r25	; 0x8001b5 <_I2C_Time_Out>
    1d74:	9b 30       	cpi	r25, 0x0B	; 11
    1d76:	18 f0       	brcs	.+6      	; 0x1d7e <_I2C_Write+0x38>
    1d78:	30 93 ae 01 	sts	0x01AE, r19	; 0x8001ae <_I2C_Error>
    1d7c:	e7 cf       	rjmp	.-50     	; 0x1d4c <_I2C_Write+0x6>
    1d7e:	a0 e7       	ldi	r26, 0x70	; 112
    1d80:	b1 e0       	ldi	r27, 0x01	; 1
    1d82:	11 97       	sbiw	r26, 0x01	; 1
    1d84:	f1 f7       	brne	.-4      	; 0x1d82 <_I2C_Write+0x3c>
    1d86:	00 c0       	rjmp	.+0      	; 0x1d88 <_I2C_Write+0x42>
    1d88:	ec cf       	rjmp	.-40     	; 0x1d62 <_I2C_Write+0x1c>
    1d8a:	84 e9       	ldi	r24, 0x94	; 148
    1d8c:	80 93 74 00 	sts	0x0074, r24	; 0x800074 <__TEXT_REGION_LENGTH__+0x7e0074>
    1d90:	b1 e3       	ldi	r27, 0x31	; 49
    1d92:	ba 95       	dec	r27
    1d94:	f1 f7       	brne	.-4      	; 0x1d92 <_I2C_Write+0x4c>
    1d96:	00 00       	nop
    1d98:	08 95       	ret

00001d9a <_I2C_Read>:
    1d9a:	cf 93       	push	r28
    1d9c:	df 93       	push	r29
    1d9e:	fc 01       	movw	r30, r24
    1da0:	20 e0       	ldi	r18, 0x00	; 0
    1da2:	30 e0       	ldi	r19, 0x00	; 0
    1da4:	46 2f       	mov	r20, r22
    1da6:	50 e0       	ldi	r21, 0x00	; 0
    1da8:	41 50       	subi	r20, 0x01	; 1
    1daa:	51 09       	sbc	r21, r1
    1dac:	84 ec       	ldi	r24, 0xC4	; 196
    1dae:	74 e8       	ldi	r23, 0x84	; 132
    1db0:	a1 e0       	ldi	r26, 0x01	; 1
    1db2:	b4 e9       	ldi	r27, 0x94	; 148
    1db4:	26 17       	cp	r18, r22
    1db6:	48 f5       	brcc	.+82     	; 0x1e0a <_I2C_Read+0x70>
    1db8:	24 17       	cp	r18, r20
    1dba:	35 07       	cpc	r19, r21
    1dbc:	19 f4       	brne	.+6      	; 0x1dc4 <_I2C_Read+0x2a>
    1dbe:	70 93 74 00 	sts	0x0074, r23	; 0x800074 <__TEXT_REGION_LENGTH__+0x7e0074>
    1dc2:	02 c0       	rjmp	.+4      	; 0x1dc8 <_I2C_Read+0x2e>
    1dc4:	80 93 74 00 	sts	0x0074, r24	; 0x800074 <__TEXT_REGION_LENGTH__+0x7e0074>
    1dc8:	10 92 b5 01 	sts	0x01B5, r1	; 0x8001b5 <_I2C_Time_Out>
    1dcc:	90 91 74 00 	lds	r25, 0x0074	; 0x800074 <__TEXT_REGION_LENGTH__+0x7e0074>
    1dd0:	97 fd       	sbrc	r25, 7
    1dd2:	10 c0       	rjmp	.+32     	; 0x1df4 <_I2C_Read+0x5a>
    1dd4:	90 91 b5 01 	lds	r25, 0x01B5	; 0x8001b5 <_I2C_Time_Out>
    1dd8:	9f 5f       	subi	r25, 0xFF	; 255
    1dda:	90 93 b5 01 	sts	0x01B5, r25	; 0x8001b5 <_I2C_Time_Out>
    1dde:	9b 30       	cpi	r25, 0x0B	; 11
    1de0:	18 f0       	brcs	.+6      	; 0x1de8 <_I2C_Read+0x4e>
    1de2:	a0 93 ae 01 	sts	0x01AE, r26	; 0x8001ae <_I2C_Error>
    1de6:	06 c0       	rjmp	.+12     	; 0x1df4 <_I2C_Read+0x5a>
    1de8:	c0 e7       	ldi	r28, 0x70	; 112
    1dea:	d1 e0       	ldi	r29, 0x01	; 1
    1dec:	21 97       	sbiw	r28, 0x01	; 1
    1dee:	f1 f7       	brne	.-4      	; 0x1dec <_I2C_Read+0x52>
    1df0:	00 c0       	rjmp	.+0      	; 0x1df2 <_I2C_Read+0x58>
    1df2:	ec cf       	rjmp	.-40     	; 0x1dcc <_I2C_Read+0x32>
    1df4:	90 91 73 00 	lds	r25, 0x0073	; 0x800073 <__TEXT_REGION_LENGTH__+0x7e0073>
    1df8:	91 93       	st	Z+, r25
    1dfa:	24 17       	cp	r18, r20
    1dfc:	35 07       	cpc	r19, r21
    1dfe:	11 f4       	brne	.+4      	; 0x1e04 <_I2C_Read+0x6a>
    1e00:	b0 93 74 00 	sts	0x0074, r27	; 0x800074 <__TEXT_REGION_LENGTH__+0x7e0074>
    1e04:	2f 5f       	subi	r18, 0xFF	; 255
    1e06:	3f 4f       	sbci	r19, 0xFF	; 255
    1e08:	d5 cf       	rjmp	.-86     	; 0x1db4 <_I2C_Read+0x1a>
    1e0a:	d1 e3       	ldi	r29, 0x31	; 49
    1e0c:	da 95       	dec	r29
    1e0e:	f1 f7       	brne	.-4      	; 0x1e0c <_I2C_Read+0x72>
    1e10:	00 00       	nop
    1e12:	df 91       	pop	r29
    1e14:	cf 91       	pop	r28
    1e16:	08 95       	ret

00001e18 <RTC_Init>:
    1e18:	10 92 71 00 	sts	0x0071, r1	; 0x800071 <__TEXT_REGION_LENGTH__+0x7e0071>
    1e1c:	8d e4       	ldi	r24, 0x4D	; 77
    1e1e:	80 93 70 00 	sts	0x0070, r24	; 0x800070 <__TEXT_REGION_LENGTH__+0x7e0070>
    1e22:	81 e0       	ldi	r24, 0x01	; 1
    1e24:	80 93 72 00 	sts	0x0072, r24	; 0x800072 <__TEXT_REGION_LENGTH__+0x7e0072>
    1e28:	10 92 ae 01 	sts	0x01AE, r1	; 0x8001ae <_I2C_Error>
    1e2c:	80 ed       	ldi	r24, 0xD0	; 208
    1e2e:	54 df       	rcall	.-344    	; 0x1cd8 <_I2C_Start>
    1e30:	87 e0       	ldi	r24, 0x07	; 7
    1e32:	80 93 af 01 	sts	0x01AF, r24	; 0x8001af <_I2C_buf>
    1e36:	81 e9       	ldi	r24, 0x91	; 145
    1e38:	80 93 b0 01 	sts	0x01B0, r24	; 0x8001b0 <_I2C_buf+0x1>
    1e3c:	62 e0       	ldi	r22, 0x02	; 2
    1e3e:	8f ea       	ldi	r24, 0xAF	; 175
    1e40:	91 e0       	ldi	r25, 0x01	; 1
    1e42:	81 df       	rcall	.-254    	; 0x1d46 <_I2C_Write>
    1e44:	81 e0       	ldi	r24, 0x01	; 1
    1e46:	90 91 ae 01 	lds	r25, 0x01AE	; 0x8001ae <_I2C_Error>
    1e4a:	91 11       	cpse	r25, r1
    1e4c:	01 c0       	rjmp	.+2      	; 0x1e50 <RTC_Init+0x38>
    1e4e:	80 e0       	ldi	r24, 0x00	; 0
    1e50:	08 95       	ret

00001e52 <RTC_Get_Time>:
    1e52:	ef 92       	push	r14
    1e54:	ff 92       	push	r15
    1e56:	0f 93       	push	r16
    1e58:	1f 93       	push	r17
    1e5a:	cf 93       	push	r28
    1e5c:	df 93       	push	r29
    1e5e:	ec 01       	movw	r28, r24
    1e60:	8b 01       	movw	r16, r22
    1e62:	7a 01       	movw	r14, r20
    1e64:	10 92 ae 01 	sts	0x01AE, r1	; 0x8001ae <_I2C_Error>
    1e68:	80 ed       	ldi	r24, 0xD0	; 208
    1e6a:	36 df       	rcall	.-404    	; 0x1cd8 <_I2C_Start>
    1e6c:	10 92 af 01 	sts	0x01AF, r1	; 0x8001af <_I2C_buf>
    1e70:	61 e0       	ldi	r22, 0x01	; 1
    1e72:	8f ea       	ldi	r24, 0xAF	; 175
    1e74:	91 e0       	ldi	r25, 0x01	; 1
    1e76:	67 df       	rcall	.-306    	; 0x1d46 <_I2C_Write>
    1e78:	81 ed       	ldi	r24, 0xD1	; 209
    1e7a:	2e df       	rcall	.-420    	; 0x1cd8 <_I2C_Start>
    1e7c:	63 e0       	ldi	r22, 0x03	; 3
    1e7e:	8f ea       	ldi	r24, 0xAF	; 175
    1e80:	91 e0       	ldi	r25, 0x01	; 1
    1e82:	8b df       	rcall	.-234    	; 0x1d9a <_I2C_Read>
    1e84:	80 91 af 01 	lds	r24, 0x01AF	; 0x8001af <_I2C_buf>
    1e88:	1e df       	rcall	.-452    	; 0x1cc6 <bcd2bin>
    1e8a:	f7 01       	movw	r30, r14
    1e8c:	80 83       	st	Z, r24
    1e8e:	80 91 b0 01 	lds	r24, 0x01B0	; 0x8001b0 <_I2C_buf+0x1>
    1e92:	19 df       	rcall	.-462    	; 0x1cc6 <bcd2bin>
    1e94:	f8 01       	movw	r30, r16
    1e96:	80 83       	st	Z, r24
    1e98:	80 91 b1 01 	lds	r24, 0x01B1	; 0x8001b1 <_I2C_buf+0x2>
    1e9c:	14 df       	rcall	.-472    	; 0x1cc6 <bcd2bin>
    1e9e:	88 83       	st	Y, r24
    1ea0:	81 e0       	ldi	r24, 0x01	; 1
    1ea2:	90 91 ae 01 	lds	r25, 0x01AE	; 0x8001ae <_I2C_Error>
    1ea6:	91 11       	cpse	r25, r1
    1ea8:	01 c0       	rjmp	.+2      	; 0x1eac <RTC_Get_Time+0x5a>
    1eaa:	80 e0       	ldi	r24, 0x00	; 0
    1eac:	df 91       	pop	r29
    1eae:	cf 91       	pop	r28
    1eb0:	1f 91       	pop	r17
    1eb2:	0f 91       	pop	r16
    1eb4:	ff 90       	pop	r15
    1eb6:	ef 90       	pop	r14
    1eb8:	08 95       	ret

00001eba <RTC_Set_Time>:
    1eba:	1f 93       	push	r17
    1ebc:	cf 93       	push	r28
    1ebe:	df 93       	push	r29
    1ec0:	00 d0       	rcall	.+0      	; 0x1ec2 <RTC_Set_Time+0x8>
    1ec2:	cd b7       	in	r28, 0x3d	; 61
    1ec4:	de b7       	in	r29, 0x3e	; 62
    1ec6:	18 2f       	mov	r17, r24
    1ec8:	10 92 ae 01 	sts	0x01AE, r1	; 0x8001ae <_I2C_Error>
    1ecc:	80 ed       	ldi	r24, 0xD0	; 208
    1ece:	49 83       	std	Y+1, r20	; 0x01
    1ed0:	6a 83       	std	Y+2, r22	; 0x02
    1ed2:	02 df       	rcall	.-508    	; 0x1cd8 <_I2C_Start>
    1ed4:	10 92 af 01 	sts	0x01AF, r1	; 0x8001af <_I2C_buf>
    1ed8:	49 81       	ldd	r20, Y+1	; 0x01
    1eda:	84 2f       	mov	r24, r20
    1edc:	eb de       	rcall	.-554    	; 0x1cb4 <bin2bcd>
    1ede:	80 93 b0 01 	sts	0x01B0, r24	; 0x8001b0 <_I2C_buf+0x1>
    1ee2:	6a 81       	ldd	r22, Y+2	; 0x02
    1ee4:	86 2f       	mov	r24, r22
    1ee6:	e6 de       	rcall	.-564    	; 0x1cb4 <bin2bcd>
    1ee8:	80 93 b1 01 	sts	0x01B1, r24	; 0x8001b1 <_I2C_buf+0x2>
    1eec:	81 2f       	mov	r24, r17
    1eee:	e2 de       	rcall	.-572    	; 0x1cb4 <bin2bcd>
    1ef0:	80 93 b2 01 	sts	0x01B2, r24	; 0x8001b2 <_I2C_buf+0x3>
    1ef4:	64 e0       	ldi	r22, 0x04	; 4
    1ef6:	8f ea       	ldi	r24, 0xAF	; 175
    1ef8:	91 e0       	ldi	r25, 0x01	; 1
    1efa:	25 df       	rcall	.-438    	; 0x1d46 <_I2C_Write>
    1efc:	81 e0       	ldi	r24, 0x01	; 1
    1efe:	90 91 ae 01 	lds	r25, 0x01AE	; 0x8001ae <_I2C_Error>
    1f02:	91 11       	cpse	r25, r1
    1f04:	01 c0       	rjmp	.+2      	; 0x1f08 <RTC_Set_Time+0x4e>
    1f06:	80 e0       	ldi	r24, 0x00	; 0
    1f08:	0f 90       	pop	r0
    1f0a:	0f 90       	pop	r0
    1f0c:	df 91       	pop	r29
    1f0e:	cf 91       	pop	r28
    1f10:	1f 91       	pop	r17
    1f12:	08 95       	ret

00001f14 <RTC_Get_Date>:
    1f14:	cf 92       	push	r12
    1f16:	df 92       	push	r13
    1f18:	ef 92       	push	r14
    1f1a:	ff 92       	push	r15
    1f1c:	0f 93       	push	r16
    1f1e:	1f 93       	push	r17
    1f20:	cf 93       	push	r28
    1f22:	df 93       	push	r29
    1f24:	6c 01       	movw	r12, r24
    1f26:	7b 01       	movw	r14, r22
    1f28:	8a 01       	movw	r16, r20
    1f2a:	e9 01       	movw	r28, r18
    1f2c:	10 92 ae 01 	sts	0x01AE, r1	; 0x8001ae <_I2C_Error>
    1f30:	80 ed       	ldi	r24, 0xD0	; 208
    1f32:	d2 de       	rcall	.-604    	; 0x1cd8 <_I2C_Start>
    1f34:	83 e0       	ldi	r24, 0x03	; 3
    1f36:	80 93 af 01 	sts	0x01AF, r24	; 0x8001af <_I2C_buf>
    1f3a:	61 e0       	ldi	r22, 0x01	; 1
    1f3c:	8f ea       	ldi	r24, 0xAF	; 175
    1f3e:	91 e0       	ldi	r25, 0x01	; 1
    1f40:	02 df       	rcall	.-508    	; 0x1d46 <_I2C_Write>
    1f42:	81 ed       	ldi	r24, 0xD1	; 209
    1f44:	c9 de       	rcall	.-622    	; 0x1cd8 <_I2C_Start>
    1f46:	64 e0       	ldi	r22, 0x04	; 4
    1f48:	8f ea       	ldi	r24, 0xAF	; 175
    1f4a:	91 e0       	ldi	r25, 0x01	; 1
    1f4c:	26 df       	rcall	.-436    	; 0x1d9a <_I2C_Read>
    1f4e:	80 91 af 01 	lds	r24, 0x01AF	; 0x8001af <_I2C_buf>
    1f52:	b9 de       	rcall	.-654    	; 0x1cc6 <bcd2bin>
    1f54:	81 50       	subi	r24, 0x01	; 1
    1f56:	f6 01       	movw	r30, r12
    1f58:	80 83       	st	Z, r24
    1f5a:	80 91 b0 01 	lds	r24, 0x01B0	; 0x8001b0 <_I2C_buf+0x1>
    1f5e:	b3 de       	rcall	.-666    	; 0x1cc6 <bcd2bin>
    1f60:	f7 01       	movw	r30, r14
    1f62:	80 83       	st	Z, r24
    1f64:	80 91 b1 01 	lds	r24, 0x01B1	; 0x8001b1 <_I2C_buf+0x2>
    1f68:	ae de       	rcall	.-676    	; 0x1cc6 <bcd2bin>
    1f6a:	f8 01       	movw	r30, r16
    1f6c:	80 83       	st	Z, r24
    1f6e:	80 91 b2 01 	lds	r24, 0x01B2	; 0x8001b2 <_I2C_buf+0x3>
    1f72:	a9 de       	rcall	.-686    	; 0x1cc6 <bcd2bin>
    1f74:	88 83       	st	Y, r24
    1f76:	81 e0       	ldi	r24, 0x01	; 1
    1f78:	90 91 ae 01 	lds	r25, 0x01AE	; 0x8001ae <_I2C_Error>
    1f7c:	91 11       	cpse	r25, r1
    1f7e:	01 c0       	rjmp	.+2      	; 0x1f82 <RTC_Get_Date+0x6e>
    1f80:	80 e0       	ldi	r24, 0x00	; 0
    1f82:	df 91       	pop	r29
    1f84:	cf 91       	pop	r28
    1f86:	1f 91       	pop	r17
    1f88:	0f 91       	pop	r16
    1f8a:	ff 90       	pop	r15
    1f8c:	ef 90       	pop	r14
    1f8e:	df 90       	pop	r13
    1f90:	cf 90       	pop	r12
    1f92:	08 95       	ret

00001f94 <RTC_Set_Date>:
    1f94:	1f 93       	push	r17
    1f96:	cf 93       	push	r28
    1f98:	df 93       	push	r29
    1f9a:	00 d0       	rcall	.+0      	; 0x1f9c <RTC_Set_Date+0x8>
    1f9c:	1f 92       	push	r1
    1f9e:	cd b7       	in	r28, 0x3d	; 61
    1fa0:	de b7       	in	r29, 0x3e	; 62
    1fa2:	18 2f       	mov	r17, r24
    1fa4:	10 92 ae 01 	sts	0x01AE, r1	; 0x8001ae <_I2C_Error>
    1fa8:	80 ed       	ldi	r24, 0xD0	; 208
    1faa:	2b 83       	std	Y+3, r18	; 0x03
    1fac:	4a 83       	std	Y+2, r20	; 0x02
    1fae:	69 83       	std	Y+1, r22	; 0x01
    1fb0:	93 de       	rcall	.-730    	; 0x1cd8 <_I2C_Start>
    1fb2:	83 e0       	ldi	r24, 0x03	; 3
    1fb4:	80 93 af 01 	sts	0x01AF, r24	; 0x8001af <_I2C_buf>
    1fb8:	81 2f       	mov	r24, r17
    1fba:	7c de       	rcall	.-776    	; 0x1cb4 <bin2bcd>
    1fbc:	8f 5f       	subi	r24, 0xFF	; 255
    1fbe:	80 93 b0 01 	sts	0x01B0, r24	; 0x8001b0 <_I2C_buf+0x1>
    1fc2:	69 81       	ldd	r22, Y+1	; 0x01
    1fc4:	86 2f       	mov	r24, r22
    1fc6:	76 de       	rcall	.-788    	; 0x1cb4 <bin2bcd>
    1fc8:	80 93 b1 01 	sts	0x01B1, r24	; 0x8001b1 <_I2C_buf+0x2>
    1fcc:	4a 81       	ldd	r20, Y+2	; 0x02
    1fce:	84 2f       	mov	r24, r20
    1fd0:	71 de       	rcall	.-798    	; 0x1cb4 <bin2bcd>
    1fd2:	80 93 b2 01 	sts	0x01B2, r24	; 0x8001b2 <_I2C_buf+0x3>
    1fd6:	2b 81       	ldd	r18, Y+3	; 0x03
    1fd8:	82 2f       	mov	r24, r18
    1fda:	6c de       	rcall	.-808    	; 0x1cb4 <bin2bcd>
    1fdc:	80 93 b3 01 	sts	0x01B3, r24	; 0x8001b3 <_I2C_buf+0x4>
    1fe0:	65 e0       	ldi	r22, 0x05	; 5
    1fe2:	8f ea       	ldi	r24, 0xAF	; 175
    1fe4:	91 e0       	ldi	r25, 0x01	; 1
    1fe6:	af de       	rcall	.-674    	; 0x1d46 <_I2C_Write>
    1fe8:	81 e0       	ldi	r24, 0x01	; 1
    1fea:	90 91 ae 01 	lds	r25, 0x01AE	; 0x8001ae <_I2C_Error>
    1fee:	91 11       	cpse	r25, r1
    1ff0:	01 c0       	rjmp	.+2      	; 0x1ff4 <RTC_Set_Date+0x60>
    1ff2:	80 e0       	ldi	r24, 0x00	; 0
    1ff4:	0f 90       	pop	r0
    1ff6:	0f 90       	pop	r0
    1ff8:	0f 90       	pop	r0
    1ffa:	df 91       	pop	r29
    1ffc:	cf 91       	pop	r28
    1ffe:	1f 91       	pop	r17
    2000:	08 95       	ret

00002002 <convert_to_show>:
    2002:	8f 92       	push	r8
    2004:	9f 92       	push	r9
    2006:	af 92       	push	r10
    2008:	bf 92       	push	r11
    200a:	cf 92       	push	r12
    200c:	df 92       	push	r13
    200e:	ef 92       	push	r14
    2010:	ff 92       	push	r15
    2012:	0f 93       	push	r16
    2014:	1f 93       	push	r17
    2016:	cf 93       	push	r28
    2018:	df 93       	push	r29
    201a:	80 91 32 03 	lds	r24, 0x0332	; 0x800332 <hour>
    201e:	2a e0       	ldi	r18, 0x0A	; 10
    2020:	62 2f       	mov	r22, r18
    2022:	0e 94 a7 28 	call	0x514e	; 0x514e <__udivmodqi4>
    2026:	80 5d       	subi	r24, 0xD0	; 208
    2028:	80 93 60 02 	sts	0x0260, r24	; 0x800260 <cur_time>
    202c:	90 5d       	subi	r25, 0xD0	; 208
    202e:	90 93 61 02 	sts	0x0261, r25	; 0x800261 <cur_time+0x1>
    2032:	8a e3       	ldi	r24, 0x3A	; 58
    2034:	80 93 62 02 	sts	0x0262, r24	; 0x800262 <cur_time+0x2>
    2038:	80 91 5d 03 	lds	r24, 0x035D	; 0x80035d <min>
    203c:	0e 94 a7 28 	call	0x514e	; 0x514e <__udivmodqi4>
    2040:	80 5d       	subi	r24, 0xD0	; 208
    2042:	80 93 63 02 	sts	0x0263, r24	; 0x800263 <cur_time+0x3>
    2046:	90 5d       	subi	r25, 0xD0	; 208
    2048:	90 93 64 02 	sts	0x0264, r25	; 0x800264 <cur_time+0x4>
    204c:	81 e0       	ldi	r24, 0x01	; 1
    204e:	80 93 35 01 	sts	0x0135, r24	; 0x800135 <disp_DOW>
    2052:	82 e0       	ldi	r24, 0x02	; 2
    2054:	80 93 38 01 	sts	0x0138, r24	; 0x800138 <disp_DOW+0x3>
    2058:	83 e0       	ldi	r24, 0x03	; 3
    205a:	80 93 3b 01 	sts	0x013B, r24	; 0x80013b <disp_DOW+0x6>
    205e:	84 e0       	ldi	r24, 0x04	; 4
    2060:	80 93 3e 01 	sts	0x013E, r24	; 0x80013e <disp_DOW+0x9>
    2064:	85 e0       	ldi	r24, 0x05	; 5
    2066:	80 93 41 01 	sts	0x0141, r24	; 0x800141 <disp_DOW+0xc>
    206a:	86 e0       	ldi	r24, 0x06	; 6
    206c:	80 93 44 01 	sts	0x0144, r24	; 0x800144 <disp_DOW+0xf>
    2070:	87 e0       	ldi	r24, 0x07	; 7
    2072:	80 93 47 01 	sts	0x0147, r24	; 0x800147 <disp_DOW+0x12>
    2076:	80 91 8d 03 	lds	r24, 0x038D	; 0x80038d <cur_DOW_RAM>
    207a:	90 e0       	ldi	r25, 0x00	; 0
    207c:	fc 01       	movw	r30, r24
    207e:	ee 0f       	add	r30, r30
    2080:	ff 1f       	adc	r31, r31
    2082:	8e 0f       	add	r24, r30
    2084:	9f 1f       	adc	r25, r31
    2086:	fc 01       	movw	r30, r24
    2088:	eb 5c       	subi	r30, 0xCB	; 203
    208a:	fe 4f       	sbci	r31, 0xFE	; 254
    208c:	10 82       	st	Z, r1
    208e:	80 91 8e 03 	lds	r24, 0x038E	; 0x80038e <per_dat_RAM>
    2092:	90 91 8f 03 	lds	r25, 0x038F	; 0x80038f <per_dat_RAM+0x1>
    2096:	68 ee       	ldi	r22, 0xE8	; 232
    2098:	73 e0       	ldi	r23, 0x03	; 3
    209a:	0e 94 b3 28 	call	0x5166	; 0x5166 <__udivmodhi4>
    209e:	60 5d       	subi	r22, 0xD0	; 208
    20a0:	60 93 2b 01 	sts	0x012B, r22	; 0x80012b <per_dat_s>
    20a4:	64 e6       	ldi	r22, 0x64	; 100
    20a6:	70 e0       	ldi	r23, 0x00	; 0
    20a8:	0e 94 b3 28 	call	0x5166	; 0x5166 <__udivmodhi4>
    20ac:	60 5d       	subi	r22, 0xD0	; 208
    20ae:	60 93 2c 01 	sts	0x012C, r22	; 0x80012c <per_dat_s+0x1>
    20b2:	6a e0       	ldi	r22, 0x0A	; 10
    20b4:	70 e0       	ldi	r23, 0x00	; 0
    20b6:	0e 94 b3 28 	call	0x5166	; 0x5166 <__udivmodhi4>
    20ba:	60 5d       	subi	r22, 0xD0	; 208
    20bc:	60 93 2d 01 	sts	0x012D, r22	; 0x80012d <per_dat_s+0x2>
    20c0:	80 5d       	subi	r24, 0xD0	; 208
    20c2:	80 93 2e 01 	sts	0x012E, r24	; 0x80012e <per_dat_s+0x3>
    20c6:	81 e4       	ldi	r24, 0x41	; 65
    20c8:	90 e0       	ldi	r25, 0x00	; 0
    20ca:	0e 94 bb 2b 	call	0x5776	; 0x5776 <eeprom_read_word>
    20ce:	c3 e0       	ldi	r28, 0x03	; 3
    20d0:	d0 e0       	ldi	r29, 0x00	; 0
    20d2:	00 e3       	ldi	r16, 0x30	; 48
    20d4:	11 e0       	ldi	r17, 0x01	; 1
    20d6:	bc 01       	movw	r22, r24
    20d8:	80 e0       	ldi	r24, 0x00	; 0
    20da:	90 e0       	ldi	r25, 0x00	; 0
    20dc:	0e 94 29 26 	call	0x4c52	; 0x4c52 <__floatunsisf>
    20e0:	6b 01       	movw	r12, r22
    20e2:	7c 01       	movw	r14, r24
    20e4:	be 01       	movw	r22, r28
    20e6:	0d 2e       	mov	r0, r29
    20e8:	00 0c       	add	r0, r0
    20ea:	88 0b       	sbc	r24, r24
    20ec:	99 0b       	sbc	r25, r25
    20ee:	0e 94 2b 26 	call	0x4c56	; 0x4c56 <__floatsisf>
    20f2:	9b 01       	movw	r18, r22
    20f4:	ac 01       	movw	r20, r24
    20f6:	60 e0       	ldi	r22, 0x00	; 0
    20f8:	70 e0       	ldi	r23, 0x00	; 0
    20fa:	80 e2       	ldi	r24, 0x20	; 32
    20fc:	91 e4       	ldi	r25, 0x41	; 65
    20fe:	0e 94 1e 27 	call	0x4e3c	; 0x4e3c <pow>
    2102:	4b 01       	movw	r8, r22
    2104:	5c 01       	movw	r10, r24
    2106:	9b 01       	movw	r18, r22
    2108:	ac 01       	movw	r20, r24
    210a:	c7 01       	movw	r24, r14
    210c:	b6 01       	movw	r22, r12
    210e:	0e 94 95 25 	call	0x4b2a	; 0x4b2a <__divsf3>
    2112:	20 e0       	ldi	r18, 0x00	; 0
    2114:	30 e0       	ldi	r19, 0x00	; 0
    2116:	40 e4       	ldi	r20, 0x40	; 64
    2118:	52 e4       	ldi	r21, 0x42	; 66
    211a:	0e 94 31 25 	call	0x4a62	; 0x4a62 <__addsf3>
    211e:	0e 94 fd 25 	call	0x4bfa	; 0x4bfa <__fixunssfsi>
    2122:	f8 01       	movw	r30, r16
    2124:	61 93       	st	Z+, r22
    2126:	8f 01       	movw	r16, r30
    2128:	70 e0       	ldi	r23, 0x00	; 0
    212a:	60 53       	subi	r22, 0x30	; 48
    212c:	71 09       	sbc	r23, r1
    212e:	07 2e       	mov	r0, r23
    2130:	00 0c       	add	r0, r0
    2132:	88 0b       	sbc	r24, r24
    2134:	99 0b       	sbc	r25, r25
    2136:	0e 94 2b 26 	call	0x4c56	; 0x4c56 <__floatsisf>
    213a:	a5 01       	movw	r20, r10
    213c:	94 01       	movw	r18, r8
    213e:	0e 94 bb 26 	call	0x4d76	; 0x4d76 <__mulsf3>
    2142:	9b 01       	movw	r18, r22
    2144:	ac 01       	movw	r20, r24
    2146:	c7 01       	movw	r24, r14
    2148:	b6 01       	movw	r22, r12
    214a:	0e 94 30 25 	call	0x4a60	; 0x4a60 <__subsf3>
    214e:	0e 94 fd 25 	call	0x4bfa	; 0x4bfa <__fixunssfsi>
    2152:	cb 01       	movw	r24, r22
    2154:	21 97       	sbiw	r28, 0x01	; 1
    2156:	08 f0       	brcs	.+2      	; 0x215a <convert_to_show+0x158>
    2158:	be cf       	rjmp	.-132    	; 0x20d6 <convert_to_show+0xd4>
    215a:	ca e3       	ldi	r28, 0x3A	; 58
    215c:	c0 93 60 03 	sts	0x0360, r28	; 0x800360 <time_nach_s+0x2>
    2160:	84 e3       	ldi	r24, 0x34	; 52
    2162:	90 e0       	ldi	r25, 0x00	; 0
    2164:	0e 94 bb 2b 	call	0x5776	; 0x5776 <eeprom_read_word>
    2168:	bc 01       	movw	r22, r24
    216a:	80 e0       	ldi	r24, 0x00	; 0
    216c:	90 e0       	ldi	r25, 0x00	; 0
    216e:	0e 94 29 26 	call	0x4c52	; 0x4c52 <__floatunsisf>
    2172:	6b 01       	movw	r12, r22
    2174:	7c 01       	movw	r14, r24
    2176:	20 e0       	ldi	r18, 0x00	; 0
    2178:	30 e0       	ldi	r19, 0x00	; 0
    217a:	40 e2       	ldi	r20, 0x20	; 32
    217c:	51 e4       	ldi	r21, 0x41	; 65
    217e:	0e 94 95 25 	call	0x4b2a	; 0x4b2a <__divsf3>
    2182:	20 e0       	ldi	r18, 0x00	; 0
    2184:	30 e0       	ldi	r19, 0x00	; 0
    2186:	40 e4       	ldi	r20, 0x40	; 64
    2188:	52 e4       	ldi	r21, 0x42	; 66
    218a:	0e 94 31 25 	call	0x4a62	; 0x4a62 <__addsf3>
    218e:	0e 94 fd 25 	call	0x4bfa	; 0x4bfa <__fixunssfsi>
    2192:	60 93 5e 03 	sts	0x035E, r22	; 0x80035e <time_nach_s>
    2196:	86 2f       	mov	r24, r22
    2198:	90 e0       	ldi	r25, 0x00	; 0
    219a:	c0 97       	sbiw	r24, 0x30	; 48
    219c:	bc 01       	movw	r22, r24
    219e:	99 0f       	add	r25, r25
    21a0:	88 0b       	sbc	r24, r24
    21a2:	99 0b       	sbc	r25, r25
    21a4:	0e 94 2b 26 	call	0x4c56	; 0x4c56 <__floatsisf>
    21a8:	20 e0       	ldi	r18, 0x00	; 0
    21aa:	30 e0       	ldi	r19, 0x00	; 0
    21ac:	40 e2       	ldi	r20, 0x20	; 32
    21ae:	51 e4       	ldi	r21, 0x41	; 65
    21b0:	0e 94 bb 26 	call	0x4d76	; 0x4d76 <__mulsf3>
    21b4:	9b 01       	movw	r18, r22
    21b6:	ac 01       	movw	r20, r24
    21b8:	c7 01       	movw	r24, r14
    21ba:	b6 01       	movw	r22, r12
    21bc:	0e 94 30 25 	call	0x4a60	; 0x4a60 <__subsf3>
    21c0:	0e 94 fd 25 	call	0x4bfa	; 0x4bfa <__fixunssfsi>
    21c4:	80 e0       	ldi	r24, 0x00	; 0
    21c6:	90 e0       	ldi	r25, 0x00	; 0
    21c8:	0e 94 29 26 	call	0x4c52	; 0x4c52 <__floatunsisf>
    21cc:	20 e0       	ldi	r18, 0x00	; 0
    21ce:	30 e0       	ldi	r19, 0x00	; 0
    21d0:	40 e4       	ldi	r20, 0x40	; 64
    21d2:	52 e4       	ldi	r21, 0x42	; 66
    21d4:	0e 94 31 25 	call	0x4a62	; 0x4a62 <__addsf3>
    21d8:	0e 94 fd 25 	call	0x4bfa	; 0x4bfa <__fixunssfsi>
    21dc:	60 93 5f 03 	sts	0x035F, r22	; 0x80035f <time_nach_s+0x1>
    21e0:	86 e3       	ldi	r24, 0x36	; 54
    21e2:	90 e0       	ldi	r25, 0x00	; 0
    21e4:	0e 94 bb 2b 	call	0x5776	; 0x5776 <eeprom_read_word>
    21e8:	bc 01       	movw	r22, r24
    21ea:	80 e0       	ldi	r24, 0x00	; 0
    21ec:	90 e0       	ldi	r25, 0x00	; 0
    21ee:	0e 94 29 26 	call	0x4c52	; 0x4c52 <__floatunsisf>
    21f2:	6b 01       	movw	r12, r22
    21f4:	7c 01       	movw	r14, r24
    21f6:	20 e0       	ldi	r18, 0x00	; 0
    21f8:	30 e0       	ldi	r19, 0x00	; 0
    21fa:	40 e2       	ldi	r20, 0x20	; 32
    21fc:	51 e4       	ldi	r21, 0x41	; 65
    21fe:	0e 94 95 25 	call	0x4b2a	; 0x4b2a <__divsf3>
    2202:	20 e0       	ldi	r18, 0x00	; 0
    2204:	30 e0       	ldi	r19, 0x00	; 0
    2206:	40 e4       	ldi	r20, 0x40	; 64
    2208:	52 e4       	ldi	r21, 0x42	; 66
    220a:	0e 94 31 25 	call	0x4a62	; 0x4a62 <__addsf3>
    220e:	0e 94 fd 25 	call	0x4bfa	; 0x4bfa <__fixunssfsi>
    2212:	60 93 61 03 	sts	0x0361, r22	; 0x800361 <time_nach_s+0x3>
    2216:	86 2f       	mov	r24, r22
    2218:	90 e0       	ldi	r25, 0x00	; 0
    221a:	c0 97       	sbiw	r24, 0x30	; 48
    221c:	bc 01       	movw	r22, r24
    221e:	99 0f       	add	r25, r25
    2220:	88 0b       	sbc	r24, r24
    2222:	99 0b       	sbc	r25, r25
    2224:	0e 94 2b 26 	call	0x4c56	; 0x4c56 <__floatsisf>
    2228:	20 e0       	ldi	r18, 0x00	; 0
    222a:	30 e0       	ldi	r19, 0x00	; 0
    222c:	40 e2       	ldi	r20, 0x20	; 32
    222e:	51 e4       	ldi	r21, 0x41	; 65
    2230:	0e 94 bb 26 	call	0x4d76	; 0x4d76 <__mulsf3>
    2234:	9b 01       	movw	r18, r22
    2236:	ac 01       	movw	r20, r24
    2238:	c7 01       	movw	r24, r14
    223a:	b6 01       	movw	r22, r12
    223c:	0e 94 30 25 	call	0x4a60	; 0x4a60 <__subsf3>
    2240:	0e 94 fd 25 	call	0x4bfa	; 0x4bfa <__fixunssfsi>
    2244:	80 e0       	ldi	r24, 0x00	; 0
    2246:	90 e0       	ldi	r25, 0x00	; 0
    2248:	0e 94 29 26 	call	0x4c52	; 0x4c52 <__floatunsisf>
    224c:	20 e0       	ldi	r18, 0x00	; 0
    224e:	30 e0       	ldi	r19, 0x00	; 0
    2250:	40 e4       	ldi	r20, 0x40	; 64
    2252:	52 e4       	ldi	r21, 0x42	; 66
    2254:	0e 94 31 25 	call	0x4a62	; 0x4a62 <__addsf3>
    2258:	0e 94 fd 25 	call	0x4bfa	; 0x4bfa <__fixunssfsi>
    225c:	60 93 62 03 	sts	0x0362, r22	; 0x800362 <time_nach_s+0x4>
    2260:	c0 93 d1 04 	sts	0x04D1, r28	; 0x8004d1 <time_kon_s+0x2>
    2264:	80 e3       	ldi	r24, 0x30	; 48
    2266:	90 e0       	ldi	r25, 0x00	; 0
    2268:	0e 94 bb 2b 	call	0x5776	; 0x5776 <eeprom_read_word>
    226c:	bc 01       	movw	r22, r24
    226e:	80 e0       	ldi	r24, 0x00	; 0
    2270:	90 e0       	ldi	r25, 0x00	; 0
    2272:	0e 94 29 26 	call	0x4c52	; 0x4c52 <__floatunsisf>
    2276:	6b 01       	movw	r12, r22
    2278:	7c 01       	movw	r14, r24
    227a:	20 e0       	ldi	r18, 0x00	; 0
    227c:	30 e0       	ldi	r19, 0x00	; 0
    227e:	40 e2       	ldi	r20, 0x20	; 32
    2280:	51 e4       	ldi	r21, 0x41	; 65
    2282:	0e 94 95 25 	call	0x4b2a	; 0x4b2a <__divsf3>
    2286:	20 e0       	ldi	r18, 0x00	; 0
    2288:	30 e0       	ldi	r19, 0x00	; 0
    228a:	40 e4       	ldi	r20, 0x40	; 64
    228c:	52 e4       	ldi	r21, 0x42	; 66
    228e:	0e 94 31 25 	call	0x4a62	; 0x4a62 <__addsf3>
    2292:	0e 94 fd 25 	call	0x4bfa	; 0x4bfa <__fixunssfsi>
    2296:	60 93 cf 04 	sts	0x04CF, r22	; 0x8004cf <time_kon_s>
    229a:	86 2f       	mov	r24, r22
    229c:	90 e0       	ldi	r25, 0x00	; 0
    229e:	c0 97       	sbiw	r24, 0x30	; 48
    22a0:	bc 01       	movw	r22, r24
    22a2:	99 0f       	add	r25, r25
    22a4:	88 0b       	sbc	r24, r24
    22a6:	99 0b       	sbc	r25, r25
    22a8:	0e 94 2b 26 	call	0x4c56	; 0x4c56 <__floatsisf>
    22ac:	20 e0       	ldi	r18, 0x00	; 0
    22ae:	30 e0       	ldi	r19, 0x00	; 0
    22b0:	40 e2       	ldi	r20, 0x20	; 32
    22b2:	51 e4       	ldi	r21, 0x41	; 65
    22b4:	0e 94 bb 26 	call	0x4d76	; 0x4d76 <__mulsf3>
    22b8:	9b 01       	movw	r18, r22
    22ba:	ac 01       	movw	r20, r24
    22bc:	c7 01       	movw	r24, r14
    22be:	b6 01       	movw	r22, r12
    22c0:	0e 94 30 25 	call	0x4a60	; 0x4a60 <__subsf3>
    22c4:	0e 94 fd 25 	call	0x4bfa	; 0x4bfa <__fixunssfsi>
    22c8:	80 e0       	ldi	r24, 0x00	; 0
    22ca:	90 e0       	ldi	r25, 0x00	; 0
    22cc:	0e 94 29 26 	call	0x4c52	; 0x4c52 <__floatunsisf>
    22d0:	20 e0       	ldi	r18, 0x00	; 0
    22d2:	30 e0       	ldi	r19, 0x00	; 0
    22d4:	40 e4       	ldi	r20, 0x40	; 64
    22d6:	52 e4       	ldi	r21, 0x42	; 66
    22d8:	0e 94 31 25 	call	0x4a62	; 0x4a62 <__addsf3>
    22dc:	0e 94 fd 25 	call	0x4bfa	; 0x4bfa <__fixunssfsi>
    22e0:	60 93 d0 04 	sts	0x04D0, r22	; 0x8004d0 <time_kon_s+0x1>
    22e4:	82 e3       	ldi	r24, 0x32	; 50
    22e6:	90 e0       	ldi	r25, 0x00	; 0
    22e8:	0e 94 bb 2b 	call	0x5776	; 0x5776 <eeprom_read_word>
    22ec:	bc 01       	movw	r22, r24
    22ee:	80 e0       	ldi	r24, 0x00	; 0
    22f0:	90 e0       	ldi	r25, 0x00	; 0
    22f2:	0e 94 29 26 	call	0x4c52	; 0x4c52 <__floatunsisf>
    22f6:	6b 01       	movw	r12, r22
    22f8:	7c 01       	movw	r14, r24
    22fa:	20 e0       	ldi	r18, 0x00	; 0
    22fc:	30 e0       	ldi	r19, 0x00	; 0
    22fe:	40 e2       	ldi	r20, 0x20	; 32
    2300:	51 e4       	ldi	r21, 0x41	; 65
    2302:	0e 94 95 25 	call	0x4b2a	; 0x4b2a <__divsf3>
    2306:	20 e0       	ldi	r18, 0x00	; 0
    2308:	30 e0       	ldi	r19, 0x00	; 0
    230a:	40 e4       	ldi	r20, 0x40	; 64
    230c:	52 e4       	ldi	r21, 0x42	; 66
    230e:	0e 94 31 25 	call	0x4a62	; 0x4a62 <__addsf3>
    2312:	0e 94 fd 25 	call	0x4bfa	; 0x4bfa <__fixunssfsi>
    2316:	60 93 d2 04 	sts	0x04D2, r22	; 0x8004d2 <time_kon_s+0x3>
    231a:	86 2f       	mov	r24, r22
    231c:	90 e0       	ldi	r25, 0x00	; 0
    231e:	c0 97       	sbiw	r24, 0x30	; 48
    2320:	bc 01       	movw	r22, r24
    2322:	99 0f       	add	r25, r25
    2324:	88 0b       	sbc	r24, r24
    2326:	99 0b       	sbc	r25, r25
    2328:	0e 94 2b 26 	call	0x4c56	; 0x4c56 <__floatsisf>
    232c:	20 e0       	ldi	r18, 0x00	; 0
    232e:	30 e0       	ldi	r19, 0x00	; 0
    2330:	40 e2       	ldi	r20, 0x20	; 32
    2332:	51 e4       	ldi	r21, 0x41	; 65
    2334:	0e 94 bb 26 	call	0x4d76	; 0x4d76 <__mulsf3>
    2338:	9b 01       	movw	r18, r22
    233a:	ac 01       	movw	r20, r24
    233c:	c7 01       	movw	r24, r14
    233e:	b6 01       	movw	r22, r12
    2340:	0e 94 30 25 	call	0x4a60	; 0x4a60 <__subsf3>
    2344:	0e 94 fd 25 	call	0x4bfa	; 0x4bfa <__fixunssfsi>
    2348:	80 e0       	ldi	r24, 0x00	; 0
    234a:	90 e0       	ldi	r25, 0x00	; 0
    234c:	0e 94 29 26 	call	0x4c52	; 0x4c52 <__floatunsisf>
    2350:	20 e0       	ldi	r18, 0x00	; 0
    2352:	30 e0       	ldi	r19, 0x00	; 0
    2354:	40 e4       	ldi	r20, 0x40	; 64
    2356:	52 e4       	ldi	r21, 0x42	; 66
    2358:	0e 94 31 25 	call	0x4a62	; 0x4a62 <__addsf3>
    235c:	0e 94 fd 25 	call	0x4bfa	; 0x4bfa <__fixunssfsi>
    2360:	60 93 d3 04 	sts	0x04D3, r22	; 0x8004d3 <time_kon_s+0x4>
    2364:	8a e2       	ldi	r24, 0x2A	; 42
    2366:	90 e0       	ldi	r25, 0x00	; 0
    2368:	0e 94 bb 2b 	call	0x5776	; 0x5776 <eeprom_read_word>
    236c:	bc 01       	movw	r22, r24
    236e:	80 e0       	ldi	r24, 0x00	; 0
    2370:	90 e0       	ldi	r25, 0x00	; 0
    2372:	0e 94 29 26 	call	0x4c52	; 0x4c52 <__floatunsisf>
    2376:	6b 01       	movw	r12, r22
    2378:	7c 01       	movw	r14, r24
    237a:	20 e0       	ldi	r18, 0x00	; 0
    237c:	30 e0       	ldi	r19, 0x00	; 0
    237e:	40 e2       	ldi	r20, 0x20	; 32
    2380:	51 e4       	ldi	r21, 0x41	; 65
    2382:	0e 94 95 25 	call	0x4b2a	; 0x4b2a <__divsf3>
    2386:	20 e0       	ldi	r18, 0x00	; 0
    2388:	30 e0       	ldi	r19, 0x00	; 0
    238a:	40 e4       	ldi	r20, 0x40	; 64
    238c:	52 e4       	ldi	r21, 0x42	; 66
    238e:	0e 94 31 25 	call	0x4a62	; 0x4a62 <__addsf3>
    2392:	0e 94 fd 25 	call	0x4bfa	; 0x4bfa <__fixunssfsi>
    2396:	60 93 2c 03 	sts	0x032C, r22	; 0x80032c <temp_den_s>
    239a:	86 2f       	mov	r24, r22
    239c:	90 e0       	ldi	r25, 0x00	; 0
    239e:	c0 97       	sbiw	r24, 0x30	; 48
    23a0:	bc 01       	movw	r22, r24
    23a2:	99 0f       	add	r25, r25
    23a4:	88 0b       	sbc	r24, r24
    23a6:	99 0b       	sbc	r25, r25
    23a8:	0e 94 2b 26 	call	0x4c56	; 0x4c56 <__floatsisf>
    23ac:	20 e0       	ldi	r18, 0x00	; 0
    23ae:	30 e0       	ldi	r19, 0x00	; 0
    23b0:	40 e2       	ldi	r20, 0x20	; 32
    23b2:	51 e4       	ldi	r21, 0x41	; 65
    23b4:	0e 94 bb 26 	call	0x4d76	; 0x4d76 <__mulsf3>
    23b8:	9b 01       	movw	r18, r22
    23ba:	ac 01       	movw	r20, r24
    23bc:	c7 01       	movw	r24, r14
    23be:	b6 01       	movw	r22, r12
    23c0:	0e 94 30 25 	call	0x4a60	; 0x4a60 <__subsf3>
    23c4:	0e 94 fd 25 	call	0x4bfa	; 0x4bfa <__fixunssfsi>
    23c8:	80 e0       	ldi	r24, 0x00	; 0
    23ca:	90 e0       	ldi	r25, 0x00	; 0
    23cc:	0e 94 29 26 	call	0x4c52	; 0x4c52 <__floatunsisf>
    23d0:	20 e0       	ldi	r18, 0x00	; 0
    23d2:	30 e0       	ldi	r19, 0x00	; 0
    23d4:	40 e4       	ldi	r20, 0x40	; 64
    23d6:	52 e4       	ldi	r21, 0x42	; 66
    23d8:	0e 94 31 25 	call	0x4a62	; 0x4a62 <__addsf3>
    23dc:	0e 94 fd 25 	call	0x4bfa	; 0x4bfa <__fixunssfsi>
    23e0:	60 93 2d 03 	sts	0x032D, r22	; 0x80032d <temp_den_s+0x1>
    23e4:	8c e2       	ldi	r24, 0x2C	; 44
    23e6:	90 e0       	ldi	r25, 0x00	; 0
    23e8:	0e 94 bb 2b 	call	0x5776	; 0x5776 <eeprom_read_word>
    23ec:	bc 01       	movw	r22, r24
    23ee:	80 e0       	ldi	r24, 0x00	; 0
    23f0:	90 e0       	ldi	r25, 0x00	; 0
    23f2:	0e 94 29 26 	call	0x4c52	; 0x4c52 <__floatunsisf>
    23f6:	6b 01       	movw	r12, r22
    23f8:	7c 01       	movw	r14, r24
    23fa:	20 e0       	ldi	r18, 0x00	; 0
    23fc:	30 e0       	ldi	r19, 0x00	; 0
    23fe:	40 e2       	ldi	r20, 0x20	; 32
    2400:	51 e4       	ldi	r21, 0x41	; 65
    2402:	0e 94 95 25 	call	0x4b2a	; 0x4b2a <__divsf3>
    2406:	20 e0       	ldi	r18, 0x00	; 0
    2408:	30 e0       	ldi	r19, 0x00	; 0
    240a:	40 e4       	ldi	r20, 0x40	; 64
    240c:	52 e4       	ldi	r21, 0x42	; 66
    240e:	0e 94 31 25 	call	0x4a62	; 0x4a62 <__addsf3>
    2412:	0e 94 fd 25 	call	0x4bfa	; 0x4bfa <__fixunssfsi>
    2416:	60 93 2e 03 	sts	0x032E, r22	; 0x80032e <temp_den_s+0x2>
    241a:	86 2f       	mov	r24, r22
    241c:	90 e0       	ldi	r25, 0x00	; 0
    241e:	c0 97       	sbiw	r24, 0x30	; 48
    2420:	bc 01       	movw	r22, r24
    2422:	99 0f       	add	r25, r25
    2424:	88 0b       	sbc	r24, r24
    2426:	99 0b       	sbc	r25, r25
    2428:	0e 94 2b 26 	call	0x4c56	; 0x4c56 <__floatsisf>
    242c:	20 e0       	ldi	r18, 0x00	; 0
    242e:	30 e0       	ldi	r19, 0x00	; 0
    2430:	40 e2       	ldi	r20, 0x20	; 32
    2432:	51 e4       	ldi	r21, 0x41	; 65
    2434:	0e 94 bb 26 	call	0x4d76	; 0x4d76 <__mulsf3>
    2438:	9b 01       	movw	r18, r22
    243a:	ac 01       	movw	r20, r24
    243c:	c7 01       	movw	r24, r14
    243e:	b6 01       	movw	r22, r12
    2440:	0e 94 30 25 	call	0x4a60	; 0x4a60 <__subsf3>
    2444:	0e 94 fd 25 	call	0x4bfa	; 0x4bfa <__fixunssfsi>
    2448:	80 e0       	ldi	r24, 0x00	; 0
    244a:	90 e0       	ldi	r25, 0x00	; 0
    244c:	0e 94 29 26 	call	0x4c52	; 0x4c52 <__floatunsisf>
    2450:	20 e0       	ldi	r18, 0x00	; 0
    2452:	30 e0       	ldi	r19, 0x00	; 0
    2454:	40 e4       	ldi	r20, 0x40	; 64
    2456:	52 e4       	ldi	r21, 0x42	; 66
    2458:	0e 94 31 25 	call	0x4a62	; 0x4a62 <__addsf3>
    245c:	0e 94 fd 25 	call	0x4bfa	; 0x4bfa <__fixunssfsi>
    2460:	60 93 2f 03 	sts	0x032F, r22	; 0x80032f <temp_den_s+0x3>
    2464:	8e e2       	ldi	r24, 0x2E	; 46
    2466:	90 e0       	ldi	r25, 0x00	; 0
    2468:	0e 94 bb 2b 	call	0x5776	; 0x5776 <eeprom_read_word>
    246c:	bc 01       	movw	r22, r24
    246e:	80 e0       	ldi	r24, 0x00	; 0
    2470:	90 e0       	ldi	r25, 0x00	; 0
    2472:	0e 94 29 26 	call	0x4c52	; 0x4c52 <__floatunsisf>
    2476:	6b 01       	movw	r12, r22
    2478:	7c 01       	movw	r14, r24
    247a:	20 e0       	ldi	r18, 0x00	; 0
    247c:	30 e0       	ldi	r19, 0x00	; 0
    247e:	40 e2       	ldi	r20, 0x20	; 32
    2480:	51 e4       	ldi	r21, 0x41	; 65
    2482:	0e 94 95 25 	call	0x4b2a	; 0x4b2a <__divsf3>
    2486:	20 e0       	ldi	r18, 0x00	; 0
    2488:	30 e0       	ldi	r19, 0x00	; 0
    248a:	40 e4       	ldi	r20, 0x40	; 64
    248c:	52 e4       	ldi	r21, 0x42	; 66
    248e:	0e 94 31 25 	call	0x4a62	; 0x4a62 <__addsf3>
    2492:	0e 94 fd 25 	call	0x4bfa	; 0x4bfa <__fixunssfsi>
    2496:	60 93 30 03 	sts	0x0330, r22	; 0x800330 <temp_den_s+0x4>
    249a:	86 2f       	mov	r24, r22
    249c:	90 e0       	ldi	r25, 0x00	; 0
    249e:	c0 97       	sbiw	r24, 0x30	; 48
    24a0:	bc 01       	movw	r22, r24
    24a2:	99 0f       	add	r25, r25
    24a4:	88 0b       	sbc	r24, r24
    24a6:	99 0b       	sbc	r25, r25
    24a8:	0e 94 2b 26 	call	0x4c56	; 0x4c56 <__floatsisf>
    24ac:	20 e0       	ldi	r18, 0x00	; 0
    24ae:	30 e0       	ldi	r19, 0x00	; 0
    24b0:	40 e2       	ldi	r20, 0x20	; 32
    24b2:	51 e4       	ldi	r21, 0x41	; 65
    24b4:	0e 94 bb 26 	call	0x4d76	; 0x4d76 <__mulsf3>
    24b8:	9b 01       	movw	r18, r22
    24ba:	ac 01       	movw	r20, r24
    24bc:	c7 01       	movw	r24, r14
    24be:	b6 01       	movw	r22, r12
    24c0:	0e 94 30 25 	call	0x4a60	; 0x4a60 <__subsf3>
    24c4:	0e 94 fd 25 	call	0x4bfa	; 0x4bfa <__fixunssfsi>
    24c8:	80 e0       	ldi	r24, 0x00	; 0
    24ca:	90 e0       	ldi	r25, 0x00	; 0
    24cc:	0e 94 29 26 	call	0x4c52	; 0x4c52 <__floatunsisf>
    24d0:	20 e0       	ldi	r18, 0x00	; 0
    24d2:	30 e0       	ldi	r19, 0x00	; 0
    24d4:	40 e4       	ldi	r20, 0x40	; 64
    24d6:	52 e4       	ldi	r21, 0x42	; 66
    24d8:	0e 94 31 25 	call	0x4a62	; 0x4a62 <__addsf3>
    24dc:	0e 94 fd 25 	call	0x4bfa	; 0x4bfa <__fixunssfsi>
    24e0:	60 93 31 03 	sts	0x0331, r22	; 0x800331 <temp_den_s+0x5>
    24e4:	84 e2       	ldi	r24, 0x24	; 36
    24e6:	90 e0       	ldi	r25, 0x00	; 0
    24e8:	0e 94 bb 2b 	call	0x5776	; 0x5776 <eeprom_read_word>
    24ec:	bc 01       	movw	r22, r24
    24ee:	80 e0       	ldi	r24, 0x00	; 0
    24f0:	90 e0       	ldi	r25, 0x00	; 0
    24f2:	0e 94 29 26 	call	0x4c52	; 0x4c52 <__floatunsisf>
    24f6:	6b 01       	movw	r12, r22
    24f8:	7c 01       	movw	r14, r24
    24fa:	20 e0       	ldi	r18, 0x00	; 0
    24fc:	30 e0       	ldi	r19, 0x00	; 0
    24fe:	40 e2       	ldi	r20, 0x20	; 32
    2500:	51 e4       	ldi	r21, 0x41	; 65
    2502:	0e 94 95 25 	call	0x4b2a	; 0x4b2a <__divsf3>
    2506:	20 e0       	ldi	r18, 0x00	; 0
    2508:	30 e0       	ldi	r19, 0x00	; 0
    250a:	40 e4       	ldi	r20, 0x40	; 64
    250c:	52 e4       	ldi	r21, 0x42	; 66
    250e:	0e 94 31 25 	call	0x4a62	; 0x4a62 <__addsf3>
    2512:	0e 94 fd 25 	call	0x4bfa	; 0x4bfa <__fixunssfsi>
    2516:	60 93 d4 04 	sts	0x04D4, r22	; 0x8004d4 <temp_noch_s>
    251a:	86 2f       	mov	r24, r22
    251c:	90 e0       	ldi	r25, 0x00	; 0
    251e:	c0 97       	sbiw	r24, 0x30	; 48
    2520:	bc 01       	movw	r22, r24
    2522:	99 0f       	add	r25, r25
    2524:	88 0b       	sbc	r24, r24
    2526:	99 0b       	sbc	r25, r25
    2528:	0e 94 2b 26 	call	0x4c56	; 0x4c56 <__floatsisf>
    252c:	20 e0       	ldi	r18, 0x00	; 0
    252e:	30 e0       	ldi	r19, 0x00	; 0
    2530:	40 e2       	ldi	r20, 0x20	; 32
    2532:	51 e4       	ldi	r21, 0x41	; 65
    2534:	0e 94 bb 26 	call	0x4d76	; 0x4d76 <__mulsf3>
    2538:	9b 01       	movw	r18, r22
    253a:	ac 01       	movw	r20, r24
    253c:	c7 01       	movw	r24, r14
    253e:	b6 01       	movw	r22, r12
    2540:	0e 94 30 25 	call	0x4a60	; 0x4a60 <__subsf3>
    2544:	0e 94 fd 25 	call	0x4bfa	; 0x4bfa <__fixunssfsi>
    2548:	80 e0       	ldi	r24, 0x00	; 0
    254a:	90 e0       	ldi	r25, 0x00	; 0
    254c:	0e 94 29 26 	call	0x4c52	; 0x4c52 <__floatunsisf>
    2550:	20 e0       	ldi	r18, 0x00	; 0
    2552:	30 e0       	ldi	r19, 0x00	; 0
    2554:	40 e4       	ldi	r20, 0x40	; 64
    2556:	52 e4       	ldi	r21, 0x42	; 66
    2558:	0e 94 31 25 	call	0x4a62	; 0x4a62 <__addsf3>
    255c:	0e 94 fd 25 	call	0x4bfa	; 0x4bfa <__fixunssfsi>
    2560:	60 93 d5 04 	sts	0x04D5, r22	; 0x8004d5 <temp_noch_s+0x1>
    2564:	86 e2       	ldi	r24, 0x26	; 38
    2566:	90 e0       	ldi	r25, 0x00	; 0
    2568:	0e 94 bb 2b 	call	0x5776	; 0x5776 <eeprom_read_word>
    256c:	bc 01       	movw	r22, r24
    256e:	80 e0       	ldi	r24, 0x00	; 0
    2570:	90 e0       	ldi	r25, 0x00	; 0
    2572:	0e 94 29 26 	call	0x4c52	; 0x4c52 <__floatunsisf>
    2576:	6b 01       	movw	r12, r22
    2578:	7c 01       	movw	r14, r24
    257a:	20 e0       	ldi	r18, 0x00	; 0
    257c:	30 e0       	ldi	r19, 0x00	; 0
    257e:	40 e2       	ldi	r20, 0x20	; 32
    2580:	51 e4       	ldi	r21, 0x41	; 65
    2582:	0e 94 95 25 	call	0x4b2a	; 0x4b2a <__divsf3>
    2586:	20 e0       	ldi	r18, 0x00	; 0
    2588:	30 e0       	ldi	r19, 0x00	; 0
    258a:	40 e4       	ldi	r20, 0x40	; 64
    258c:	52 e4       	ldi	r21, 0x42	; 66
    258e:	0e 94 31 25 	call	0x4a62	; 0x4a62 <__addsf3>
    2592:	0e 94 fd 25 	call	0x4bfa	; 0x4bfa <__fixunssfsi>
    2596:	60 93 d6 04 	sts	0x04D6, r22	; 0x8004d6 <temp_noch_s+0x2>
    259a:	86 2f       	mov	r24, r22
    259c:	90 e0       	ldi	r25, 0x00	; 0
    259e:	c0 97       	sbiw	r24, 0x30	; 48
    25a0:	bc 01       	movw	r22, r24
    25a2:	99 0f       	add	r25, r25
    25a4:	88 0b       	sbc	r24, r24
    25a6:	99 0b       	sbc	r25, r25
    25a8:	0e 94 2b 26 	call	0x4c56	; 0x4c56 <__floatsisf>
    25ac:	20 e0       	ldi	r18, 0x00	; 0
    25ae:	30 e0       	ldi	r19, 0x00	; 0
    25b0:	40 e2       	ldi	r20, 0x20	; 32
    25b2:	51 e4       	ldi	r21, 0x41	; 65
    25b4:	0e 94 bb 26 	call	0x4d76	; 0x4d76 <__mulsf3>
    25b8:	9b 01       	movw	r18, r22
    25ba:	ac 01       	movw	r20, r24
    25bc:	c7 01       	movw	r24, r14
    25be:	b6 01       	movw	r22, r12
    25c0:	0e 94 30 25 	call	0x4a60	; 0x4a60 <__subsf3>
    25c4:	0e 94 fd 25 	call	0x4bfa	; 0x4bfa <__fixunssfsi>
    25c8:	80 e0       	ldi	r24, 0x00	; 0
    25ca:	90 e0       	ldi	r25, 0x00	; 0
    25cc:	0e 94 29 26 	call	0x4c52	; 0x4c52 <__floatunsisf>
    25d0:	20 e0       	ldi	r18, 0x00	; 0
    25d2:	30 e0       	ldi	r19, 0x00	; 0
    25d4:	40 e4       	ldi	r20, 0x40	; 64
    25d6:	52 e4       	ldi	r21, 0x42	; 66
    25d8:	0e 94 31 25 	call	0x4a62	; 0x4a62 <__addsf3>
    25dc:	0e 94 fd 25 	call	0x4bfa	; 0x4bfa <__fixunssfsi>
    25e0:	60 93 d7 04 	sts	0x04D7, r22	; 0x8004d7 <temp_noch_s+0x3>
    25e4:	88 e2       	ldi	r24, 0x28	; 40
    25e6:	90 e0       	ldi	r25, 0x00	; 0
    25e8:	0e 94 bb 2b 	call	0x5776	; 0x5776 <eeprom_read_word>
    25ec:	bc 01       	movw	r22, r24
    25ee:	80 e0       	ldi	r24, 0x00	; 0
    25f0:	90 e0       	ldi	r25, 0x00	; 0
    25f2:	0e 94 29 26 	call	0x4c52	; 0x4c52 <__floatunsisf>
    25f6:	6b 01       	movw	r12, r22
    25f8:	7c 01       	movw	r14, r24
    25fa:	20 e0       	ldi	r18, 0x00	; 0
    25fc:	30 e0       	ldi	r19, 0x00	; 0
    25fe:	40 e2       	ldi	r20, 0x20	; 32
    2600:	51 e4       	ldi	r21, 0x41	; 65
    2602:	0e 94 95 25 	call	0x4b2a	; 0x4b2a <__divsf3>
    2606:	20 e0       	ldi	r18, 0x00	; 0
    2608:	30 e0       	ldi	r19, 0x00	; 0
    260a:	40 e4       	ldi	r20, 0x40	; 64
    260c:	52 e4       	ldi	r21, 0x42	; 66
    260e:	0e 94 31 25 	call	0x4a62	; 0x4a62 <__addsf3>
    2612:	0e 94 fd 25 	call	0x4bfa	; 0x4bfa <__fixunssfsi>
    2616:	60 93 d8 04 	sts	0x04D8, r22	; 0x8004d8 <temp_noch_s+0x4>
    261a:	86 2f       	mov	r24, r22
    261c:	90 e0       	ldi	r25, 0x00	; 0
    261e:	c0 97       	sbiw	r24, 0x30	; 48
    2620:	bc 01       	movw	r22, r24
    2622:	99 0f       	add	r25, r25
    2624:	88 0b       	sbc	r24, r24
    2626:	99 0b       	sbc	r25, r25
    2628:	0e 94 2b 26 	call	0x4c56	; 0x4c56 <__floatsisf>
    262c:	20 e0       	ldi	r18, 0x00	; 0
    262e:	30 e0       	ldi	r19, 0x00	; 0
    2630:	40 e2       	ldi	r20, 0x20	; 32
    2632:	51 e4       	ldi	r21, 0x41	; 65
    2634:	0e 94 bb 26 	call	0x4d76	; 0x4d76 <__mulsf3>
    2638:	9b 01       	movw	r18, r22
    263a:	ac 01       	movw	r20, r24
    263c:	c7 01       	movw	r24, r14
    263e:	b6 01       	movw	r22, r12
    2640:	0e 94 30 25 	call	0x4a60	; 0x4a60 <__subsf3>
    2644:	0e 94 fd 25 	call	0x4bfa	; 0x4bfa <__fixunssfsi>
    2648:	80 e0       	ldi	r24, 0x00	; 0
    264a:	90 e0       	ldi	r25, 0x00	; 0
    264c:	0e 94 29 26 	call	0x4c52	; 0x4c52 <__floatunsisf>
    2650:	20 e0       	ldi	r18, 0x00	; 0
    2652:	30 e0       	ldi	r19, 0x00	; 0
    2654:	40 e4       	ldi	r20, 0x40	; 64
    2656:	52 e4       	ldi	r21, 0x42	; 66
    2658:	0e 94 31 25 	call	0x4a62	; 0x4a62 <__addsf3>
    265c:	0e 94 fd 25 	call	0x4bfa	; 0x4bfa <__fixunssfsi>
    2660:	60 93 d9 04 	sts	0x04D9, r22	; 0x8004d9 <temp_noch_s+0x5>
    2664:	88 e1       	ldi	r24, 0x18	; 24
    2666:	90 e0       	ldi	r25, 0x00	; 0
    2668:	0e 94 b6 2b 	call	0x576c	; 0x576c <eeprom_read_dword>
    266c:	c5 e0       	ldi	r28, 0x05	; 5
    266e:	d0 e0       	ldi	r29, 0x00	; 0
    2670:	06 e1       	ldi	r16, 0x16	; 22
    2672:	11 e0       	ldi	r17, 0x01	; 1
    2674:	0e 94 29 26 	call	0x4c52	; 0x4c52 <__floatunsisf>
    2678:	6b 01       	movw	r12, r22
    267a:	7c 01       	movw	r14, r24
    267c:	be 01       	movw	r22, r28
    267e:	0d 2e       	mov	r0, r29
    2680:	00 0c       	add	r0, r0
    2682:	88 0b       	sbc	r24, r24
    2684:	99 0b       	sbc	r25, r25
    2686:	0e 94 2b 26 	call	0x4c56	; 0x4c56 <__floatsisf>
    268a:	9b 01       	movw	r18, r22
    268c:	ac 01       	movw	r20, r24
    268e:	60 e0       	ldi	r22, 0x00	; 0
    2690:	70 e0       	ldi	r23, 0x00	; 0
    2692:	80 e2       	ldi	r24, 0x20	; 32
    2694:	91 e4       	ldi	r25, 0x41	; 65
    2696:	0e 94 1e 27 	call	0x4e3c	; 0x4e3c <pow>
    269a:	4b 01       	movw	r8, r22
    269c:	5c 01       	movw	r10, r24
    269e:	9b 01       	movw	r18, r22
    26a0:	ac 01       	movw	r20, r24
    26a2:	c7 01       	movw	r24, r14
    26a4:	b6 01       	movw	r22, r12
    26a6:	0e 94 95 25 	call	0x4b2a	; 0x4b2a <__divsf3>
    26aa:	20 e0       	ldi	r18, 0x00	; 0
    26ac:	30 e0       	ldi	r19, 0x00	; 0
    26ae:	40 e4       	ldi	r20, 0x40	; 64
    26b0:	52 e4       	ldi	r21, 0x42	; 66
    26b2:	0e 94 31 25 	call	0x4a62	; 0x4a62 <__addsf3>
    26b6:	0e 94 fd 25 	call	0x4bfa	; 0x4bfa <__fixunssfsi>
    26ba:	f8 01       	movw	r30, r16
    26bc:	61 93       	st	Z+, r22
    26be:	8f 01       	movw	r16, r30
    26c0:	70 e0       	ldi	r23, 0x00	; 0
    26c2:	60 53       	subi	r22, 0x30	; 48
    26c4:	71 09       	sbc	r23, r1
    26c6:	07 2e       	mov	r0, r23
    26c8:	00 0c       	add	r0, r0
    26ca:	88 0b       	sbc	r24, r24
    26cc:	99 0b       	sbc	r25, r25
    26ce:	0e 94 2b 26 	call	0x4c56	; 0x4c56 <__floatsisf>
    26d2:	a5 01       	movw	r20, r10
    26d4:	94 01       	movw	r18, r8
    26d6:	0e 94 bb 26 	call	0x4d76	; 0x4d76 <__mulsf3>
    26da:	9b 01       	movw	r18, r22
    26dc:	ac 01       	movw	r20, r24
    26de:	c7 01       	movw	r24, r14
    26e0:	b6 01       	movw	r22, r12
    26e2:	0e 94 30 25 	call	0x4a60	; 0x4a60 <__subsf3>
    26e6:	0e 94 fd 25 	call	0x4bfa	; 0x4bfa <__fixunssfsi>
    26ea:	21 97       	sbiw	r28, 0x01	; 1
    26ec:	18 f6       	brcc	.-122    	; 0x2674 <convert_to_show+0x672>
    26ee:	80 91 16 01 	lds	r24, 0x0116	; 0x800116 <K_P_s>
    26f2:	80 93 15 01 	sts	0x0115, r24	; 0x800115 <K_D_s+0x14>
    26f6:	80 91 17 01 	lds	r24, 0x0117	; 0x800117 <K_P_s+0x1>
    26fa:	80 93 16 01 	sts	0x0116, r24	; 0x800116 <K_P_s>
    26fe:	80 91 18 01 	lds	r24, 0x0118	; 0x800118 <K_P_s+0x2>
    2702:	80 93 17 01 	sts	0x0117, r24	; 0x800117 <K_P_s+0x1>
    2706:	8e e2       	ldi	r24, 0x2E	; 46
    2708:	80 93 18 01 	sts	0x0118, r24	; 0x800118 <K_P_s+0x2>
    270c:	8c e1       	ldi	r24, 0x1C	; 28
    270e:	90 e0       	ldi	r25, 0x00	; 0
    2710:	0e 94 b6 2b 	call	0x576c	; 0x576c <eeprom_read_dword>
    2714:	c0 e0       	ldi	r28, 0x00	; 0
    2716:	d0 e0       	ldi	r29, 0x00	; 0
    2718:	05 e0       	ldi	r16, 0x05	; 5
    271a:	10 e0       	ldi	r17, 0x00	; 0
    271c:	0e 94 29 26 	call	0x4c52	; 0x4c52 <__floatunsisf>
    2720:	6b 01       	movw	r12, r22
    2722:	7c 01       	movw	r14, r24
    2724:	b8 01       	movw	r22, r16
    2726:	6c 1b       	sub	r22, r28
    2728:	7d 0b       	sbc	r23, r29
    272a:	07 2e       	mov	r0, r23
    272c:	00 0c       	add	r0, r0
    272e:	88 0b       	sbc	r24, r24
    2730:	99 0b       	sbc	r25, r25
    2732:	0e 94 2b 26 	call	0x4c56	; 0x4c56 <__floatsisf>
    2736:	9b 01       	movw	r18, r22
    2738:	ac 01       	movw	r20, r24
    273a:	60 e0       	ldi	r22, 0x00	; 0
    273c:	70 e0       	ldi	r23, 0x00	; 0
    273e:	80 e2       	ldi	r24, 0x20	; 32
    2740:	91 e4       	ldi	r25, 0x41	; 65
    2742:	0e 94 1e 27 	call	0x4e3c	; 0x4e3c <pow>
    2746:	4b 01       	movw	r8, r22
    2748:	5c 01       	movw	r10, r24
    274a:	9b 01       	movw	r18, r22
    274c:	ac 01       	movw	r20, r24
    274e:	c7 01       	movw	r24, r14
    2750:	b6 01       	movw	r22, r12
    2752:	0e 94 95 25 	call	0x4b2a	; 0x4b2a <__divsf3>
    2756:	20 e0       	ldi	r18, 0x00	; 0
    2758:	30 e0       	ldi	r19, 0x00	; 0
    275a:	40 e4       	ldi	r20, 0x40	; 64
    275c:	52 e4       	ldi	r21, 0x42	; 66
    275e:	0e 94 31 25 	call	0x4a62	; 0x4a62 <__addsf3>
    2762:	0e 94 fd 25 	call	0x4bfa	; 0x4bfa <__fixunssfsi>
    2766:	fe 01       	movw	r30, r28
    2768:	ea 5e       	subi	r30, 0xEA	; 234
    276a:	fe 4f       	sbci	r31, 0xFE	; 254
    276c:	67 83       	std	Z+7, r22	; 0x07
    276e:	70 e0       	ldi	r23, 0x00	; 0
    2770:	60 53       	subi	r22, 0x30	; 48
    2772:	71 09       	sbc	r23, r1
    2774:	07 2e       	mov	r0, r23
    2776:	00 0c       	add	r0, r0
    2778:	88 0b       	sbc	r24, r24
    277a:	99 0b       	sbc	r25, r25
    277c:	0e 94 2b 26 	call	0x4c56	; 0x4c56 <__floatsisf>
    2780:	a5 01       	movw	r20, r10
    2782:	94 01       	movw	r18, r8
    2784:	0e 94 bb 26 	call	0x4d76	; 0x4d76 <__mulsf3>
    2788:	9b 01       	movw	r18, r22
    278a:	ac 01       	movw	r20, r24
    278c:	c7 01       	movw	r24, r14
    278e:	b6 01       	movw	r22, r12
    2790:	0e 94 30 25 	call	0x4a60	; 0x4a60 <__subsf3>
    2794:	0e 94 fd 25 	call	0x4bfa	; 0x4bfa <__fixunssfsi>
    2798:	21 96       	adiw	r28, 0x01	; 1
    279a:	c6 30       	cpi	r28, 0x06	; 6
    279c:	d1 05       	cpc	r29, r1
    279e:	09 f0       	breq	.+2      	; 0x27a2 <convert_to_show+0x7a0>
    27a0:	bd cf       	rjmp	.-134    	; 0x271c <convert_to_show+0x71a>
    27a2:	80 91 1d 01 	lds	r24, 0x011D	; 0x80011d <K_P_s+0x7>
    27a6:	80 93 1c 01 	sts	0x011C, r24	; 0x80011c <K_P_s+0x6>
    27aa:	80 91 1e 01 	lds	r24, 0x011E	; 0x80011e <K_P_s+0x8>
    27ae:	80 93 1d 01 	sts	0x011D, r24	; 0x80011d <K_P_s+0x7>
    27b2:	80 91 1f 01 	lds	r24, 0x011F	; 0x80011f <K_P_s+0x9>
    27b6:	80 93 1e 01 	sts	0x011E, r24	; 0x80011e <K_P_s+0x8>
    27ba:	8e e2       	ldi	r24, 0x2E	; 46
    27bc:	80 93 1f 01 	sts	0x011F, r24	; 0x80011f <K_P_s+0x9>
    27c0:	80 e2       	ldi	r24, 0x20	; 32
    27c2:	90 e0       	ldi	r25, 0x00	; 0
    27c4:	0e 94 b6 2b 	call	0x576c	; 0x576c <eeprom_read_dword>
    27c8:	c0 e0       	ldi	r28, 0x00	; 0
    27ca:	d0 e0       	ldi	r29, 0x00	; 0
    27cc:	05 e0       	ldi	r16, 0x05	; 5
    27ce:	10 e0       	ldi	r17, 0x00	; 0
    27d0:	0e 94 29 26 	call	0x4c52	; 0x4c52 <__floatunsisf>
    27d4:	6b 01       	movw	r12, r22
    27d6:	7c 01       	movw	r14, r24
    27d8:	b8 01       	movw	r22, r16
    27da:	6c 1b       	sub	r22, r28
    27dc:	7d 0b       	sbc	r23, r29
    27de:	07 2e       	mov	r0, r23
    27e0:	00 0c       	add	r0, r0
    27e2:	88 0b       	sbc	r24, r24
    27e4:	99 0b       	sbc	r25, r25
    27e6:	0e 94 2b 26 	call	0x4c56	; 0x4c56 <__floatsisf>
    27ea:	9b 01       	movw	r18, r22
    27ec:	ac 01       	movw	r20, r24
    27ee:	60 e0       	ldi	r22, 0x00	; 0
    27f0:	70 e0       	ldi	r23, 0x00	; 0
    27f2:	80 e2       	ldi	r24, 0x20	; 32
    27f4:	91 e4       	ldi	r25, 0x41	; 65
    27f6:	0e 94 1e 27 	call	0x4e3c	; 0x4e3c <pow>
    27fa:	4b 01       	movw	r8, r22
    27fc:	5c 01       	movw	r10, r24
    27fe:	9b 01       	movw	r18, r22
    2800:	ac 01       	movw	r20, r24
    2802:	c7 01       	movw	r24, r14
    2804:	b6 01       	movw	r22, r12
    2806:	0e 94 95 25 	call	0x4b2a	; 0x4b2a <__divsf3>
    280a:	20 e0       	ldi	r18, 0x00	; 0
    280c:	30 e0       	ldi	r19, 0x00	; 0
    280e:	40 e4       	ldi	r20, 0x40	; 64
    2810:	52 e4       	ldi	r21, 0x42	; 66
    2812:	0e 94 31 25 	call	0x4a62	; 0x4a62 <__addsf3>
    2816:	0e 94 fd 25 	call	0x4bfa	; 0x4bfa <__fixunssfsi>
    281a:	fe 01       	movw	r30, r28
    281c:	ea 5e       	subi	r30, 0xEA	; 234
    281e:	fe 4f       	sbci	r31, 0xFE	; 254
    2820:	66 87       	std	Z+14, r22	; 0x0e
    2822:	70 e0       	ldi	r23, 0x00	; 0
    2824:	60 53       	subi	r22, 0x30	; 48
    2826:	71 09       	sbc	r23, r1
    2828:	07 2e       	mov	r0, r23
    282a:	00 0c       	add	r0, r0
    282c:	88 0b       	sbc	r24, r24
    282e:	99 0b       	sbc	r25, r25
    2830:	0e 94 2b 26 	call	0x4c56	; 0x4c56 <__floatsisf>
    2834:	a5 01       	movw	r20, r10
    2836:	94 01       	movw	r18, r8
    2838:	0e 94 bb 26 	call	0x4d76	; 0x4d76 <__mulsf3>
    283c:	9b 01       	movw	r18, r22
    283e:	ac 01       	movw	r20, r24
    2840:	c7 01       	movw	r24, r14
    2842:	b6 01       	movw	r22, r12
    2844:	0e 94 30 25 	call	0x4a60	; 0x4a60 <__subsf3>
    2848:	0e 94 fd 25 	call	0x4bfa	; 0x4bfa <__fixunssfsi>
    284c:	21 96       	adiw	r28, 0x01	; 1
    284e:	c6 30       	cpi	r28, 0x06	; 6
    2850:	d1 05       	cpc	r29, r1
    2852:	09 f0       	breq	.+2      	; 0x2856 <convert_to_show+0x854>
    2854:	bd cf       	rjmp	.-134    	; 0x27d0 <convert_to_show+0x7ce>
    2856:	80 91 24 01 	lds	r24, 0x0124	; 0x800124 <K_P_s+0xe>
    285a:	80 93 23 01 	sts	0x0123, r24	; 0x800123 <K_P_s+0xd>
    285e:	80 91 25 01 	lds	r24, 0x0125	; 0x800125 <K_P_s+0xf>
    2862:	80 93 24 01 	sts	0x0124, r24	; 0x800124 <K_P_s+0xe>
    2866:	80 91 26 01 	lds	r24, 0x0126	; 0x800126 <K_P_s+0x10>
    286a:	80 93 25 01 	sts	0x0125, r24	; 0x800125 <K_P_s+0xf>
    286e:	8e e2       	ldi	r24, 0x2E	; 46
    2870:	80 93 26 01 	sts	0x0126, r24	; 0x800126 <K_P_s+0x10>
    2874:	8c e0       	ldi	r24, 0x0C	; 12
    2876:	90 e0       	ldi	r25, 0x00	; 0
    2878:	0e 94 b6 2b 	call	0x576c	; 0x576c <eeprom_read_dword>
    287c:	c4 e0       	ldi	r28, 0x04	; 4
    287e:	d0 e0       	ldi	r29, 0x00	; 0
    2880:	0d ef       	ldi	r16, 0xFD	; 253
    2882:	12 e0       	ldi	r17, 0x02	; 2
    2884:	0e 94 29 26 	call	0x4c52	; 0x4c52 <__floatunsisf>
    2888:	6b 01       	movw	r12, r22
    288a:	7c 01       	movw	r14, r24
    288c:	be 01       	movw	r22, r28
    288e:	0d 2e       	mov	r0, r29
    2890:	00 0c       	add	r0, r0
    2892:	88 0b       	sbc	r24, r24
    2894:	99 0b       	sbc	r25, r25
    2896:	0e 94 2b 26 	call	0x4c56	; 0x4c56 <__floatsisf>
    289a:	9b 01       	movw	r18, r22
    289c:	ac 01       	movw	r20, r24
    289e:	60 e0       	ldi	r22, 0x00	; 0
    28a0:	70 e0       	ldi	r23, 0x00	; 0
    28a2:	80 e2       	ldi	r24, 0x20	; 32
    28a4:	91 e4       	ldi	r25, 0x41	; 65
    28a6:	0e 94 1e 27 	call	0x4e3c	; 0x4e3c <pow>
    28aa:	4b 01       	movw	r8, r22
    28ac:	5c 01       	movw	r10, r24
    28ae:	9b 01       	movw	r18, r22
    28b0:	ac 01       	movw	r20, r24
    28b2:	c7 01       	movw	r24, r14
    28b4:	b6 01       	movw	r22, r12
    28b6:	0e 94 95 25 	call	0x4b2a	; 0x4b2a <__divsf3>
    28ba:	20 e0       	ldi	r18, 0x00	; 0
    28bc:	30 e0       	ldi	r19, 0x00	; 0
    28be:	40 e4       	ldi	r20, 0x40	; 64
    28c0:	52 e4       	ldi	r21, 0x42	; 66
    28c2:	0e 94 31 25 	call	0x4a62	; 0x4a62 <__addsf3>
    28c6:	0e 94 fd 25 	call	0x4bfa	; 0x4bfa <__fixunssfsi>
    28ca:	f8 01       	movw	r30, r16
    28cc:	61 93       	st	Z+, r22
    28ce:	8f 01       	movw	r16, r30
    28d0:	70 e0       	ldi	r23, 0x00	; 0
    28d2:	60 53       	subi	r22, 0x30	; 48
    28d4:	71 09       	sbc	r23, r1
    28d6:	07 2e       	mov	r0, r23
    28d8:	00 0c       	add	r0, r0
    28da:	88 0b       	sbc	r24, r24
    28dc:	99 0b       	sbc	r25, r25
    28de:	0e 94 2b 26 	call	0x4c56	; 0x4c56 <__floatsisf>
    28e2:	a5 01       	movw	r20, r10
    28e4:	94 01       	movw	r18, r8
    28e6:	0e 94 bb 26 	call	0x4d76	; 0x4d76 <__mulsf3>
    28ea:	9b 01       	movw	r18, r22
    28ec:	ac 01       	movw	r20, r24
    28ee:	c7 01       	movw	r24, r14
    28f0:	b6 01       	movw	r22, r12
    28f2:	0e 94 30 25 	call	0x4a60	; 0x4a60 <__subsf3>
    28f6:	0e 94 fd 25 	call	0x4bfa	; 0x4bfa <__fixunssfsi>
    28fa:	21 97       	sbiw	r28, 0x01	; 1
    28fc:	18 f6       	brcc	.-122    	; 0x2884 <convert_to_show+0x882>
    28fe:	8e e2       	ldi	r24, 0x2E	; 46
    2900:	80 93 fe 02 	sts	0x02FE, r24	; 0x8002fe <K_I_s+0x1>
    2904:	80 e1       	ldi	r24, 0x10	; 16
    2906:	90 e0       	ldi	r25, 0x00	; 0
    2908:	0e 94 b6 2b 	call	0x576c	; 0x576c <eeprom_read_dword>
    290c:	c0 e0       	ldi	r28, 0x00	; 0
    290e:	d0 e0       	ldi	r29, 0x00	; 0
    2910:	04 e0       	ldi	r16, 0x04	; 4
    2912:	10 e0       	ldi	r17, 0x00	; 0
    2914:	0e 94 29 26 	call	0x4c52	; 0x4c52 <__floatunsisf>
    2918:	6b 01       	movw	r12, r22
    291a:	7c 01       	movw	r14, r24
    291c:	b8 01       	movw	r22, r16
    291e:	6c 1b       	sub	r22, r28
    2920:	7d 0b       	sbc	r23, r29
    2922:	07 2e       	mov	r0, r23
    2924:	00 0c       	add	r0, r0
    2926:	88 0b       	sbc	r24, r24
    2928:	99 0b       	sbc	r25, r25
    292a:	0e 94 2b 26 	call	0x4c56	; 0x4c56 <__floatsisf>
    292e:	9b 01       	movw	r18, r22
    2930:	ac 01       	movw	r20, r24
    2932:	60 e0       	ldi	r22, 0x00	; 0
    2934:	70 e0       	ldi	r23, 0x00	; 0
    2936:	80 e2       	ldi	r24, 0x20	; 32
    2938:	91 e4       	ldi	r25, 0x41	; 65
    293a:	0e 94 1e 27 	call	0x4e3c	; 0x4e3c <pow>
    293e:	4b 01       	movw	r8, r22
    2940:	5c 01       	movw	r10, r24
    2942:	9b 01       	movw	r18, r22
    2944:	ac 01       	movw	r20, r24
    2946:	c7 01       	movw	r24, r14
    2948:	b6 01       	movw	r22, r12
    294a:	0e 94 95 25 	call	0x4b2a	; 0x4b2a <__divsf3>
    294e:	20 e0       	ldi	r18, 0x00	; 0
    2950:	30 e0       	ldi	r19, 0x00	; 0
    2952:	40 e4       	ldi	r20, 0x40	; 64
    2954:	52 e4       	ldi	r21, 0x42	; 66
    2956:	0e 94 31 25 	call	0x4a62	; 0x4a62 <__addsf3>
    295a:	0e 94 fd 25 	call	0x4bfa	; 0x4bfa <__fixunssfsi>
    295e:	fe 01       	movw	r30, r28
    2960:	e3 50       	subi	r30, 0x03	; 3
    2962:	fd 4f       	sbci	r31, 0xFD	; 253
    2964:	65 83       	std	Z+5, r22	; 0x05
    2966:	70 e0       	ldi	r23, 0x00	; 0
    2968:	60 53       	subi	r22, 0x30	; 48
    296a:	71 09       	sbc	r23, r1
    296c:	07 2e       	mov	r0, r23
    296e:	00 0c       	add	r0, r0
    2970:	88 0b       	sbc	r24, r24
    2972:	99 0b       	sbc	r25, r25
    2974:	0e 94 2b 26 	call	0x4c56	; 0x4c56 <__floatsisf>
    2978:	a5 01       	movw	r20, r10
    297a:	94 01       	movw	r18, r8
    297c:	0e 94 bb 26 	call	0x4d76	; 0x4d76 <__mulsf3>
    2980:	9b 01       	movw	r18, r22
    2982:	ac 01       	movw	r20, r24
    2984:	c7 01       	movw	r24, r14
    2986:	b6 01       	movw	r22, r12
    2988:	0e 94 30 25 	call	0x4a60	; 0x4a60 <__subsf3>
    298c:	0e 94 fd 25 	call	0x4bfa	; 0x4bfa <__fixunssfsi>
    2990:	21 96       	adiw	r28, 0x01	; 1
    2992:	c5 30       	cpi	r28, 0x05	; 5
    2994:	d1 05       	cpc	r29, r1
    2996:	09 f0       	breq	.+2      	; 0x299a <convert_to_show+0x998>
    2998:	bd cf       	rjmp	.-134    	; 0x2914 <convert_to_show+0x912>
    299a:	8e e2       	ldi	r24, 0x2E	; 46
    299c:	80 93 03 03 	sts	0x0303, r24	; 0x800303 <K_I_s+0x6>
    29a0:	84 e1       	ldi	r24, 0x14	; 20
    29a2:	90 e0       	ldi	r25, 0x00	; 0
    29a4:	0e 94 b6 2b 	call	0x576c	; 0x576c <eeprom_read_dword>
    29a8:	c0 e0       	ldi	r28, 0x00	; 0
    29aa:	d0 e0       	ldi	r29, 0x00	; 0
    29ac:	04 e0       	ldi	r16, 0x04	; 4
    29ae:	10 e0       	ldi	r17, 0x00	; 0
    29b0:	0e 94 29 26 	call	0x4c52	; 0x4c52 <__floatunsisf>
    29b4:	6b 01       	movw	r12, r22
    29b6:	7c 01       	movw	r14, r24
    29b8:	b8 01       	movw	r22, r16
    29ba:	6c 1b       	sub	r22, r28
    29bc:	7d 0b       	sbc	r23, r29
    29be:	07 2e       	mov	r0, r23
    29c0:	00 0c       	add	r0, r0
    29c2:	88 0b       	sbc	r24, r24
    29c4:	99 0b       	sbc	r25, r25
    29c6:	0e 94 2b 26 	call	0x4c56	; 0x4c56 <__floatsisf>
    29ca:	9b 01       	movw	r18, r22
    29cc:	ac 01       	movw	r20, r24
    29ce:	60 e0       	ldi	r22, 0x00	; 0
    29d0:	70 e0       	ldi	r23, 0x00	; 0
    29d2:	80 e2       	ldi	r24, 0x20	; 32
    29d4:	91 e4       	ldi	r25, 0x41	; 65
    29d6:	0e 94 1e 27 	call	0x4e3c	; 0x4e3c <pow>
    29da:	4b 01       	movw	r8, r22
    29dc:	5c 01       	movw	r10, r24
    29de:	9b 01       	movw	r18, r22
    29e0:	ac 01       	movw	r20, r24
    29e2:	c7 01       	movw	r24, r14
    29e4:	b6 01       	movw	r22, r12
    29e6:	0e 94 95 25 	call	0x4b2a	; 0x4b2a <__divsf3>
    29ea:	20 e0       	ldi	r18, 0x00	; 0
    29ec:	30 e0       	ldi	r19, 0x00	; 0
    29ee:	40 e4       	ldi	r20, 0x40	; 64
    29f0:	52 e4       	ldi	r21, 0x42	; 66
    29f2:	0e 94 31 25 	call	0x4a62	; 0x4a62 <__addsf3>
    29f6:	0e 94 fd 25 	call	0x4bfa	; 0x4bfa <__fixunssfsi>
    29fa:	fe 01       	movw	r30, r28
    29fc:	e3 50       	subi	r30, 0x03	; 3
    29fe:	fd 4f       	sbci	r31, 0xFD	; 253
    2a00:	62 87       	std	Z+10, r22	; 0x0a
    2a02:	70 e0       	ldi	r23, 0x00	; 0
    2a04:	60 53       	subi	r22, 0x30	; 48
    2a06:	71 09       	sbc	r23, r1
    2a08:	07 2e       	mov	r0, r23
    2a0a:	00 0c       	add	r0, r0
    2a0c:	88 0b       	sbc	r24, r24
    2a0e:	99 0b       	sbc	r25, r25
    2a10:	0e 94 2b 26 	call	0x4c56	; 0x4c56 <__floatsisf>
    2a14:	a5 01       	movw	r20, r10
    2a16:	94 01       	movw	r18, r8
    2a18:	0e 94 bb 26 	call	0x4d76	; 0x4d76 <__mulsf3>
    2a1c:	9b 01       	movw	r18, r22
    2a1e:	ac 01       	movw	r20, r24
    2a20:	c7 01       	movw	r24, r14
    2a22:	b6 01       	movw	r22, r12
    2a24:	0e 94 30 25 	call	0x4a60	; 0x4a60 <__subsf3>
    2a28:	0e 94 fd 25 	call	0x4bfa	; 0x4bfa <__fixunssfsi>
    2a2c:	21 96       	adiw	r28, 0x01	; 1
    2a2e:	c5 30       	cpi	r28, 0x05	; 5
    2a30:	d1 05       	cpc	r29, r1
    2a32:	09 f0       	breq	.+2      	; 0x2a36 <convert_to_show+0xa34>
    2a34:	bd cf       	rjmp	.-134    	; 0x29b0 <convert_to_show+0x9ae>
    2a36:	8e e2       	ldi	r24, 0x2E	; 46
    2a38:	80 93 08 03 	sts	0x0308, r24	; 0x800308 <K_I_s+0xb>
    2a3c:	80 e0       	ldi	r24, 0x00	; 0
    2a3e:	90 e0       	ldi	r25, 0x00	; 0
    2a40:	0e 94 b6 2b 	call	0x576c	; 0x576c <eeprom_read_dword>
    2a44:	c5 e0       	ldi	r28, 0x05	; 5
    2a46:	d0 e0       	ldi	r29, 0x00	; 0
    2a48:	01 e0       	ldi	r16, 0x01	; 1
    2a4a:	11 e0       	ldi	r17, 0x01	; 1
    2a4c:	0e 94 29 26 	call	0x4c52	; 0x4c52 <__floatunsisf>
    2a50:	6b 01       	movw	r12, r22
    2a52:	7c 01       	movw	r14, r24
    2a54:	be 01       	movw	r22, r28
    2a56:	0d 2e       	mov	r0, r29
    2a58:	00 0c       	add	r0, r0
    2a5a:	88 0b       	sbc	r24, r24
    2a5c:	99 0b       	sbc	r25, r25
    2a5e:	0e 94 2b 26 	call	0x4c56	; 0x4c56 <__floatsisf>
    2a62:	9b 01       	movw	r18, r22
    2a64:	ac 01       	movw	r20, r24
    2a66:	60 e0       	ldi	r22, 0x00	; 0
    2a68:	70 e0       	ldi	r23, 0x00	; 0
    2a6a:	80 e2       	ldi	r24, 0x20	; 32
    2a6c:	91 e4       	ldi	r25, 0x41	; 65
    2a6e:	0e 94 1e 27 	call	0x4e3c	; 0x4e3c <pow>
    2a72:	4b 01       	movw	r8, r22
    2a74:	5c 01       	movw	r10, r24
    2a76:	9b 01       	movw	r18, r22
    2a78:	ac 01       	movw	r20, r24
    2a7a:	c7 01       	movw	r24, r14
    2a7c:	b6 01       	movw	r22, r12
    2a7e:	0e 94 95 25 	call	0x4b2a	; 0x4b2a <__divsf3>
    2a82:	20 e0       	ldi	r18, 0x00	; 0
    2a84:	30 e0       	ldi	r19, 0x00	; 0
    2a86:	40 e4       	ldi	r20, 0x40	; 64
    2a88:	52 e4       	ldi	r21, 0x42	; 66
    2a8a:	0e 94 31 25 	call	0x4a62	; 0x4a62 <__addsf3>
    2a8e:	0e 94 fd 25 	call	0x4bfa	; 0x4bfa <__fixunssfsi>
    2a92:	f8 01       	movw	r30, r16
    2a94:	61 93       	st	Z+, r22
    2a96:	8f 01       	movw	r16, r30
    2a98:	70 e0       	ldi	r23, 0x00	; 0
    2a9a:	60 53       	subi	r22, 0x30	; 48
    2a9c:	71 09       	sbc	r23, r1
    2a9e:	07 2e       	mov	r0, r23
    2aa0:	00 0c       	add	r0, r0
    2aa2:	88 0b       	sbc	r24, r24
    2aa4:	99 0b       	sbc	r25, r25
    2aa6:	0e 94 2b 26 	call	0x4c56	; 0x4c56 <__floatsisf>
    2aaa:	a5 01       	movw	r20, r10
    2aac:	94 01       	movw	r18, r8
    2aae:	0e 94 bb 26 	call	0x4d76	; 0x4d76 <__mulsf3>
    2ab2:	9b 01       	movw	r18, r22
    2ab4:	ac 01       	movw	r20, r24
    2ab6:	c7 01       	movw	r24, r14
    2ab8:	b6 01       	movw	r22, r12
    2aba:	0e 94 30 25 	call	0x4a60	; 0x4a60 <__subsf3>
    2abe:	0e 94 fd 25 	call	0x4bfa	; 0x4bfa <__fixunssfsi>
    2ac2:	21 97       	sbiw	r28, 0x01	; 1
    2ac4:	18 f6       	brcc	.-122    	; 0x2a4c <convert_to_show+0xa4a>
    2ac6:	80 91 01 01 	lds	r24, 0x0101	; 0x800101 <K_D_s>
    2aca:	80 93 00 01 	sts	0x0100, r24	; 0x800100 <__data_start>
    2ace:	80 91 02 01 	lds	r24, 0x0102	; 0x800102 <K_D_s+0x1>
    2ad2:	80 93 01 01 	sts	0x0101, r24	; 0x800101 <K_D_s>
    2ad6:	80 91 03 01 	lds	r24, 0x0103	; 0x800103 <K_D_s+0x2>
    2ada:	80 93 02 01 	sts	0x0102, r24	; 0x800102 <K_D_s+0x1>
    2ade:	8e e2       	ldi	r24, 0x2E	; 46
    2ae0:	80 93 03 01 	sts	0x0103, r24	; 0x800103 <K_D_s+0x2>
    2ae4:	84 e0       	ldi	r24, 0x04	; 4
    2ae6:	90 e0       	ldi	r25, 0x00	; 0
    2ae8:	0e 94 b6 2b 	call	0x576c	; 0x576c <eeprom_read_dword>
    2aec:	c0 e0       	ldi	r28, 0x00	; 0
    2aee:	d0 e0       	ldi	r29, 0x00	; 0
    2af0:	05 e0       	ldi	r16, 0x05	; 5
    2af2:	10 e0       	ldi	r17, 0x00	; 0
    2af4:	0e 94 29 26 	call	0x4c52	; 0x4c52 <__floatunsisf>
    2af8:	6b 01       	movw	r12, r22
    2afa:	7c 01       	movw	r14, r24
    2afc:	b8 01       	movw	r22, r16
    2afe:	6c 1b       	sub	r22, r28
    2b00:	7d 0b       	sbc	r23, r29
    2b02:	07 2e       	mov	r0, r23
    2b04:	00 0c       	add	r0, r0
    2b06:	88 0b       	sbc	r24, r24
    2b08:	99 0b       	sbc	r25, r25
    2b0a:	0e 94 2b 26 	call	0x4c56	; 0x4c56 <__floatsisf>
    2b0e:	9b 01       	movw	r18, r22
    2b10:	ac 01       	movw	r20, r24
    2b12:	60 e0       	ldi	r22, 0x00	; 0
    2b14:	70 e0       	ldi	r23, 0x00	; 0
    2b16:	80 e2       	ldi	r24, 0x20	; 32
    2b18:	91 e4       	ldi	r25, 0x41	; 65
    2b1a:	0e 94 1e 27 	call	0x4e3c	; 0x4e3c <pow>
    2b1e:	4b 01       	movw	r8, r22
    2b20:	5c 01       	movw	r10, r24
    2b22:	9b 01       	movw	r18, r22
    2b24:	ac 01       	movw	r20, r24
    2b26:	c7 01       	movw	r24, r14
    2b28:	b6 01       	movw	r22, r12
    2b2a:	0e 94 95 25 	call	0x4b2a	; 0x4b2a <__divsf3>
    2b2e:	20 e0       	ldi	r18, 0x00	; 0
    2b30:	30 e0       	ldi	r19, 0x00	; 0
    2b32:	40 e4       	ldi	r20, 0x40	; 64
    2b34:	52 e4       	ldi	r21, 0x42	; 66
    2b36:	0e 94 31 25 	call	0x4a62	; 0x4a62 <__addsf3>
    2b3a:	0e 94 fd 25 	call	0x4bfa	; 0x4bfa <__fixunssfsi>
    2b3e:	fe 01       	movw	r30, r28
    2b40:	ef 5f       	subi	r30, 0xFF	; 255
    2b42:	fe 4f       	sbci	r31, 0xFE	; 254
    2b44:	67 83       	std	Z+7, r22	; 0x07
    2b46:	70 e0       	ldi	r23, 0x00	; 0
    2b48:	60 53       	subi	r22, 0x30	; 48
    2b4a:	71 09       	sbc	r23, r1
    2b4c:	07 2e       	mov	r0, r23
    2b4e:	00 0c       	add	r0, r0
    2b50:	88 0b       	sbc	r24, r24
    2b52:	99 0b       	sbc	r25, r25
    2b54:	0e 94 2b 26 	call	0x4c56	; 0x4c56 <__floatsisf>
    2b58:	a5 01       	movw	r20, r10
    2b5a:	94 01       	movw	r18, r8
    2b5c:	0e 94 bb 26 	call	0x4d76	; 0x4d76 <__mulsf3>
    2b60:	9b 01       	movw	r18, r22
    2b62:	ac 01       	movw	r20, r24
    2b64:	c7 01       	movw	r24, r14
    2b66:	b6 01       	movw	r22, r12
    2b68:	0e 94 30 25 	call	0x4a60	; 0x4a60 <__subsf3>
    2b6c:	0e 94 fd 25 	call	0x4bfa	; 0x4bfa <__fixunssfsi>
    2b70:	21 96       	adiw	r28, 0x01	; 1
    2b72:	c6 30       	cpi	r28, 0x06	; 6
    2b74:	d1 05       	cpc	r29, r1
    2b76:	09 f0       	breq	.+2      	; 0x2b7a <convert_to_show+0xb78>
    2b78:	bd cf       	rjmp	.-134    	; 0x2af4 <convert_to_show+0xaf2>
    2b7a:	80 91 08 01 	lds	r24, 0x0108	; 0x800108 <K_D_s+0x7>
    2b7e:	80 93 07 01 	sts	0x0107, r24	; 0x800107 <K_D_s+0x6>
    2b82:	80 91 09 01 	lds	r24, 0x0109	; 0x800109 <K_D_s+0x8>
    2b86:	80 93 08 01 	sts	0x0108, r24	; 0x800108 <K_D_s+0x7>
    2b8a:	80 91 0a 01 	lds	r24, 0x010A	; 0x80010a <K_D_s+0x9>
    2b8e:	80 93 09 01 	sts	0x0109, r24	; 0x800109 <K_D_s+0x8>
    2b92:	8e e2       	ldi	r24, 0x2E	; 46
    2b94:	80 93 0a 01 	sts	0x010A, r24	; 0x80010a <K_D_s+0x9>
    2b98:	88 e0       	ldi	r24, 0x08	; 8
    2b9a:	90 e0       	ldi	r25, 0x00	; 0
    2b9c:	0e 94 b6 2b 	call	0x576c	; 0x576c <eeprom_read_dword>
    2ba0:	c0 e0       	ldi	r28, 0x00	; 0
    2ba2:	d0 e0       	ldi	r29, 0x00	; 0
    2ba4:	05 e0       	ldi	r16, 0x05	; 5
    2ba6:	10 e0       	ldi	r17, 0x00	; 0
    2ba8:	0e 94 29 26 	call	0x4c52	; 0x4c52 <__floatunsisf>
    2bac:	6b 01       	movw	r12, r22
    2bae:	7c 01       	movw	r14, r24
    2bb0:	b8 01       	movw	r22, r16
    2bb2:	6c 1b       	sub	r22, r28
    2bb4:	7d 0b       	sbc	r23, r29
    2bb6:	07 2e       	mov	r0, r23
    2bb8:	00 0c       	add	r0, r0
    2bba:	88 0b       	sbc	r24, r24
    2bbc:	99 0b       	sbc	r25, r25
    2bbe:	0e 94 2b 26 	call	0x4c56	; 0x4c56 <__floatsisf>
    2bc2:	9b 01       	movw	r18, r22
    2bc4:	ac 01       	movw	r20, r24
    2bc6:	60 e0       	ldi	r22, 0x00	; 0
    2bc8:	70 e0       	ldi	r23, 0x00	; 0
    2bca:	80 e2       	ldi	r24, 0x20	; 32
    2bcc:	91 e4       	ldi	r25, 0x41	; 65
    2bce:	0e 94 1e 27 	call	0x4e3c	; 0x4e3c <pow>
    2bd2:	4b 01       	movw	r8, r22
    2bd4:	5c 01       	movw	r10, r24
    2bd6:	9b 01       	movw	r18, r22
    2bd8:	ac 01       	movw	r20, r24
    2bda:	c7 01       	movw	r24, r14
    2bdc:	b6 01       	movw	r22, r12
    2bde:	0e 94 95 25 	call	0x4b2a	; 0x4b2a <__divsf3>
    2be2:	20 e0       	ldi	r18, 0x00	; 0
    2be4:	30 e0       	ldi	r19, 0x00	; 0
    2be6:	40 e4       	ldi	r20, 0x40	; 64
    2be8:	52 e4       	ldi	r21, 0x42	; 66
    2bea:	0e 94 31 25 	call	0x4a62	; 0x4a62 <__addsf3>
    2bee:	0e 94 fd 25 	call	0x4bfa	; 0x4bfa <__fixunssfsi>
    2bf2:	fe 01       	movw	r30, r28
    2bf4:	ef 5f       	subi	r30, 0xFF	; 255
    2bf6:	fe 4f       	sbci	r31, 0xFE	; 254
    2bf8:	66 87       	std	Z+14, r22	; 0x0e
    2bfa:	70 e0       	ldi	r23, 0x00	; 0
    2bfc:	60 53       	subi	r22, 0x30	; 48
    2bfe:	71 09       	sbc	r23, r1
    2c00:	07 2e       	mov	r0, r23
    2c02:	00 0c       	add	r0, r0
    2c04:	88 0b       	sbc	r24, r24
    2c06:	99 0b       	sbc	r25, r25
    2c08:	0e 94 2b 26 	call	0x4c56	; 0x4c56 <__floatsisf>
    2c0c:	a5 01       	movw	r20, r10
    2c0e:	94 01       	movw	r18, r8
    2c10:	0e 94 bb 26 	call	0x4d76	; 0x4d76 <__mulsf3>
    2c14:	9b 01       	movw	r18, r22
    2c16:	ac 01       	movw	r20, r24
    2c18:	c7 01       	movw	r24, r14
    2c1a:	b6 01       	movw	r22, r12
    2c1c:	0e 94 30 25 	call	0x4a60	; 0x4a60 <__subsf3>
    2c20:	0e 94 fd 25 	call	0x4bfa	; 0x4bfa <__fixunssfsi>
    2c24:	21 96       	adiw	r28, 0x01	; 1
    2c26:	c6 30       	cpi	r28, 0x06	; 6
    2c28:	d1 05       	cpc	r29, r1
    2c2a:	09 f0       	breq	.+2      	; 0x2c2e <convert_to_show+0xc2c>
    2c2c:	bd cf       	rjmp	.-134    	; 0x2ba8 <convert_to_show+0xba6>
    2c2e:	80 91 0f 01 	lds	r24, 0x010F	; 0x80010f <K_D_s+0xe>
    2c32:	80 93 0e 01 	sts	0x010E, r24	; 0x80010e <K_D_s+0xd>
    2c36:	80 91 10 01 	lds	r24, 0x0110	; 0x800110 <K_D_s+0xf>
    2c3a:	80 93 0f 01 	sts	0x010F, r24	; 0x80010f <K_D_s+0xe>
    2c3e:	80 91 11 01 	lds	r24, 0x0111	; 0x800111 <K_D_s+0x10>
    2c42:	80 93 10 01 	sts	0x0110, r24	; 0x800110 <K_D_s+0xf>
    2c46:	8e e2       	ldi	r24, 0x2E	; 46
    2c48:	80 93 11 01 	sts	0x0111, r24	; 0x800111 <K_D_s+0x10>
    2c4c:	df 91       	pop	r29
    2c4e:	cf 91       	pop	r28
    2c50:	1f 91       	pop	r17
    2c52:	0f 91       	pop	r16
    2c54:	ff 90       	pop	r15
    2c56:	ef 90       	pop	r14
    2c58:	df 90       	pop	r13
    2c5a:	cf 90       	pop	r12
    2c5c:	bf 90       	pop	r11
    2c5e:	af 90       	pop	r10
    2c60:	9f 90       	pop	r9
    2c62:	8f 90       	pop	r8
    2c64:	08 95       	ret

00002c66 <mems_to_RAM>:
    2c66:	6f 92       	push	r6
    2c68:	7f 92       	push	r7
    2c6a:	8f 92       	push	r8
    2c6c:	9f 92       	push	r9
    2c6e:	af 92       	push	r10
    2c70:	bf 92       	push	r11
    2c72:	cf 92       	push	r12
    2c74:	df 92       	push	r13
    2c76:	ef 92       	push	r14
    2c78:	ff 92       	push	r15
    2c7a:	0f 93       	push	r16
    2c7c:	1f 93       	push	r17
    2c7e:	cf 93       	push	r28
    2c80:	df 93       	push	r29
    2c82:	84 e3       	ldi	r24, 0x34	; 52
    2c84:	90 e0       	ldi	r25, 0x00	; 0
    2c86:	0e 94 bb 2b 	call	0x5776	; 0x5776 <eeprom_read_word>
    2c8a:	80 93 64 03 	sts	0x0364, r24	; 0x800364 <time_nach_RAM>
    2c8e:	86 e3       	ldi	r24, 0x36	; 54
    2c90:	90 e0       	ldi	r25, 0x00	; 0
    2c92:	0e 94 bb 2b 	call	0x5776	; 0x5776 <eeprom_read_word>
    2c96:	80 93 65 03 	sts	0x0365, r24	; 0x800365 <time_nach_RAM+0x1>
    2c9a:	80 e3       	ldi	r24, 0x30	; 48
    2c9c:	90 e0       	ldi	r25, 0x00	; 0
    2c9e:	0e 94 bb 2b 	call	0x5776	; 0x5776 <eeprom_read_word>
    2ca2:	80 93 8b 03 	sts	0x038B, r24	; 0x80038b <time_kon_RAM>
    2ca6:	82 e3       	ldi	r24, 0x32	; 50
    2ca8:	90 e0       	ldi	r25, 0x00	; 0
    2caa:	0e 94 bb 2b 	call	0x5776	; 0x5776 <eeprom_read_word>
    2cae:	80 93 8c 03 	sts	0x038C, r24	; 0x80038c <time_kon_RAM+0x1>
    2cb2:	8f e3       	ldi	r24, 0x3F	; 63
    2cb4:	90 e0       	ldi	r25, 0x00	; 0
    2cb6:	0e 94 bb 2b 	call	0x5776	; 0x5776 <eeprom_read_word>
    2cba:	90 93 8f 03 	sts	0x038F, r25	; 0x80038f <per_dat_RAM+0x1>
    2cbe:	80 93 8e 03 	sts	0x038E, r24	; 0x80038e <per_dat_RAM>
    2cc2:	81 e4       	ldi	r24, 0x41	; 65
    2cc4:	90 e0       	ldi	r25, 0x00	; 0
    2cc6:	0e 94 bb 2b 	call	0x5776	; 0x5776 <eeprom_read_word>
    2cca:	90 93 6d 03 	sts	0x036D, r25	; 0x80036d <per_shim_RAM+0x1>
    2cce:	80 93 6c 03 	sts	0x036C, r24	; 0x80036c <per_shim_RAM>
    2cd2:	08 e3       	ldi	r16, 0x38	; 56
    2cd4:	10 e0       	ldi	r17, 0x00	; 0
    2cd6:	c0 e9       	ldi	r28, 0x90	; 144
    2cd8:	d3 e0       	ldi	r29, 0x03	; 3
    2cda:	c8 01       	movw	r24, r16
    2cdc:	0e 94 ae 2b 	call	0x575c	; 0x575c <eeprom_read_byte>
    2ce0:	89 93       	st	Y+, r24
    2ce2:	0f 5f       	subi	r16, 0xFF	; 255
    2ce4:	1f 4f       	sbci	r17, 0xFF	; 255
    2ce6:	83 e0       	ldi	r24, 0x03	; 3
    2ce8:	c7 39       	cpi	r28, 0x97	; 151
    2cea:	d8 07       	cpc	r29, r24
    2cec:	b1 f7       	brne	.-20     	; 0x2cda <mems_to_RAM+0x74>
    2cee:	86 e6       	ldi	r24, 0x66	; 102
    2cf0:	88 2e       	mov	r8, r24
    2cf2:	83 e0       	ldi	r24, 0x03	; 3
    2cf4:	98 2e       	mov	r9, r24
    2cf6:	9a e5       	ldi	r25, 0x5A	; 90
    2cf8:	a9 2e       	mov	r10, r25
    2cfa:	92 e0       	ldi	r25, 0x02	; 2
    2cfc:	b9 2e       	mov	r11, r25
    2cfe:	21 ef       	ldi	r18, 0xF1	; 241
    2d00:	c2 2e       	mov	r12, r18
    2d02:	22 e0       	ldi	r18, 0x02	; 2
    2d04:	d2 2e       	mov	r13, r18
    2d06:	3e e6       	ldi	r19, 0x6E	; 110
    2d08:	e3 2e       	mov	r14, r19
    2d0a:	33 e0       	ldi	r19, 0x03	; 3
    2d0c:	f3 2e       	mov	r15, r19
    2d0e:	4f e7       	ldi	r20, 0x7F	; 127
    2d10:	64 2e       	mov	r6, r20
    2d12:	43 e0       	ldi	r20, 0x03	; 3
    2d14:	74 2e       	mov	r7, r20
    2d16:	00 e0       	ldi	r16, 0x00	; 0
    2d18:	10 e0       	ldi	r17, 0x00	; 0
    2d1a:	c0 e0       	ldi	r28, 0x00	; 0
    2d1c:	d0 e0       	ldi	r29, 0x00	; 0
    2d1e:	ce 01       	movw	r24, r28
    2d20:	86 5d       	subi	r24, 0xD6	; 214
    2d22:	9f 4f       	sbci	r25, 0xFF	; 255
    2d24:	0e 94 bb 2b 	call	0x5776	; 0x5776 <eeprom_read_word>
    2d28:	f4 01       	movw	r30, r8
    2d2a:	81 93       	st	Z+, r24
    2d2c:	91 93       	st	Z+, r25
    2d2e:	4f 01       	movw	r8, r30
    2d30:	ce 01       	movw	r24, r28
    2d32:	8c 5d       	subi	r24, 0xDC	; 220
    2d34:	9f 4f       	sbci	r25, 0xFF	; 255
    2d36:	0e 94 bb 2b 	call	0x5776	; 0x5776 <eeprom_read_word>
    2d3a:	f5 01       	movw	r30, r10
    2d3c:	81 93       	st	Z+, r24
    2d3e:	91 93       	st	Z+, r25
    2d40:	5f 01       	movw	r10, r30
    2d42:	c8 01       	movw	r24, r16
    2d44:	88 5e       	subi	r24, 0xE8	; 232
    2d46:	9f 4f       	sbci	r25, 0xFF	; 255
    2d48:	0e 94 b6 2b 	call	0x576c	; 0x576c <eeprom_read_dword>
    2d4c:	f6 01       	movw	r30, r12
    2d4e:	61 93       	st	Z+, r22
    2d50:	71 93       	st	Z+, r23
    2d52:	81 93       	st	Z+, r24
    2d54:	91 93       	st	Z+, r25
    2d56:	6f 01       	movw	r12, r30
    2d58:	c8 01       	movw	r24, r16
    2d5a:	84 5f       	subi	r24, 0xF4	; 244
    2d5c:	9f 4f       	sbci	r25, 0xFF	; 255
    2d5e:	0e 94 b6 2b 	call	0x576c	; 0x576c <eeprom_read_dword>
    2d62:	f7 01       	movw	r30, r14
    2d64:	61 93       	st	Z+, r22
    2d66:	71 93       	st	Z+, r23
    2d68:	81 93       	st	Z+, r24
    2d6a:	91 93       	st	Z+, r25
    2d6c:	7f 01       	movw	r14, r30
    2d6e:	c8 01       	movw	r24, r16
    2d70:	80 50       	subi	r24, 0x00	; 0
    2d72:	90 40       	sbci	r25, 0x00	; 0
    2d74:	0e 94 b6 2b 	call	0x576c	; 0x576c <eeprom_read_dword>
    2d78:	f3 01       	movw	r30, r6
    2d7a:	61 93       	st	Z+, r22
    2d7c:	71 93       	st	Z+, r23
    2d7e:	81 93       	st	Z+, r24
    2d80:	91 93       	st	Z+, r25
    2d82:	3f 01       	movw	r6, r30
    2d84:	22 96       	adiw	r28, 0x02	; 2
    2d86:	0c 5f       	subi	r16, 0xFC	; 252
    2d88:	1f 4f       	sbci	r17, 0xFF	; 255
    2d8a:	c6 30       	cpi	r28, 0x06	; 6
    2d8c:	d1 05       	cpc	r29, r1
    2d8e:	39 f6       	brne	.-114    	; 0x2d1e <mems_to_RAM+0xb8>
    2d90:	df 91       	pop	r29
    2d92:	cf 91       	pop	r28
    2d94:	1f 91       	pop	r17
    2d96:	0f 91       	pop	r16
    2d98:	ff 90       	pop	r15
    2d9a:	ef 90       	pop	r14
    2d9c:	df 90       	pop	r13
    2d9e:	cf 90       	pop	r12
    2da0:	bf 90       	pop	r11
    2da2:	af 90       	pop	r10
    2da4:	9f 90       	pop	r9
    2da6:	8f 90       	pop	r8
    2da8:	7f 90       	pop	r7
    2daa:	6f 90       	pop	r6
    2dac:	08 95       	ret

00002dae <menu_in_loop>:
    2dae:	8f 92       	push	r8
    2db0:	9f 92       	push	r9
    2db2:	af 92       	push	r10
    2db4:	bf 92       	push	r11
    2db6:	ef 92       	push	r14
    2db8:	ff 92       	push	r15
    2dba:	0f 93       	push	r16
    2dbc:	1f 93       	push	r17
    2dbe:	cf 93       	push	r28
    2dc0:	df 93       	push	r29
    2dc2:	80 e0       	ldi	r24, 0x00	; 0
    2dc4:	0e 94 60 03 	call	0x6c0	; 0x6c0 <Key>
    2dc8:	81 30       	cpi	r24, 0x01	; 1
    2dca:	39 f4       	brne	.+14     	; 0x2dda <menu_in_loop+0x2c>
    2dcc:	8f ef       	ldi	r24, 0xFF	; 255
    2dce:	9f e8       	ldi	r25, 0x8F	; 143
    2dd0:	01 97       	sbiw	r24, 0x01	; 1
    2dd2:	f1 f7       	brne	.-4      	; 0x2dd0 <menu_in_loop+0x22>
    2dd4:	00 c0       	rjmp	.+0      	; 0x2dd6 <menu_in_loop+0x28>
    2dd6:	00 00       	nop
    2dd8:	f4 cf       	rjmp	.-24     	; 0x2dc2 <menu_in_loop+0x14>
    2dda:	81 e0       	ldi	r24, 0x01	; 1
    2ddc:	80 93 85 01 	sts	0x0185, r24	; 0x800185 <flag_M>
    2de0:	28 ee       	ldi	r18, 0xE8	; 232
    2de2:	e2 2e       	mov	r14, r18
    2de4:	23 e0       	ldi	r18, 0x03	; 3
    2de6:	f2 2e       	mov	r15, r18
    2de8:	d4 e6       	ldi	r29, 0x64	; 100
    2dea:	ca e0       	ldi	r28, 0x0A	; 10
    2dec:	0a d9       	rcall	.-3564   	; 0x2002 <convert_to_show>
    2dee:	64 e7       	ldi	r22, 0x74	; 116
    2df0:	71 e0       	ldi	r23, 0x01	; 1
    2df2:	85 e7       	ldi	r24, 0x75	; 117
    2df4:	91 e0       	ldi	r25, 0x01	; 1
    2df6:	0e 94 cd 08 	call	0x119a	; 0x119a <Goto_Menu>
    2dfa:	8c 01       	movw	r16, r24
    2dfc:	90 93 73 01 	sts	0x0173, r25	; 0x800173 <__data_end+0x1>
    2e00:	80 93 72 01 	sts	0x0172, r24	; 0x800172 <__data_end>
    2e04:	89 2b       	or	r24, r25
    2e06:	91 f3       	breq	.-28     	; 0x2dec <menu_in_loop+0x3e>
    2e08:	0f 3f       	cpi	r16, 0xFF	; 255
    2e0a:	9f ef       	ldi	r25, 0xFF	; 255
    2e0c:	19 07       	cpc	r17, r25
    2e0e:	09 f4       	brne	.+2      	; 0x2e12 <menu_in_loop+0x64>
    2e10:	43 c7       	rjmp	.+3718   	; 0x3c98 <menu_in_loop+0xeea>
    2e12:	65 e7       	ldi	r22, 0x75	; 117
    2e14:	71 e0       	ldi	r23, 0x01	; 1
    2e16:	c8 01       	movw	r24, r16
    2e18:	0e 94 52 08 	call	0x10a4	; 0x10a4 <Save_Changes>
    2e1c:	80 2f       	mov	r24, r16
    2e1e:	90 e0       	ldi	r25, 0x00	; 0
    2e20:	fc 01       	movw	r30, r24
    2e22:	39 97       	sbiw	r30, 0x09	; 9
    2e24:	ec 31       	cpi	r30, 0x1C	; 28
    2e26:	f1 05       	cpc	r31, r1
    2e28:	08 f7       	brcc	.-62     	; 0x2dec <menu_in_loop+0x3e>
    2e2a:	ea 5b       	subi	r30, 0xBA	; 186
    2e2c:	ff 4f       	sbci	r31, 0xFF	; 255
    2e2e:	0c 94 c7 28 	jmp	0x518e	; 0x518e <__tablejump2__>
    2e32:	80 91 61 02 	lds	r24, 0x0261	; 0x800261 <cur_time+0x1>
    2e36:	20 ed       	ldi	r18, 0xD0	; 208
    2e38:	28 0f       	add	r18, r24
    2e3a:	80 91 60 02 	lds	r24, 0x0260	; 0x800260 <cur_time>
    2e3e:	88 0f       	add	r24, r24
    2e40:	80 56       	subi	r24, 0x60	; 96
    2e42:	98 2f       	mov	r25, r24
    2e44:	99 0f       	add	r25, r25
    2e46:	99 0f       	add	r25, r25
    2e48:	89 0f       	add	r24, r25
    2e4a:	82 0f       	add	r24, r18
    2e4c:	80 93 32 03 	sts	0x0332, r24	; 0x800332 <hour>
    2e50:	60 91 64 02 	lds	r22, 0x0264	; 0x800264 <cur_time+0x4>
    2e54:	20 ed       	ldi	r18, 0xD0	; 208
    2e56:	26 0f       	add	r18, r22
    2e58:	60 91 63 02 	lds	r22, 0x0263	; 0x800263 <cur_time+0x3>
    2e5c:	66 0f       	add	r22, r22
    2e5e:	60 56       	subi	r22, 0x60	; 96
    2e60:	96 2f       	mov	r25, r22
    2e62:	99 0f       	add	r25, r25
    2e64:	99 0f       	add	r25, r25
    2e66:	69 0f       	add	r22, r25
    2e68:	62 0f       	add	r22, r18
    2e6a:	60 93 5d 03 	sts	0x035D, r22	; 0x80035d <min>
    2e6e:	40 91 63 03 	lds	r20, 0x0363	; 0x800363 <sec>
    2e72:	23 d8       	rcall	.-4026   	; 0x1eba <RTC_Set_Time>
    2e74:	bb cf       	rjmp	.-138    	; 0x2dec <menu_in_loop+0x3e>
    2e76:	95 e3       	ldi	r25, 0x35	; 53
    2e78:	a9 2e       	mov	r10, r25
    2e7a:	91 e0       	ldi	r25, 0x01	; 1
    2e7c:	b9 2e       	mov	r11, r25
    2e7e:	10 e0       	ldi	r17, 0x00	; 0
    2e80:	f5 01       	movw	r30, r10
    2e82:	80 81       	ld	r24, Z
    2e84:	81 11       	cpse	r24, r1
    2e86:	08 c0       	rjmp	.+16     	; 0x2e98 <menu_in_loop+0xea>
    2e88:	10 93 8d 03 	sts	0x038D, r17	; 0x80038d <cur_DOW_RAM>
    2e8c:	60 91 6b 02 	lds	r22, 0x026B	; 0x80026b <flush>
    2e90:	26 2f       	mov	r18, r22
    2e92:	46 2f       	mov	r20, r22
    2e94:	81 2f       	mov	r24, r17
    2e96:	7e d8       	rcall	.-3844   	; 0x1f94 <RTC_Set_Date>
    2e98:	f3 e0       	ldi	r31, 0x03	; 3
    2e9a:	af 0e       	add	r10, r31
    2e9c:	b1 1c       	adc	r11, r1
    2e9e:	1f 5f       	subi	r17, 0xFF	; 255
    2ea0:	17 30       	cpi	r17, 0x07	; 7
    2ea2:	71 f7       	brne	.-36     	; 0x2e80 <menu_in_loop+0xd2>
    2ea4:	ae d8       	rcall	.-3748   	; 0x2002 <convert_to_show>
    2ea6:	a2 cf       	rjmp	.-188    	; 0x2dec <menu_in_loop+0x3e>
    2ea8:	80 91 5f 03 	lds	r24, 0x035F	; 0x80035f <time_nach_s+0x1>
    2eac:	90 e0       	ldi	r25, 0x00	; 0
    2eae:	c0 97       	sbiw	r24, 0x30	; 48
    2eb0:	20 91 5e 03 	lds	r18, 0x035E	; 0x80035e <time_nach_s>
    2eb4:	30 e0       	ldi	r19, 0x00	; 0
    2eb6:	20 53       	subi	r18, 0x30	; 48
    2eb8:	31 09       	sbc	r19, r1
    2eba:	c2 9f       	mul	r28, r18
    2ebc:	80 01       	movw	r16, r0
    2ebe:	c3 9f       	mul	r28, r19
    2ec0:	10 0d       	add	r17, r0
    2ec2:	11 24       	eor	r1, r1
    2ec4:	08 0f       	add	r16, r24
    2ec6:	19 1f       	adc	r17, r25
    2ec8:	b8 01       	movw	r22, r16
    2eca:	84 e3       	ldi	r24, 0x34	; 52
    2ecc:	90 e0       	ldi	r25, 0x00	; 0
    2ece:	0e 94 d2 2b 	call	0x57a4	; 0x57a4 <eeprom_write_word>
    2ed2:	00 93 64 03 	sts	0x0364, r16	; 0x800364 <time_nach_RAM>
    2ed6:	60 91 62 03 	lds	r22, 0x0362	; 0x800362 <time_nach_s+0x4>
    2eda:	70 e0       	ldi	r23, 0x00	; 0
    2edc:	60 53       	subi	r22, 0x30	; 48
    2ede:	71 09       	sbc	r23, r1
    2ee0:	80 91 61 03 	lds	r24, 0x0361	; 0x800361 <time_nach_s+0x3>
    2ee4:	90 e0       	ldi	r25, 0x00	; 0
    2ee6:	c0 97       	sbiw	r24, 0x30	; 48
    2ee8:	c8 9f       	mul	r28, r24
    2eea:	90 01       	movw	r18, r0
    2eec:	c9 9f       	mul	r28, r25
    2eee:	30 0d       	add	r19, r0
    2ef0:	11 24       	eor	r1, r1
    2ef2:	62 0f       	add	r22, r18
    2ef4:	73 1f       	adc	r23, r19
    2ef6:	60 93 65 03 	sts	0x0365, r22	; 0x800365 <time_nach_RAM+0x1>
    2efa:	86 e3       	ldi	r24, 0x36	; 54
    2efc:	90 e0       	ldi	r25, 0x00	; 0
    2efe:	0e 94 d2 2b 	call	0x57a4	; 0x57a4 <eeprom_write_word>
    2f02:	74 cf       	rjmp	.-280    	; 0x2dec <menu_in_loop+0x3e>
    2f04:	80 91 d0 04 	lds	r24, 0x04D0	; 0x8004d0 <time_kon_s+0x1>
    2f08:	90 e0       	ldi	r25, 0x00	; 0
    2f0a:	c0 97       	sbiw	r24, 0x30	; 48
    2f0c:	20 91 cf 04 	lds	r18, 0x04CF	; 0x8004cf <time_kon_s>
    2f10:	30 e0       	ldi	r19, 0x00	; 0
    2f12:	20 53       	subi	r18, 0x30	; 48
    2f14:	31 09       	sbc	r19, r1
    2f16:	c2 9f       	mul	r28, r18
    2f18:	80 01       	movw	r16, r0
    2f1a:	c3 9f       	mul	r28, r19
    2f1c:	10 0d       	add	r17, r0
    2f1e:	11 24       	eor	r1, r1
    2f20:	08 0f       	add	r16, r24
    2f22:	19 1f       	adc	r17, r25
    2f24:	b8 01       	movw	r22, r16
    2f26:	80 e3       	ldi	r24, 0x30	; 48
    2f28:	90 e0       	ldi	r25, 0x00	; 0
    2f2a:	0e 94 d2 2b 	call	0x57a4	; 0x57a4 <eeprom_write_word>
    2f2e:	00 93 8b 03 	sts	0x038B, r16	; 0x80038b <time_kon_RAM>
    2f32:	80 91 d3 04 	lds	r24, 0x04D3	; 0x8004d3 <time_kon_s+0x4>
    2f36:	90 e0       	ldi	r25, 0x00	; 0
    2f38:	c0 97       	sbiw	r24, 0x30	; 48
    2f3a:	20 91 d2 04 	lds	r18, 0x04D2	; 0x8004d2 <time_kon_s+0x3>
    2f3e:	30 e0       	ldi	r19, 0x00	; 0
    2f40:	20 53       	subi	r18, 0x30	; 48
    2f42:	31 09       	sbc	r19, r1
    2f44:	c2 9f       	mul	r28, r18
    2f46:	80 01       	movw	r16, r0
    2f48:	c3 9f       	mul	r28, r19
    2f4a:	10 0d       	add	r17, r0
    2f4c:	11 24       	eor	r1, r1
    2f4e:	08 0f       	add	r16, r24
    2f50:	19 1f       	adc	r17, r25
    2f52:	b8 01       	movw	r22, r16
    2f54:	82 e3       	ldi	r24, 0x32	; 50
    2f56:	90 e0       	ldi	r25, 0x00	; 0
    2f58:	0e 94 d2 2b 	call	0x57a4	; 0x57a4 <eeprom_write_word>
    2f5c:	00 93 8c 03 	sts	0x038C, r16	; 0x80038c <time_kon_RAM+0x1>
    2f60:	45 cf       	rjmp	.-374    	; 0x2dec <menu_in_loop+0x3e>
    2f62:	00 e9       	ldi	r16, 0x90	; 144
    2f64:	13 e0       	ldi	r17, 0x03	; 3
    2f66:	88 e3       	ldi	r24, 0x38	; 56
    2f68:	a8 2e       	mov	r10, r24
    2f6a:	80 e0       	ldi	r24, 0x00	; 0
    2f6c:	b8 2e       	mov	r11, r24
    2f6e:	f8 01       	movw	r30, r16
    2f70:	61 91       	ld	r22, Z+
    2f72:	8f 01       	movw	r16, r30
    2f74:	c5 01       	movw	r24, r10
    2f76:	0e 94 c0 2b 	call	0x5780	; 0x5780 <eeprom_write_byte>
    2f7a:	ff ef       	ldi	r31, 0xFF	; 255
    2f7c:	af 1a       	sub	r10, r31
    2f7e:	bf 0a       	sbc	r11, r31
    2f80:	83 e0       	ldi	r24, 0x03	; 3
    2f82:	07 39       	cpi	r16, 0x97	; 151
    2f84:	18 07       	cpc	r17, r24
    2f86:	99 f7       	brne	.-26     	; 0x2f6e <menu_in_loop+0x1c0>
    2f88:	31 cf       	rjmp	.-414    	; 0x2dec <menu_in_loop+0x3e>
    2f8a:	00 91 33 01 	lds	r16, 0x0133	; 0x800133 <per_shim_s+0x3>
    2f8e:	10 e0       	ldi	r17, 0x00	; 0
    2f90:	00 53       	subi	r16, 0x30	; 48
    2f92:	11 09       	sbc	r17, r1
    2f94:	80 91 30 01 	lds	r24, 0x0130	; 0x800130 <per_shim_s>
    2f98:	90 e0       	ldi	r25, 0x00	; 0
    2f9a:	c0 97       	sbiw	r24, 0x30	; 48
    2f9c:	8e 9d       	mul	r24, r14
    2f9e:	90 01       	movw	r18, r0
    2fa0:	8f 9d       	mul	r24, r15
    2fa2:	30 0d       	add	r19, r0
    2fa4:	9e 9d       	mul	r25, r14
    2fa6:	30 0d       	add	r19, r0
    2fa8:	11 24       	eor	r1, r1
    2faa:	02 0f       	add	r16, r18
    2fac:	13 1f       	adc	r17, r19
    2fae:	80 91 31 01 	lds	r24, 0x0131	; 0x800131 <per_shim_s+0x1>
    2fb2:	90 e0       	ldi	r25, 0x00	; 0
    2fb4:	c0 97       	sbiw	r24, 0x30	; 48
    2fb6:	d8 9f       	mul	r29, r24
    2fb8:	90 01       	movw	r18, r0
    2fba:	d9 9f       	mul	r29, r25
    2fbc:	30 0d       	add	r19, r0
    2fbe:	11 24       	eor	r1, r1
    2fc0:	02 0f       	add	r16, r18
    2fc2:	13 1f       	adc	r17, r19
    2fc4:	20 91 32 01 	lds	r18, 0x0132	; 0x800132 <per_shim_s+0x2>
    2fc8:	30 e0       	ldi	r19, 0x00	; 0
    2fca:	20 53       	subi	r18, 0x30	; 48
    2fcc:	31 09       	sbc	r19, r1
    2fce:	c2 9f       	mul	r28, r18
    2fd0:	c0 01       	movw	r24, r0
    2fd2:	c3 9f       	mul	r28, r19
    2fd4:	90 0d       	add	r25, r0
    2fd6:	11 24       	eor	r1, r1
    2fd8:	08 0f       	add	r16, r24
    2fda:	19 1f       	adc	r17, r25
    2fdc:	08 30       	cpi	r16, 0x08	; 8
    2fde:	97 e0       	ldi	r25, 0x07	; 7
    2fe0:	19 07       	cpc	r17, r25
    2fe2:	40 f4       	brcc	.+16     	; 0x2ff4 <menu_in_loop+0x246>
    2fe4:	80 e4       	ldi	r24, 0x40	; 64
    2fe6:	0e 94 c4 02 	call	0x588	; 0x588 <_LED_Set_Addres>
    2fea:	87 e8       	ldi	r24, 0x87	; 135
    2fec:	93 e0       	ldi	r25, 0x03	; 3
    2fee:	0e 94 30 03 	call	0x660	; 0x660 <LED_Write_String_P>
    2ff2:	fc ce       	rjmp	.-520    	; 0x2dec <menu_in_loop+0x3e>
    2ff4:	b8 01       	movw	r22, r16
    2ff6:	81 e4       	ldi	r24, 0x41	; 65
    2ff8:	90 e0       	ldi	r25, 0x00	; 0
    2ffa:	0e 94 d2 2b 	call	0x57a4	; 0x57a4 <eeprom_write_word>
    2ffe:	10 93 6d 03 	sts	0x036D, r17	; 0x80036d <per_shim_RAM+0x1>
    3002:	00 93 6c 03 	sts	0x036C, r16	; 0x80036c <per_shim_RAM>
    3006:	10 92 9d 01 	sts	0x019D, r1	; 0x80019d <time_10_shim>
    300a:	10 92 9e 01 	sts	0x019E, r1	; 0x80019e <time_10_shim+0x1>
    300e:	10 92 9f 01 	sts	0x019F, r1	; 0x80019f <time_10_shim+0x2>
    3012:	10 92 a0 01 	sts	0x01A0, r1	; 0x8001a0 <time_10_shim+0x3>
    3016:	ea ce       	rjmp	.-556    	; 0x2dec <menu_in_loop+0x3e>
    3018:	80 91 2e 01 	lds	r24, 0x012E	; 0x80012e <per_dat_s+0x3>
    301c:	90 e0       	ldi	r25, 0x00	; 0
    301e:	c0 97       	sbiw	r24, 0x30	; 48
    3020:	20 91 2b 01 	lds	r18, 0x012B	; 0x80012b <per_dat_s>
    3024:	30 e0       	ldi	r19, 0x00	; 0
    3026:	20 53       	subi	r18, 0x30	; 48
    3028:	31 09       	sbc	r19, r1
    302a:	2e 9d       	mul	r18, r14
    302c:	80 01       	movw	r16, r0
    302e:	2f 9d       	mul	r18, r15
    3030:	10 0d       	add	r17, r0
    3032:	3e 9d       	mul	r19, r14
    3034:	10 0d       	add	r17, r0
    3036:	11 24       	eor	r1, r1
    3038:	08 0f       	add	r16, r24
    303a:	19 1f       	adc	r17, r25
    303c:	80 91 2c 01 	lds	r24, 0x012C	; 0x80012c <per_dat_s+0x1>
    3040:	90 e0       	ldi	r25, 0x00	; 0
    3042:	c0 97       	sbiw	r24, 0x30	; 48
    3044:	d8 9f       	mul	r29, r24
    3046:	90 01       	movw	r18, r0
    3048:	d9 9f       	mul	r29, r25
    304a:	30 0d       	add	r19, r0
    304c:	11 24       	eor	r1, r1
    304e:	02 0f       	add	r16, r18
    3050:	13 1f       	adc	r17, r19
    3052:	80 91 2d 01 	lds	r24, 0x012D	; 0x80012d <per_dat_s+0x2>
    3056:	90 e0       	ldi	r25, 0x00	; 0
    3058:	c0 97       	sbiw	r24, 0x30	; 48
    305a:	c8 9f       	mul	r28, r24
    305c:	90 01       	movw	r18, r0
    305e:	c9 9f       	mul	r28, r25
    3060:	30 0d       	add	r19, r0
    3062:	11 24       	eor	r1, r1
    3064:	02 0f       	add	r16, r18
    3066:	13 1f       	adc	r17, r19
    3068:	b8 01       	movw	r22, r16
    306a:	8f e3       	ldi	r24, 0x3F	; 63
    306c:	90 e0       	ldi	r25, 0x00	; 0
    306e:	0e 94 d2 2b 	call	0x57a4	; 0x57a4 <eeprom_write_word>
    3072:	10 93 8f 03 	sts	0x038F, r17	; 0x80038f <per_dat_RAM+0x1>
    3076:	00 93 8e 03 	sts	0x038E, r16	; 0x80038e <per_dat_RAM>
    307a:	10 92 a1 01 	sts	0x01A1, r1	; 0x8001a1 <time_10_dat>
    307e:	10 92 a2 01 	sts	0x01A2, r1	; 0x8001a2 <time_10_dat+0x1>
    3082:	10 92 a3 01 	sts	0x01A3, r1	; 0x8001a3 <time_10_dat+0x2>
    3086:	10 92 a4 01 	sts	0x01A4, r1	; 0x8001a4 <time_10_dat+0x3>
    308a:	b0 ce       	rjmp	.-672    	; 0x2dec <menu_in_loop+0x3e>
    308c:	80 91 2d 03 	lds	r24, 0x032D	; 0x80032d <temp_den_s+0x1>
    3090:	90 e0       	ldi	r25, 0x00	; 0
    3092:	c0 97       	sbiw	r24, 0x30	; 48
    3094:	20 91 2c 03 	lds	r18, 0x032C	; 0x80032c <temp_den_s>
    3098:	30 e0       	ldi	r19, 0x00	; 0
    309a:	20 53       	subi	r18, 0x30	; 48
    309c:	31 09       	sbc	r19, r1
    309e:	c2 9f       	mul	r28, r18
    30a0:	80 01       	movw	r16, r0
    30a2:	c3 9f       	mul	r28, r19
    30a4:	10 0d       	add	r17, r0
    30a6:	11 24       	eor	r1, r1
    30a8:	08 0f       	add	r16, r24
    30aa:	19 1f       	adc	r17, r25
    30ac:	b8 01       	movw	r22, r16
    30ae:	8a e2       	ldi	r24, 0x2A	; 42
    30b0:	90 e0       	ldi	r25, 0x00	; 0
    30b2:	0e 94 d2 2b 	call	0x57a4	; 0x57a4 <eeprom_write_word>
    30b6:	10 93 67 03 	sts	0x0367, r17	; 0x800367 <temp_den_RAM+0x1>
    30ba:	00 93 66 03 	sts	0x0366, r16	; 0x800366 <temp_den_RAM>
    30be:	96 ce       	rjmp	.-724    	; 0x2dec <menu_in_loop+0x3e>
    30c0:	80 91 d5 04 	lds	r24, 0x04D5	; 0x8004d5 <temp_noch_s+0x1>
    30c4:	90 e0       	ldi	r25, 0x00	; 0
    30c6:	c0 97       	sbiw	r24, 0x30	; 48
    30c8:	20 91 d4 04 	lds	r18, 0x04D4	; 0x8004d4 <temp_noch_s>
    30cc:	30 e0       	ldi	r19, 0x00	; 0
    30ce:	20 53       	subi	r18, 0x30	; 48
    30d0:	31 09       	sbc	r19, r1
    30d2:	c2 9f       	mul	r28, r18
    30d4:	80 01       	movw	r16, r0
    30d6:	c3 9f       	mul	r28, r19
    30d8:	10 0d       	add	r17, r0
    30da:	11 24       	eor	r1, r1
    30dc:	08 0f       	add	r16, r24
    30de:	19 1f       	adc	r17, r25
    30e0:	b8 01       	movw	r22, r16
    30e2:	84 e2       	ldi	r24, 0x24	; 36
    30e4:	90 e0       	ldi	r25, 0x00	; 0
    30e6:	0e 94 d2 2b 	call	0x57a4	; 0x57a4 <eeprom_write_word>
    30ea:	10 93 5b 02 	sts	0x025B, r17	; 0x80025b <temp_noch_RAM+0x1>
    30ee:	00 93 5a 02 	sts	0x025A, r16	; 0x80025a <temp_noch_RAM>
    30f2:	7c ce       	rjmp	.-776    	; 0x2dec <menu_in_loop+0x3e>
    30f4:	e6 e1       	ldi	r30, 0x16	; 22
    30f6:	f1 e0       	ldi	r31, 0x01	; 1
    30f8:	80 e0       	ldi	r24, 0x00	; 0
    30fa:	90 e0       	ldi	r25, 0x00	; 0
    30fc:	21 91       	ld	r18, Z+
    30fe:	2e 32       	cpi	r18, 0x2E	; 46
    3100:	09 f4       	brne	.+2      	; 0x3104 <menu_in_loop+0x356>
    3102:	98 2f       	mov	r25, r24
    3104:	8f 5f       	subi	r24, 0xFF	; 255
    3106:	85 30       	cpi	r24, 0x05	; 5
    3108:	c9 f7       	brne	.-14     	; 0x30fc <menu_in_loop+0x34e>
    310a:	91 30       	cpi	r25, 0x01	; 1
    310c:	49 f5       	brne	.+82     	; 0x3160 <menu_in_loop+0x3b2>
    310e:	a0 91 16 01 	lds	r26, 0x0116	; 0x800116 <K_P_s>
    3112:	b0 e0       	ldi	r27, 0x00	; 0
    3114:	d0 97       	sbiw	r26, 0x30	; 48
    3116:	28 ee       	ldi	r18, 0xE8	; 232
    3118:	33 e0       	ldi	r19, 0x03	; 3
    311a:	0e 94 df 28 	call	0x51be	; 0x51be <__usmulhisi3>
    311e:	20 91 18 01 	lds	r18, 0x0118	; 0x800118 <K_P_s+0x2>
    3122:	30 e0       	ldi	r19, 0x00	; 0
    3124:	20 53       	subi	r18, 0x30	; 48
    3126:	31 09       	sbc	r19, r1
    3128:	d2 9f       	mul	r29, r18
    312a:	40 01       	movw	r8, r0
    312c:	d3 9f       	mul	r29, r19
    312e:	90 0c       	add	r9, r0
    3130:	11 24       	eor	r1, r1
    3132:	09 2c       	mov	r0, r9
    3134:	00 0c       	add	r0, r0
    3136:	aa 08       	sbc	r10, r10
    3138:	bb 08       	sbc	r11, r11
    313a:	86 0e       	add	r8, r22
    313c:	97 1e       	adc	r9, r23
    313e:	a8 1e       	adc	r10, r24
    3140:	b9 1e       	adc	r11, r25
    3142:	80 91 1a 01 	lds	r24, 0x011A	; 0x80011a <K_P_s+0x4>
    3146:	90 e0       	ldi	r25, 0x00	; 0
    3148:	c0 97       	sbiw	r24, 0x30	; 48
    314a:	09 2e       	mov	r0, r25
    314c:	00 0c       	add	r0, r0
    314e:	aa 0b       	sbc	r26, r26
    3150:	bb 0b       	sbc	r27, r27
    3152:	88 0e       	add	r8, r24
    3154:	99 1e       	adc	r9, r25
    3156:	aa 1e       	adc	r10, r26
    3158:	bb 1e       	adc	r11, r27
    315a:	20 91 19 01 	lds	r18, 0x0119	; 0x800119 <K_P_s+0x3>
    315e:	3f c0       	rjmp	.+126    	; 0x31de <menu_in_loop+0x430>
    3160:	92 30       	cpi	r25, 0x02	; 2
    3162:	09 f0       	breq	.+2      	; 0x3166 <menu_in_loop+0x3b8>
    3164:	4d c0       	rjmp	.+154    	; 0x3200 <menu_in_loop+0x452>
    3166:	a0 91 16 01 	lds	r26, 0x0116	; 0x800116 <K_P_s>
    316a:	b0 e0       	ldi	r27, 0x00	; 0
    316c:	d0 97       	sbiw	r26, 0x30	; 48
    316e:	20 e1       	ldi	r18, 0x10	; 16
    3170:	37 e2       	ldi	r19, 0x27	; 39
    3172:	0e 94 df 28 	call	0x51be	; 0x51be <__usmulhisi3>
    3176:	20 91 17 01 	lds	r18, 0x0117	; 0x800117 <K_P_s+0x1>
    317a:	30 e0       	ldi	r19, 0x00	; 0
    317c:	20 53       	subi	r18, 0x30	; 48
    317e:	31 09       	sbc	r19, r1
    3180:	2e 9d       	mul	r18, r14
    3182:	40 01       	movw	r8, r0
    3184:	2f 9d       	mul	r18, r15
    3186:	90 0c       	add	r9, r0
    3188:	3e 9d       	mul	r19, r14
    318a:	90 0c       	add	r9, r0
    318c:	11 24       	eor	r1, r1
    318e:	09 2c       	mov	r0, r9
    3190:	00 0c       	add	r0, r0
    3192:	aa 08       	sbc	r10, r10
    3194:	bb 08       	sbc	r11, r11
    3196:	86 0e       	add	r8, r22
    3198:	97 1e       	adc	r9, r23
    319a:	a8 1e       	adc	r10, r24
    319c:	b9 1e       	adc	r11, r25
    319e:	80 91 1b 01 	lds	r24, 0x011B	; 0x80011b <K_P_s+0x5>
    31a2:	90 e0       	ldi	r25, 0x00	; 0
    31a4:	c0 97       	sbiw	r24, 0x30	; 48
    31a6:	09 2e       	mov	r0, r25
    31a8:	00 0c       	add	r0, r0
    31aa:	aa 0b       	sbc	r26, r26
    31ac:	bb 0b       	sbc	r27, r27
    31ae:	88 0d       	add	r24, r8
    31b0:	99 1d       	adc	r25, r9
    31b2:	aa 1d       	adc	r26, r10
    31b4:	bb 1d       	adc	r27, r11
    31b6:	20 91 19 01 	lds	r18, 0x0119	; 0x800119 <K_P_s+0x3>
    31ba:	30 e0       	ldi	r19, 0x00	; 0
    31bc:	20 53       	subi	r18, 0x30	; 48
    31be:	31 09       	sbc	r19, r1
    31c0:	d2 9f       	mul	r29, r18
    31c2:	40 01       	movw	r8, r0
    31c4:	d3 9f       	mul	r29, r19
    31c6:	90 0c       	add	r9, r0
    31c8:	11 24       	eor	r1, r1
    31ca:	09 2c       	mov	r0, r9
    31cc:	00 0c       	add	r0, r0
    31ce:	aa 08       	sbc	r10, r10
    31d0:	bb 08       	sbc	r11, r11
    31d2:	88 0e       	add	r8, r24
    31d4:	99 1e       	adc	r9, r25
    31d6:	aa 1e       	adc	r10, r26
    31d8:	bb 1e       	adc	r11, r27
    31da:	20 91 1a 01 	lds	r18, 0x011A	; 0x80011a <K_P_s+0x4>
    31de:	30 e0       	ldi	r19, 0x00	; 0
    31e0:	20 53       	subi	r18, 0x30	; 48
    31e2:	31 09       	sbc	r19, r1
    31e4:	c2 9f       	mul	r28, r18
    31e6:	c0 01       	movw	r24, r0
    31e8:	c3 9f       	mul	r28, r19
    31ea:	90 0d       	add	r25, r0
    31ec:	11 24       	eor	r1, r1
    31ee:	09 2e       	mov	r0, r25
    31f0:	00 0c       	add	r0, r0
    31f2:	aa 0b       	sbc	r26, r26
    31f4:	bb 0b       	sbc	r27, r27
    31f6:	88 0e       	add	r8, r24
    31f8:	99 1e       	adc	r9, r25
    31fa:	aa 1e       	adc	r10, r26
    31fc:	bb 1e       	adc	r11, r27
    31fe:	03 c0       	rjmp	.+6      	; 0x3206 <menu_in_loop+0x458>
    3200:	81 2c       	mov	r8, r1
    3202:	91 2c       	mov	r9, r1
    3204:	54 01       	movw	r10, r8
    3206:	b5 01       	movw	r22, r10
    3208:	a4 01       	movw	r20, r8
    320a:	88 e1       	ldi	r24, 0x18	; 24
    320c:	90 e0       	ldi	r25, 0x00	; 0
    320e:	0e 94 cd 2b 	call	0x579a	; 0x579a <eeprom_write_dword>
    3212:	80 92 f1 02 	sts	0x02F1, r8	; 0x8002f1 <K_P_RAM>
    3216:	90 92 f2 02 	sts	0x02F2, r9	; 0x8002f2 <K_P_RAM+0x1>
    321a:	a0 92 f3 02 	sts	0x02F3, r10	; 0x8002f3 <K_P_RAM+0x2>
    321e:	b0 92 f4 02 	sts	0x02F4, r11	; 0x8002f4 <K_P_RAM+0x3>
    3222:	e4 cd       	rjmp	.-1080   	; 0x2dec <menu_in_loop+0x3e>
    3224:	ed ef       	ldi	r30, 0xFD	; 253
    3226:	f2 e0       	ldi	r31, 0x02	; 2
    3228:	80 e0       	ldi	r24, 0x00	; 0
    322a:	90 e0       	ldi	r25, 0x00	; 0
    322c:	21 91       	ld	r18, Z+
    322e:	2e 32       	cpi	r18, 0x2E	; 46
    3230:	09 f4       	brne	.+2      	; 0x3234 <menu_in_loop+0x486>
    3232:	98 2f       	mov	r25, r24
    3234:	8f 5f       	subi	r24, 0xFF	; 255
    3236:	85 30       	cpi	r24, 0x05	; 5
    3238:	c9 f7       	brne	.-14     	; 0x322c <menu_in_loop+0x47e>
    323a:	91 30       	cpi	r25, 0x01	; 1
    323c:	49 f5       	brne	.+82     	; 0x3290 <menu_in_loop+0x4e2>
    323e:	a0 91 fd 02 	lds	r26, 0x02FD	; 0x8002fd <K_I_s>
    3242:	b0 e0       	ldi	r27, 0x00	; 0
    3244:	d0 97       	sbiw	r26, 0x30	; 48
    3246:	28 ee       	ldi	r18, 0xE8	; 232
    3248:	33 e0       	ldi	r19, 0x03	; 3
    324a:	0e 94 df 28 	call	0x51be	; 0x51be <__usmulhisi3>
    324e:	20 91 ff 02 	lds	r18, 0x02FF	; 0x8002ff <K_I_s+0x2>
    3252:	30 e0       	ldi	r19, 0x00	; 0
    3254:	20 53       	subi	r18, 0x30	; 48
    3256:	31 09       	sbc	r19, r1
    3258:	d2 9f       	mul	r29, r18
    325a:	40 01       	movw	r8, r0
    325c:	d3 9f       	mul	r29, r19
    325e:	90 0c       	add	r9, r0
    3260:	11 24       	eor	r1, r1
    3262:	09 2c       	mov	r0, r9
    3264:	00 0c       	add	r0, r0
    3266:	aa 08       	sbc	r10, r10
    3268:	bb 08       	sbc	r11, r11
    326a:	86 0e       	add	r8, r22
    326c:	97 1e       	adc	r9, r23
    326e:	a8 1e       	adc	r10, r24
    3270:	b9 1e       	adc	r11, r25
    3272:	80 91 01 03 	lds	r24, 0x0301	; 0x800301 <K_I_s+0x4>
    3276:	90 e0       	ldi	r25, 0x00	; 0
    3278:	c0 97       	sbiw	r24, 0x30	; 48
    327a:	09 2e       	mov	r0, r25
    327c:	00 0c       	add	r0, r0
    327e:	aa 0b       	sbc	r26, r26
    3280:	bb 0b       	sbc	r27, r27
    3282:	88 0e       	add	r8, r24
    3284:	99 1e       	adc	r9, r25
    3286:	aa 1e       	adc	r10, r26
    3288:	bb 1e       	adc	r11, r27
    328a:	20 91 00 03 	lds	r18, 0x0300	; 0x800300 <K_I_s+0x3>
    328e:	3f c0       	rjmp	.+126    	; 0x330e <menu_in_loop+0x560>
    3290:	92 30       	cpi	r25, 0x02	; 2
    3292:	09 f0       	breq	.+2      	; 0x3296 <menu_in_loop+0x4e8>
    3294:	4d c0       	rjmp	.+154    	; 0x3330 <menu_in_loop+0x582>
    3296:	a0 91 fd 02 	lds	r26, 0x02FD	; 0x8002fd <K_I_s>
    329a:	b0 e0       	ldi	r27, 0x00	; 0
    329c:	d0 97       	sbiw	r26, 0x30	; 48
    329e:	20 e1       	ldi	r18, 0x10	; 16
    32a0:	37 e2       	ldi	r19, 0x27	; 39
    32a2:	0e 94 df 28 	call	0x51be	; 0x51be <__usmulhisi3>
    32a6:	20 91 fe 02 	lds	r18, 0x02FE	; 0x8002fe <K_I_s+0x1>
    32aa:	30 e0       	ldi	r19, 0x00	; 0
    32ac:	20 53       	subi	r18, 0x30	; 48
    32ae:	31 09       	sbc	r19, r1
    32b0:	2e 9d       	mul	r18, r14
    32b2:	40 01       	movw	r8, r0
    32b4:	2f 9d       	mul	r18, r15
    32b6:	90 0c       	add	r9, r0
    32b8:	3e 9d       	mul	r19, r14
    32ba:	90 0c       	add	r9, r0
    32bc:	11 24       	eor	r1, r1
    32be:	09 2c       	mov	r0, r9
    32c0:	00 0c       	add	r0, r0
    32c2:	aa 08       	sbc	r10, r10
    32c4:	bb 08       	sbc	r11, r11
    32c6:	86 0e       	add	r8, r22
    32c8:	97 1e       	adc	r9, r23
    32ca:	a8 1e       	adc	r10, r24
    32cc:	b9 1e       	adc	r11, r25
    32ce:	80 91 02 03 	lds	r24, 0x0302	; 0x800302 <K_I_s+0x5>
    32d2:	90 e0       	ldi	r25, 0x00	; 0
    32d4:	c0 97       	sbiw	r24, 0x30	; 48
    32d6:	09 2e       	mov	r0, r25
    32d8:	00 0c       	add	r0, r0
    32da:	aa 0b       	sbc	r26, r26
    32dc:	bb 0b       	sbc	r27, r27
    32de:	88 0d       	add	r24, r8
    32e0:	99 1d       	adc	r25, r9
    32e2:	aa 1d       	adc	r26, r10
    32e4:	bb 1d       	adc	r27, r11
    32e6:	20 91 00 03 	lds	r18, 0x0300	; 0x800300 <K_I_s+0x3>
    32ea:	30 e0       	ldi	r19, 0x00	; 0
    32ec:	20 53       	subi	r18, 0x30	; 48
    32ee:	31 09       	sbc	r19, r1
    32f0:	d2 9f       	mul	r29, r18
    32f2:	40 01       	movw	r8, r0
    32f4:	d3 9f       	mul	r29, r19
    32f6:	90 0c       	add	r9, r0
    32f8:	11 24       	eor	r1, r1
    32fa:	09 2c       	mov	r0, r9
    32fc:	00 0c       	add	r0, r0
    32fe:	aa 08       	sbc	r10, r10
    3300:	bb 08       	sbc	r11, r11
    3302:	88 0e       	add	r8, r24
    3304:	99 1e       	adc	r9, r25
    3306:	aa 1e       	adc	r10, r26
    3308:	bb 1e       	adc	r11, r27
    330a:	20 91 01 03 	lds	r18, 0x0301	; 0x800301 <K_I_s+0x4>
    330e:	30 e0       	ldi	r19, 0x00	; 0
    3310:	20 53       	subi	r18, 0x30	; 48
    3312:	31 09       	sbc	r19, r1
    3314:	c2 9f       	mul	r28, r18
    3316:	c0 01       	movw	r24, r0
    3318:	c3 9f       	mul	r28, r19
    331a:	90 0d       	add	r25, r0
    331c:	11 24       	eor	r1, r1
    331e:	09 2e       	mov	r0, r25
    3320:	00 0c       	add	r0, r0
    3322:	aa 0b       	sbc	r26, r26
    3324:	bb 0b       	sbc	r27, r27
    3326:	88 0e       	add	r8, r24
    3328:	99 1e       	adc	r9, r25
    332a:	aa 1e       	adc	r10, r26
    332c:	bb 1e       	adc	r11, r27
    332e:	03 c0       	rjmp	.+6      	; 0x3336 <menu_in_loop+0x588>
    3330:	81 2c       	mov	r8, r1
    3332:	91 2c       	mov	r9, r1
    3334:	54 01       	movw	r10, r8
    3336:	b5 01       	movw	r22, r10
    3338:	a4 01       	movw	r20, r8
    333a:	8c e0       	ldi	r24, 0x0C	; 12
    333c:	90 e0       	ldi	r25, 0x00	; 0
    333e:	0e 94 cd 2b 	call	0x579a	; 0x579a <eeprom_write_dword>
    3342:	80 92 6e 03 	sts	0x036E, r8	; 0x80036e <K_I_RAM>
    3346:	90 92 6f 03 	sts	0x036F, r9	; 0x80036f <K_I_RAM+0x1>
    334a:	a0 92 70 03 	sts	0x0370, r10	; 0x800370 <K_I_RAM+0x2>
    334e:	b0 92 71 03 	sts	0x0371, r11	; 0x800371 <K_I_RAM+0x3>
    3352:	4c cd       	rjmp	.-1384   	; 0x2dec <menu_in_loop+0x3e>
    3354:	e1 e0       	ldi	r30, 0x01	; 1
    3356:	f1 e0       	ldi	r31, 0x01	; 1
    3358:	80 e0       	ldi	r24, 0x00	; 0
    335a:	90 e0       	ldi	r25, 0x00	; 0
    335c:	21 91       	ld	r18, Z+
    335e:	2e 32       	cpi	r18, 0x2E	; 46
    3360:	09 f4       	brne	.+2      	; 0x3364 <menu_in_loop+0x5b6>
    3362:	98 2f       	mov	r25, r24
    3364:	8f 5f       	subi	r24, 0xFF	; 255
    3366:	85 30       	cpi	r24, 0x05	; 5
    3368:	c9 f7       	brne	.-14     	; 0x335c <menu_in_loop+0x5ae>
    336a:	91 30       	cpi	r25, 0x01	; 1
    336c:	49 f5       	brne	.+82     	; 0x33c0 <menu_in_loop+0x612>
    336e:	a0 91 01 01 	lds	r26, 0x0101	; 0x800101 <K_D_s>
    3372:	b0 e0       	ldi	r27, 0x00	; 0
    3374:	d0 97       	sbiw	r26, 0x30	; 48
    3376:	28 ee       	ldi	r18, 0xE8	; 232
    3378:	33 e0       	ldi	r19, 0x03	; 3
    337a:	0e 94 df 28 	call	0x51be	; 0x51be <__usmulhisi3>
    337e:	20 91 03 01 	lds	r18, 0x0103	; 0x800103 <K_D_s+0x2>
    3382:	30 e0       	ldi	r19, 0x00	; 0
    3384:	20 53       	subi	r18, 0x30	; 48
    3386:	31 09       	sbc	r19, r1
    3388:	d2 9f       	mul	r29, r18
    338a:	40 01       	movw	r8, r0
    338c:	d3 9f       	mul	r29, r19
    338e:	90 0c       	add	r9, r0
    3390:	11 24       	eor	r1, r1
    3392:	09 2c       	mov	r0, r9
    3394:	00 0c       	add	r0, r0
    3396:	aa 08       	sbc	r10, r10
    3398:	bb 08       	sbc	r11, r11
    339a:	86 0e       	add	r8, r22
    339c:	97 1e       	adc	r9, r23
    339e:	a8 1e       	adc	r10, r24
    33a0:	b9 1e       	adc	r11, r25
    33a2:	80 91 05 01 	lds	r24, 0x0105	; 0x800105 <K_D_s+0x4>
    33a6:	90 e0       	ldi	r25, 0x00	; 0
    33a8:	c0 97       	sbiw	r24, 0x30	; 48
    33aa:	09 2e       	mov	r0, r25
    33ac:	00 0c       	add	r0, r0
    33ae:	aa 0b       	sbc	r26, r26
    33b0:	bb 0b       	sbc	r27, r27
    33b2:	88 0e       	add	r8, r24
    33b4:	99 1e       	adc	r9, r25
    33b6:	aa 1e       	adc	r10, r26
    33b8:	bb 1e       	adc	r11, r27
    33ba:	20 91 04 01 	lds	r18, 0x0104	; 0x800104 <K_D_s+0x3>
    33be:	3f c0       	rjmp	.+126    	; 0x343e <menu_in_loop+0x690>
    33c0:	92 30       	cpi	r25, 0x02	; 2
    33c2:	09 f0       	breq	.+2      	; 0x33c6 <menu_in_loop+0x618>
    33c4:	4d c0       	rjmp	.+154    	; 0x3460 <menu_in_loop+0x6b2>
    33c6:	a0 91 01 01 	lds	r26, 0x0101	; 0x800101 <K_D_s>
    33ca:	b0 e0       	ldi	r27, 0x00	; 0
    33cc:	d0 97       	sbiw	r26, 0x30	; 48
    33ce:	20 e1       	ldi	r18, 0x10	; 16
    33d0:	37 e2       	ldi	r19, 0x27	; 39
    33d2:	0e 94 df 28 	call	0x51be	; 0x51be <__usmulhisi3>
    33d6:	20 91 02 01 	lds	r18, 0x0102	; 0x800102 <K_D_s+0x1>
    33da:	30 e0       	ldi	r19, 0x00	; 0
    33dc:	20 53       	subi	r18, 0x30	; 48
    33de:	31 09       	sbc	r19, r1
    33e0:	2e 9d       	mul	r18, r14
    33e2:	40 01       	movw	r8, r0
    33e4:	2f 9d       	mul	r18, r15
    33e6:	90 0c       	add	r9, r0
    33e8:	3e 9d       	mul	r19, r14
    33ea:	90 0c       	add	r9, r0
    33ec:	11 24       	eor	r1, r1
    33ee:	09 2c       	mov	r0, r9
    33f0:	00 0c       	add	r0, r0
    33f2:	aa 08       	sbc	r10, r10
    33f4:	bb 08       	sbc	r11, r11
    33f6:	86 0e       	add	r8, r22
    33f8:	97 1e       	adc	r9, r23
    33fa:	a8 1e       	adc	r10, r24
    33fc:	b9 1e       	adc	r11, r25
    33fe:	80 91 06 01 	lds	r24, 0x0106	; 0x800106 <K_D_s+0x5>
    3402:	90 e0       	ldi	r25, 0x00	; 0
    3404:	c0 97       	sbiw	r24, 0x30	; 48
    3406:	09 2e       	mov	r0, r25
    3408:	00 0c       	add	r0, r0
    340a:	aa 0b       	sbc	r26, r26
    340c:	bb 0b       	sbc	r27, r27
    340e:	88 0d       	add	r24, r8
    3410:	99 1d       	adc	r25, r9
    3412:	aa 1d       	adc	r26, r10
    3414:	bb 1d       	adc	r27, r11
    3416:	20 91 04 01 	lds	r18, 0x0104	; 0x800104 <K_D_s+0x3>
    341a:	30 e0       	ldi	r19, 0x00	; 0
    341c:	20 53       	subi	r18, 0x30	; 48
    341e:	31 09       	sbc	r19, r1
    3420:	d2 9f       	mul	r29, r18
    3422:	40 01       	movw	r8, r0
    3424:	d3 9f       	mul	r29, r19
    3426:	90 0c       	add	r9, r0
    3428:	11 24       	eor	r1, r1
    342a:	09 2c       	mov	r0, r9
    342c:	00 0c       	add	r0, r0
    342e:	aa 08       	sbc	r10, r10
    3430:	bb 08       	sbc	r11, r11
    3432:	88 0e       	add	r8, r24
    3434:	99 1e       	adc	r9, r25
    3436:	aa 1e       	adc	r10, r26
    3438:	bb 1e       	adc	r11, r27
    343a:	20 91 05 01 	lds	r18, 0x0105	; 0x800105 <K_D_s+0x4>
    343e:	30 e0       	ldi	r19, 0x00	; 0
    3440:	20 53       	subi	r18, 0x30	; 48
    3442:	31 09       	sbc	r19, r1
    3444:	c2 9f       	mul	r28, r18
    3446:	c0 01       	movw	r24, r0
    3448:	c3 9f       	mul	r28, r19
    344a:	90 0d       	add	r25, r0
    344c:	11 24       	eor	r1, r1
    344e:	09 2e       	mov	r0, r25
    3450:	00 0c       	add	r0, r0
    3452:	aa 0b       	sbc	r26, r26
    3454:	bb 0b       	sbc	r27, r27
    3456:	88 0e       	add	r8, r24
    3458:	99 1e       	adc	r9, r25
    345a:	aa 1e       	adc	r10, r26
    345c:	bb 1e       	adc	r11, r27
    345e:	03 c0       	rjmp	.+6      	; 0x3466 <menu_in_loop+0x6b8>
    3460:	81 2c       	mov	r8, r1
    3462:	91 2c       	mov	r9, r1
    3464:	54 01       	movw	r10, r8
    3466:	b5 01       	movw	r22, r10
    3468:	a4 01       	movw	r20, r8
    346a:	80 e0       	ldi	r24, 0x00	; 0
    346c:	90 e0       	ldi	r25, 0x00	; 0
    346e:	0e 94 cd 2b 	call	0x579a	; 0x579a <eeprom_write_dword>
    3472:	80 92 7f 03 	sts	0x037F, r8	; 0x80037f <K_D_RAM>
    3476:	90 92 80 03 	sts	0x0380, r9	; 0x800380 <K_D_RAM+0x1>
    347a:	a0 92 81 03 	sts	0x0381, r10	; 0x800381 <K_D_RAM+0x2>
    347e:	b0 92 82 03 	sts	0x0382, r11	; 0x800382 <K_D_RAM+0x3>
    3482:	b4 cc       	rjmp	.-1688   	; 0x2dec <menu_in_loop+0x3e>
    3484:	80 91 2f 03 	lds	r24, 0x032F	; 0x80032f <temp_den_s+0x3>
    3488:	90 e0       	ldi	r25, 0x00	; 0
    348a:	c0 97       	sbiw	r24, 0x30	; 48
    348c:	20 91 2e 03 	lds	r18, 0x032E	; 0x80032e <temp_den_s+0x2>
    3490:	30 e0       	ldi	r19, 0x00	; 0
    3492:	20 53       	subi	r18, 0x30	; 48
    3494:	31 09       	sbc	r19, r1
    3496:	c2 9f       	mul	r28, r18
    3498:	80 01       	movw	r16, r0
    349a:	c3 9f       	mul	r28, r19
    349c:	10 0d       	add	r17, r0
    349e:	11 24       	eor	r1, r1
    34a0:	08 0f       	add	r16, r24
    34a2:	19 1f       	adc	r17, r25
    34a4:	b8 01       	movw	r22, r16
    34a6:	8c e2       	ldi	r24, 0x2C	; 44
    34a8:	90 e0       	ldi	r25, 0x00	; 0
    34aa:	0e 94 d2 2b 	call	0x57a4	; 0x57a4 <eeprom_write_word>
    34ae:	10 93 69 03 	sts	0x0369, r17	; 0x800369 <temp_den_RAM+0x3>
    34b2:	00 93 68 03 	sts	0x0368, r16	; 0x800368 <temp_den_RAM+0x2>
    34b6:	9a cc       	rjmp	.-1740   	; 0x2dec <menu_in_loop+0x3e>
    34b8:	80 91 d7 04 	lds	r24, 0x04D7	; 0x8004d7 <temp_noch_s+0x3>
    34bc:	90 e0       	ldi	r25, 0x00	; 0
    34be:	c0 97       	sbiw	r24, 0x30	; 48
    34c0:	20 91 d6 04 	lds	r18, 0x04D6	; 0x8004d6 <temp_noch_s+0x2>
    34c4:	30 e0       	ldi	r19, 0x00	; 0
    34c6:	20 53       	subi	r18, 0x30	; 48
    34c8:	31 09       	sbc	r19, r1
    34ca:	c2 9f       	mul	r28, r18
    34cc:	80 01       	movw	r16, r0
    34ce:	c3 9f       	mul	r28, r19
    34d0:	10 0d       	add	r17, r0
    34d2:	11 24       	eor	r1, r1
    34d4:	08 0f       	add	r16, r24
    34d6:	19 1f       	adc	r17, r25
    34d8:	b8 01       	movw	r22, r16
    34da:	86 e2       	ldi	r24, 0x26	; 38
    34dc:	90 e0       	ldi	r25, 0x00	; 0
    34de:	0e 94 d2 2b 	call	0x57a4	; 0x57a4 <eeprom_write_word>
    34e2:	10 93 5d 02 	sts	0x025D, r17	; 0x80025d <temp_noch_RAM+0x3>
    34e6:	00 93 5c 02 	sts	0x025C, r16	; 0x80025c <temp_noch_RAM+0x2>
    34ea:	80 cc       	rjmp	.-1792   	; 0x2dec <menu_in_loop+0x3e>
    34ec:	20 e0       	ldi	r18, 0x00	; 0
    34ee:	80 e0       	ldi	r24, 0x00	; 0
    34f0:	90 e0       	ldi	r25, 0x00	; 0
    34f2:	fc 01       	movw	r30, r24
    34f4:	ea 5e       	subi	r30, 0xEA	; 234
    34f6:	fe 4f       	sbci	r31, 0xFE	; 254
    34f8:	37 81       	ldd	r19, Z+7	; 0x07
    34fa:	3e 32       	cpi	r19, 0x2E	; 46
    34fc:	09 f4       	brne	.+2      	; 0x3500 <menu_in_loop+0x752>
    34fe:	28 2f       	mov	r18, r24
    3500:	01 96       	adiw	r24, 0x01	; 1
    3502:	85 30       	cpi	r24, 0x05	; 5
    3504:	91 05       	cpc	r25, r1
    3506:	a9 f7       	brne	.-22     	; 0x34f2 <menu_in_loop+0x744>
    3508:	21 30       	cpi	r18, 0x01	; 1
    350a:	49 f5       	brne	.+82     	; 0x355e <menu_in_loop+0x7b0>
    350c:	a0 91 1d 01 	lds	r26, 0x011D	; 0x80011d <K_P_s+0x7>
    3510:	b0 e0       	ldi	r27, 0x00	; 0
    3512:	d0 97       	sbiw	r26, 0x30	; 48
    3514:	28 ee       	ldi	r18, 0xE8	; 232
    3516:	33 e0       	ldi	r19, 0x03	; 3
    3518:	0e 94 df 28 	call	0x51be	; 0x51be <__usmulhisi3>
    351c:	20 91 1f 01 	lds	r18, 0x011F	; 0x80011f <K_P_s+0x9>
    3520:	30 e0       	ldi	r19, 0x00	; 0
    3522:	20 53       	subi	r18, 0x30	; 48
    3524:	31 09       	sbc	r19, r1
    3526:	d2 9f       	mul	r29, r18
    3528:	40 01       	movw	r8, r0
    352a:	d3 9f       	mul	r29, r19
    352c:	90 0c       	add	r9, r0
    352e:	11 24       	eor	r1, r1
    3530:	09 2c       	mov	r0, r9
    3532:	00 0c       	add	r0, r0
    3534:	aa 08       	sbc	r10, r10
    3536:	bb 08       	sbc	r11, r11
    3538:	86 0e       	add	r8, r22
    353a:	97 1e       	adc	r9, r23
    353c:	a8 1e       	adc	r10, r24
    353e:	b9 1e       	adc	r11, r25
    3540:	80 91 21 01 	lds	r24, 0x0121	; 0x800121 <K_P_s+0xb>
    3544:	90 e0       	ldi	r25, 0x00	; 0
    3546:	c0 97       	sbiw	r24, 0x30	; 48
    3548:	09 2e       	mov	r0, r25
    354a:	00 0c       	add	r0, r0
    354c:	aa 0b       	sbc	r26, r26
    354e:	bb 0b       	sbc	r27, r27
    3550:	88 0e       	add	r8, r24
    3552:	99 1e       	adc	r9, r25
    3554:	aa 1e       	adc	r10, r26
    3556:	bb 1e       	adc	r11, r27
    3558:	20 91 20 01 	lds	r18, 0x0120	; 0x800120 <K_P_s+0xa>
    355c:	3f c0       	rjmp	.+126    	; 0x35dc <menu_in_loop+0x82e>
    355e:	22 30       	cpi	r18, 0x02	; 2
    3560:	09 f0       	breq	.+2      	; 0x3564 <menu_in_loop+0x7b6>
    3562:	4d c0       	rjmp	.+154    	; 0x35fe <menu_in_loop+0x850>
    3564:	a0 91 1d 01 	lds	r26, 0x011D	; 0x80011d <K_P_s+0x7>
    3568:	b0 e0       	ldi	r27, 0x00	; 0
    356a:	d0 97       	sbiw	r26, 0x30	; 48
    356c:	20 e1       	ldi	r18, 0x10	; 16
    356e:	37 e2       	ldi	r19, 0x27	; 39
    3570:	0e 94 df 28 	call	0x51be	; 0x51be <__usmulhisi3>
    3574:	20 91 1e 01 	lds	r18, 0x011E	; 0x80011e <K_P_s+0x8>
    3578:	30 e0       	ldi	r19, 0x00	; 0
    357a:	20 53       	subi	r18, 0x30	; 48
    357c:	31 09       	sbc	r19, r1
    357e:	2e 9d       	mul	r18, r14
    3580:	40 01       	movw	r8, r0
    3582:	2f 9d       	mul	r18, r15
    3584:	90 0c       	add	r9, r0
    3586:	3e 9d       	mul	r19, r14
    3588:	90 0c       	add	r9, r0
    358a:	11 24       	eor	r1, r1
    358c:	09 2c       	mov	r0, r9
    358e:	00 0c       	add	r0, r0
    3590:	aa 08       	sbc	r10, r10
    3592:	bb 08       	sbc	r11, r11
    3594:	86 0e       	add	r8, r22
    3596:	97 1e       	adc	r9, r23
    3598:	a8 1e       	adc	r10, r24
    359a:	b9 1e       	adc	r11, r25
    359c:	80 91 22 01 	lds	r24, 0x0122	; 0x800122 <K_P_s+0xc>
    35a0:	90 e0       	ldi	r25, 0x00	; 0
    35a2:	c0 97       	sbiw	r24, 0x30	; 48
    35a4:	09 2e       	mov	r0, r25
    35a6:	00 0c       	add	r0, r0
    35a8:	aa 0b       	sbc	r26, r26
    35aa:	bb 0b       	sbc	r27, r27
    35ac:	88 0d       	add	r24, r8
    35ae:	99 1d       	adc	r25, r9
    35b0:	aa 1d       	adc	r26, r10
    35b2:	bb 1d       	adc	r27, r11
    35b4:	20 91 20 01 	lds	r18, 0x0120	; 0x800120 <K_P_s+0xa>
    35b8:	30 e0       	ldi	r19, 0x00	; 0
    35ba:	20 53       	subi	r18, 0x30	; 48
    35bc:	31 09       	sbc	r19, r1
    35be:	d2 9f       	mul	r29, r18
    35c0:	40 01       	movw	r8, r0
    35c2:	d3 9f       	mul	r29, r19
    35c4:	90 0c       	add	r9, r0
    35c6:	11 24       	eor	r1, r1
    35c8:	09 2c       	mov	r0, r9
    35ca:	00 0c       	add	r0, r0
    35cc:	aa 08       	sbc	r10, r10
    35ce:	bb 08       	sbc	r11, r11
    35d0:	88 0e       	add	r8, r24
    35d2:	99 1e       	adc	r9, r25
    35d4:	aa 1e       	adc	r10, r26
    35d6:	bb 1e       	adc	r11, r27
    35d8:	20 91 21 01 	lds	r18, 0x0121	; 0x800121 <K_P_s+0xb>
    35dc:	30 e0       	ldi	r19, 0x00	; 0
    35de:	20 53       	subi	r18, 0x30	; 48
    35e0:	31 09       	sbc	r19, r1
    35e2:	c2 9f       	mul	r28, r18
    35e4:	c0 01       	movw	r24, r0
    35e6:	c3 9f       	mul	r28, r19
    35e8:	90 0d       	add	r25, r0
    35ea:	11 24       	eor	r1, r1
    35ec:	09 2e       	mov	r0, r25
    35ee:	00 0c       	add	r0, r0
    35f0:	aa 0b       	sbc	r26, r26
    35f2:	bb 0b       	sbc	r27, r27
    35f4:	88 0e       	add	r8, r24
    35f6:	99 1e       	adc	r9, r25
    35f8:	aa 1e       	adc	r10, r26
    35fa:	bb 1e       	adc	r11, r27
    35fc:	03 c0       	rjmp	.+6      	; 0x3604 <menu_in_loop+0x856>
    35fe:	81 2c       	mov	r8, r1
    3600:	91 2c       	mov	r9, r1
    3602:	54 01       	movw	r10, r8
    3604:	b5 01       	movw	r22, r10
    3606:	a4 01       	movw	r20, r8
    3608:	8c e1       	ldi	r24, 0x1C	; 28
    360a:	90 e0       	ldi	r25, 0x00	; 0
    360c:	0e 94 cd 2b 	call	0x579a	; 0x579a <eeprom_write_dword>
    3610:	80 92 f5 02 	sts	0x02F5, r8	; 0x8002f5 <K_P_RAM+0x4>
    3614:	90 92 f6 02 	sts	0x02F6, r9	; 0x8002f6 <K_P_RAM+0x5>
    3618:	a0 92 f7 02 	sts	0x02F7, r10	; 0x8002f7 <K_P_RAM+0x6>
    361c:	b0 92 f8 02 	sts	0x02F8, r11	; 0x8002f8 <K_P_RAM+0x7>
    3620:	e5 cb       	rjmp	.-2102   	; 0x2dec <menu_in_loop+0x3e>
    3622:	20 e0       	ldi	r18, 0x00	; 0
    3624:	80 e0       	ldi	r24, 0x00	; 0
    3626:	90 e0       	ldi	r25, 0x00	; 0
    3628:	fc 01       	movw	r30, r24
    362a:	e3 50       	subi	r30, 0x03	; 3
    362c:	fd 4f       	sbci	r31, 0xFD	; 253
    362e:	35 81       	ldd	r19, Z+5	; 0x05
    3630:	3e 32       	cpi	r19, 0x2E	; 46
    3632:	09 f4       	brne	.+2      	; 0x3636 <menu_in_loop+0x888>
    3634:	28 2f       	mov	r18, r24
    3636:	01 96       	adiw	r24, 0x01	; 1
    3638:	85 30       	cpi	r24, 0x05	; 5
    363a:	91 05       	cpc	r25, r1
    363c:	a9 f7       	brne	.-22     	; 0x3628 <menu_in_loop+0x87a>
    363e:	21 30       	cpi	r18, 0x01	; 1
    3640:	49 f5       	brne	.+82     	; 0x3694 <menu_in_loop+0x8e6>
    3642:	a0 91 02 03 	lds	r26, 0x0302	; 0x800302 <K_I_s+0x5>
    3646:	b0 e0       	ldi	r27, 0x00	; 0
    3648:	d0 97       	sbiw	r26, 0x30	; 48
    364a:	28 ee       	ldi	r18, 0xE8	; 232
    364c:	33 e0       	ldi	r19, 0x03	; 3
    364e:	0e 94 df 28 	call	0x51be	; 0x51be <__usmulhisi3>
    3652:	20 91 04 03 	lds	r18, 0x0304	; 0x800304 <K_I_s+0x7>
    3656:	30 e0       	ldi	r19, 0x00	; 0
    3658:	20 53       	subi	r18, 0x30	; 48
    365a:	31 09       	sbc	r19, r1
    365c:	d2 9f       	mul	r29, r18
    365e:	40 01       	movw	r8, r0
    3660:	d3 9f       	mul	r29, r19
    3662:	90 0c       	add	r9, r0
    3664:	11 24       	eor	r1, r1
    3666:	09 2c       	mov	r0, r9
    3668:	00 0c       	add	r0, r0
    366a:	aa 08       	sbc	r10, r10
    366c:	bb 08       	sbc	r11, r11
    366e:	86 0e       	add	r8, r22
    3670:	97 1e       	adc	r9, r23
    3672:	a8 1e       	adc	r10, r24
    3674:	b9 1e       	adc	r11, r25
    3676:	80 91 06 03 	lds	r24, 0x0306	; 0x800306 <K_I_s+0x9>
    367a:	90 e0       	ldi	r25, 0x00	; 0
    367c:	c0 97       	sbiw	r24, 0x30	; 48
    367e:	09 2e       	mov	r0, r25
    3680:	00 0c       	add	r0, r0
    3682:	aa 0b       	sbc	r26, r26
    3684:	bb 0b       	sbc	r27, r27
    3686:	88 0e       	add	r8, r24
    3688:	99 1e       	adc	r9, r25
    368a:	aa 1e       	adc	r10, r26
    368c:	bb 1e       	adc	r11, r27
    368e:	20 91 05 03 	lds	r18, 0x0305	; 0x800305 <K_I_s+0x8>
    3692:	3f c0       	rjmp	.+126    	; 0x3712 <menu_in_loop+0x964>
    3694:	22 30       	cpi	r18, 0x02	; 2
    3696:	09 f0       	breq	.+2      	; 0x369a <menu_in_loop+0x8ec>
    3698:	4d c0       	rjmp	.+154    	; 0x3734 <menu_in_loop+0x986>
    369a:	a0 91 02 03 	lds	r26, 0x0302	; 0x800302 <K_I_s+0x5>
    369e:	b0 e0       	ldi	r27, 0x00	; 0
    36a0:	d0 97       	sbiw	r26, 0x30	; 48
    36a2:	20 e1       	ldi	r18, 0x10	; 16
    36a4:	37 e2       	ldi	r19, 0x27	; 39
    36a6:	0e 94 df 28 	call	0x51be	; 0x51be <__usmulhisi3>
    36aa:	20 91 03 03 	lds	r18, 0x0303	; 0x800303 <K_I_s+0x6>
    36ae:	30 e0       	ldi	r19, 0x00	; 0
    36b0:	20 53       	subi	r18, 0x30	; 48
    36b2:	31 09       	sbc	r19, r1
    36b4:	2e 9d       	mul	r18, r14
    36b6:	40 01       	movw	r8, r0
    36b8:	2f 9d       	mul	r18, r15
    36ba:	90 0c       	add	r9, r0
    36bc:	3e 9d       	mul	r19, r14
    36be:	90 0c       	add	r9, r0
    36c0:	11 24       	eor	r1, r1
    36c2:	09 2c       	mov	r0, r9
    36c4:	00 0c       	add	r0, r0
    36c6:	aa 08       	sbc	r10, r10
    36c8:	bb 08       	sbc	r11, r11
    36ca:	86 0e       	add	r8, r22
    36cc:	97 1e       	adc	r9, r23
    36ce:	a8 1e       	adc	r10, r24
    36d0:	b9 1e       	adc	r11, r25
    36d2:	80 91 07 03 	lds	r24, 0x0307	; 0x800307 <K_I_s+0xa>
    36d6:	90 e0       	ldi	r25, 0x00	; 0
    36d8:	c0 97       	sbiw	r24, 0x30	; 48
    36da:	09 2e       	mov	r0, r25
    36dc:	00 0c       	add	r0, r0
    36de:	aa 0b       	sbc	r26, r26
    36e0:	bb 0b       	sbc	r27, r27
    36e2:	88 0d       	add	r24, r8
    36e4:	99 1d       	adc	r25, r9
    36e6:	aa 1d       	adc	r26, r10
    36e8:	bb 1d       	adc	r27, r11
    36ea:	20 91 05 03 	lds	r18, 0x0305	; 0x800305 <K_I_s+0x8>
    36ee:	30 e0       	ldi	r19, 0x00	; 0
    36f0:	20 53       	subi	r18, 0x30	; 48
    36f2:	31 09       	sbc	r19, r1
    36f4:	d2 9f       	mul	r29, r18
    36f6:	40 01       	movw	r8, r0
    36f8:	d3 9f       	mul	r29, r19
    36fa:	90 0c       	add	r9, r0
    36fc:	11 24       	eor	r1, r1
    36fe:	09 2c       	mov	r0, r9
    3700:	00 0c       	add	r0, r0
    3702:	aa 08       	sbc	r10, r10
    3704:	bb 08       	sbc	r11, r11
    3706:	88 0e       	add	r8, r24
    3708:	99 1e       	adc	r9, r25
    370a:	aa 1e       	adc	r10, r26
    370c:	bb 1e       	adc	r11, r27
    370e:	20 91 06 03 	lds	r18, 0x0306	; 0x800306 <K_I_s+0x9>
    3712:	30 e0       	ldi	r19, 0x00	; 0
    3714:	20 53       	subi	r18, 0x30	; 48
    3716:	31 09       	sbc	r19, r1
    3718:	c2 9f       	mul	r28, r18
    371a:	c0 01       	movw	r24, r0
    371c:	c3 9f       	mul	r28, r19
    371e:	90 0d       	add	r25, r0
    3720:	11 24       	eor	r1, r1
    3722:	09 2e       	mov	r0, r25
    3724:	00 0c       	add	r0, r0
    3726:	aa 0b       	sbc	r26, r26
    3728:	bb 0b       	sbc	r27, r27
    372a:	88 0e       	add	r8, r24
    372c:	99 1e       	adc	r9, r25
    372e:	aa 1e       	adc	r10, r26
    3730:	bb 1e       	adc	r11, r27
    3732:	03 c0       	rjmp	.+6      	; 0x373a <menu_in_loop+0x98c>
    3734:	81 2c       	mov	r8, r1
    3736:	91 2c       	mov	r9, r1
    3738:	54 01       	movw	r10, r8
    373a:	b5 01       	movw	r22, r10
    373c:	a4 01       	movw	r20, r8
    373e:	80 e1       	ldi	r24, 0x10	; 16
    3740:	90 e0       	ldi	r25, 0x00	; 0
    3742:	0e 94 cd 2b 	call	0x579a	; 0x579a <eeprom_write_dword>
    3746:	80 92 72 03 	sts	0x0372, r8	; 0x800372 <K_I_RAM+0x4>
    374a:	90 92 73 03 	sts	0x0373, r9	; 0x800373 <K_I_RAM+0x5>
    374e:	a0 92 74 03 	sts	0x0374, r10	; 0x800374 <K_I_RAM+0x6>
    3752:	b0 92 75 03 	sts	0x0375, r11	; 0x800375 <K_I_RAM+0x7>
    3756:	4a cb       	rjmp	.-2412   	; 0x2dec <menu_in_loop+0x3e>
    3758:	20 e0       	ldi	r18, 0x00	; 0
    375a:	80 e0       	ldi	r24, 0x00	; 0
    375c:	90 e0       	ldi	r25, 0x00	; 0
    375e:	fc 01       	movw	r30, r24
    3760:	ef 5f       	subi	r30, 0xFF	; 255
    3762:	fe 4f       	sbci	r31, 0xFE	; 254
    3764:	37 81       	ldd	r19, Z+7	; 0x07
    3766:	3e 32       	cpi	r19, 0x2E	; 46
    3768:	09 f4       	brne	.+2      	; 0x376c <menu_in_loop+0x9be>
    376a:	28 2f       	mov	r18, r24
    376c:	01 96       	adiw	r24, 0x01	; 1
    376e:	85 30       	cpi	r24, 0x05	; 5
    3770:	91 05       	cpc	r25, r1
    3772:	a9 f7       	brne	.-22     	; 0x375e <menu_in_loop+0x9b0>
    3774:	21 30       	cpi	r18, 0x01	; 1
    3776:	49 f5       	brne	.+82     	; 0x37ca <menu_in_loop+0xa1c>
    3778:	a0 91 08 01 	lds	r26, 0x0108	; 0x800108 <K_D_s+0x7>
    377c:	b0 e0       	ldi	r27, 0x00	; 0
    377e:	d0 97       	sbiw	r26, 0x30	; 48
    3780:	28 ee       	ldi	r18, 0xE8	; 232
    3782:	33 e0       	ldi	r19, 0x03	; 3
    3784:	0e 94 df 28 	call	0x51be	; 0x51be <__usmulhisi3>
    3788:	20 91 0a 01 	lds	r18, 0x010A	; 0x80010a <K_D_s+0x9>
    378c:	30 e0       	ldi	r19, 0x00	; 0
    378e:	20 53       	subi	r18, 0x30	; 48
    3790:	31 09       	sbc	r19, r1
    3792:	d2 9f       	mul	r29, r18
    3794:	40 01       	movw	r8, r0
    3796:	d3 9f       	mul	r29, r19
    3798:	90 0c       	add	r9, r0
    379a:	11 24       	eor	r1, r1
    379c:	09 2c       	mov	r0, r9
    379e:	00 0c       	add	r0, r0
    37a0:	aa 08       	sbc	r10, r10
    37a2:	bb 08       	sbc	r11, r11
    37a4:	86 0e       	add	r8, r22
    37a6:	97 1e       	adc	r9, r23
    37a8:	a8 1e       	adc	r10, r24
    37aa:	b9 1e       	adc	r11, r25
    37ac:	80 91 0c 01 	lds	r24, 0x010C	; 0x80010c <K_D_s+0xb>
    37b0:	90 e0       	ldi	r25, 0x00	; 0
    37b2:	c0 97       	sbiw	r24, 0x30	; 48
    37b4:	09 2e       	mov	r0, r25
    37b6:	00 0c       	add	r0, r0
    37b8:	aa 0b       	sbc	r26, r26
    37ba:	bb 0b       	sbc	r27, r27
    37bc:	88 0e       	add	r8, r24
    37be:	99 1e       	adc	r9, r25
    37c0:	aa 1e       	adc	r10, r26
    37c2:	bb 1e       	adc	r11, r27
    37c4:	20 91 0b 01 	lds	r18, 0x010B	; 0x80010b <K_D_s+0xa>
    37c8:	3f c0       	rjmp	.+126    	; 0x3848 <menu_in_loop+0xa9a>
    37ca:	22 30       	cpi	r18, 0x02	; 2
    37cc:	09 f0       	breq	.+2      	; 0x37d0 <menu_in_loop+0xa22>
    37ce:	4d c0       	rjmp	.+154    	; 0x386a <menu_in_loop+0xabc>
    37d0:	a0 91 08 01 	lds	r26, 0x0108	; 0x800108 <K_D_s+0x7>
    37d4:	b0 e0       	ldi	r27, 0x00	; 0
    37d6:	d0 97       	sbiw	r26, 0x30	; 48
    37d8:	20 e1       	ldi	r18, 0x10	; 16
    37da:	37 e2       	ldi	r19, 0x27	; 39
    37dc:	0e 94 df 28 	call	0x51be	; 0x51be <__usmulhisi3>
    37e0:	20 91 09 01 	lds	r18, 0x0109	; 0x800109 <K_D_s+0x8>
    37e4:	30 e0       	ldi	r19, 0x00	; 0
    37e6:	20 53       	subi	r18, 0x30	; 48
    37e8:	31 09       	sbc	r19, r1
    37ea:	2e 9d       	mul	r18, r14
    37ec:	40 01       	movw	r8, r0
    37ee:	2f 9d       	mul	r18, r15
    37f0:	90 0c       	add	r9, r0
    37f2:	3e 9d       	mul	r19, r14
    37f4:	90 0c       	add	r9, r0
    37f6:	11 24       	eor	r1, r1
    37f8:	09 2c       	mov	r0, r9
    37fa:	00 0c       	add	r0, r0
    37fc:	aa 08       	sbc	r10, r10
    37fe:	bb 08       	sbc	r11, r11
    3800:	86 0e       	add	r8, r22
    3802:	97 1e       	adc	r9, r23
    3804:	a8 1e       	adc	r10, r24
    3806:	b9 1e       	adc	r11, r25
    3808:	80 91 0d 01 	lds	r24, 0x010D	; 0x80010d <K_D_s+0xc>
    380c:	90 e0       	ldi	r25, 0x00	; 0
    380e:	c0 97       	sbiw	r24, 0x30	; 48
    3810:	09 2e       	mov	r0, r25
    3812:	00 0c       	add	r0, r0
    3814:	aa 0b       	sbc	r26, r26
    3816:	bb 0b       	sbc	r27, r27
    3818:	88 0d       	add	r24, r8
    381a:	99 1d       	adc	r25, r9
    381c:	aa 1d       	adc	r26, r10
    381e:	bb 1d       	adc	r27, r11
    3820:	20 91 0b 01 	lds	r18, 0x010B	; 0x80010b <K_D_s+0xa>
    3824:	30 e0       	ldi	r19, 0x00	; 0
    3826:	20 53       	subi	r18, 0x30	; 48
    3828:	31 09       	sbc	r19, r1
    382a:	d2 9f       	mul	r29, r18
    382c:	40 01       	movw	r8, r0
    382e:	d3 9f       	mul	r29, r19
    3830:	90 0c       	add	r9, r0
    3832:	11 24       	eor	r1, r1
    3834:	09 2c       	mov	r0, r9
    3836:	00 0c       	add	r0, r0
    3838:	aa 08       	sbc	r10, r10
    383a:	bb 08       	sbc	r11, r11
    383c:	88 0e       	add	r8, r24
    383e:	99 1e       	adc	r9, r25
    3840:	aa 1e       	adc	r10, r26
    3842:	bb 1e       	adc	r11, r27
    3844:	20 91 0c 01 	lds	r18, 0x010C	; 0x80010c <K_D_s+0xb>
    3848:	30 e0       	ldi	r19, 0x00	; 0
    384a:	20 53       	subi	r18, 0x30	; 48
    384c:	31 09       	sbc	r19, r1
    384e:	c2 9f       	mul	r28, r18
    3850:	c0 01       	movw	r24, r0
    3852:	c3 9f       	mul	r28, r19
    3854:	90 0d       	add	r25, r0
    3856:	11 24       	eor	r1, r1
    3858:	09 2e       	mov	r0, r25
    385a:	00 0c       	add	r0, r0
    385c:	aa 0b       	sbc	r26, r26
    385e:	bb 0b       	sbc	r27, r27
    3860:	88 0e       	add	r8, r24
    3862:	99 1e       	adc	r9, r25
    3864:	aa 1e       	adc	r10, r26
    3866:	bb 1e       	adc	r11, r27
    3868:	03 c0       	rjmp	.+6      	; 0x3870 <menu_in_loop+0xac2>
    386a:	81 2c       	mov	r8, r1
    386c:	91 2c       	mov	r9, r1
    386e:	54 01       	movw	r10, r8
    3870:	b5 01       	movw	r22, r10
    3872:	a4 01       	movw	r20, r8
    3874:	84 e0       	ldi	r24, 0x04	; 4
    3876:	90 e0       	ldi	r25, 0x00	; 0
    3878:	0e 94 cd 2b 	call	0x579a	; 0x579a <eeprom_write_dword>
    387c:	80 92 83 03 	sts	0x0383, r8	; 0x800383 <K_D_RAM+0x4>
    3880:	90 92 84 03 	sts	0x0384, r9	; 0x800384 <K_D_RAM+0x5>
    3884:	a0 92 85 03 	sts	0x0385, r10	; 0x800385 <K_D_RAM+0x6>
    3888:	b0 92 86 03 	sts	0x0386, r11	; 0x800386 <K_D_RAM+0x7>
    388c:	af ca       	rjmp	.-2722   	; 0x2dec <menu_in_loop+0x3e>
    388e:	80 91 31 03 	lds	r24, 0x0331	; 0x800331 <temp_den_s+0x5>
    3892:	90 e0       	ldi	r25, 0x00	; 0
    3894:	c0 97       	sbiw	r24, 0x30	; 48
    3896:	20 91 30 03 	lds	r18, 0x0330	; 0x800330 <temp_den_s+0x4>
    389a:	30 e0       	ldi	r19, 0x00	; 0
    389c:	20 53       	subi	r18, 0x30	; 48
    389e:	31 09       	sbc	r19, r1
    38a0:	c2 9f       	mul	r28, r18
    38a2:	80 01       	movw	r16, r0
    38a4:	c3 9f       	mul	r28, r19
    38a6:	10 0d       	add	r17, r0
    38a8:	11 24       	eor	r1, r1
    38aa:	08 0f       	add	r16, r24
    38ac:	19 1f       	adc	r17, r25
    38ae:	b8 01       	movw	r22, r16
    38b0:	8e e2       	ldi	r24, 0x2E	; 46
    38b2:	90 e0       	ldi	r25, 0x00	; 0
    38b4:	0e 94 d2 2b 	call	0x57a4	; 0x57a4 <eeprom_write_word>
    38b8:	10 93 6b 03 	sts	0x036B, r17	; 0x80036b <temp_den_RAM+0x5>
    38bc:	00 93 6a 03 	sts	0x036A, r16	; 0x80036a <temp_den_RAM+0x4>
    38c0:	95 ca       	rjmp	.-2774   	; 0x2dec <menu_in_loop+0x3e>
    38c2:	80 91 d9 04 	lds	r24, 0x04D9	; 0x8004d9 <temp_noch_s+0x5>
    38c6:	90 e0       	ldi	r25, 0x00	; 0
    38c8:	c0 97       	sbiw	r24, 0x30	; 48
    38ca:	20 91 d8 04 	lds	r18, 0x04D8	; 0x8004d8 <temp_noch_s+0x4>
    38ce:	30 e0       	ldi	r19, 0x00	; 0
    38d0:	20 53       	subi	r18, 0x30	; 48
    38d2:	31 09       	sbc	r19, r1
    38d4:	c2 9f       	mul	r28, r18
    38d6:	80 01       	movw	r16, r0
    38d8:	c3 9f       	mul	r28, r19
    38da:	10 0d       	add	r17, r0
    38dc:	11 24       	eor	r1, r1
    38de:	08 0f       	add	r16, r24
    38e0:	19 1f       	adc	r17, r25
    38e2:	b8 01       	movw	r22, r16
    38e4:	88 e2       	ldi	r24, 0x28	; 40
    38e6:	90 e0       	ldi	r25, 0x00	; 0
    38e8:	0e 94 d2 2b 	call	0x57a4	; 0x57a4 <eeprom_write_word>
    38ec:	10 93 5f 02 	sts	0x025F, r17	; 0x80025f <temp_noch_RAM+0x5>
    38f0:	00 93 5e 02 	sts	0x025E, r16	; 0x80025e <temp_noch_RAM+0x4>
    38f4:	7b ca       	rjmp	.-2826   	; 0x2dec <menu_in_loop+0x3e>
    38f6:	20 e0       	ldi	r18, 0x00	; 0
    38f8:	80 e0       	ldi	r24, 0x00	; 0
    38fa:	90 e0       	ldi	r25, 0x00	; 0
    38fc:	fc 01       	movw	r30, r24
    38fe:	ea 5e       	subi	r30, 0xEA	; 234
    3900:	fe 4f       	sbci	r31, 0xFE	; 254
    3902:	36 85       	ldd	r19, Z+14	; 0x0e
    3904:	3e 32       	cpi	r19, 0x2E	; 46
    3906:	09 f4       	brne	.+2      	; 0x390a <menu_in_loop+0xb5c>
    3908:	28 2f       	mov	r18, r24
    390a:	01 96       	adiw	r24, 0x01	; 1
    390c:	85 30       	cpi	r24, 0x05	; 5
    390e:	91 05       	cpc	r25, r1
    3910:	a9 f7       	brne	.-22     	; 0x38fc <menu_in_loop+0xb4e>
    3912:	21 30       	cpi	r18, 0x01	; 1
    3914:	49 f5       	brne	.+82     	; 0x3968 <menu_in_loop+0xbba>
    3916:	a0 91 24 01 	lds	r26, 0x0124	; 0x800124 <K_P_s+0xe>
    391a:	b0 e0       	ldi	r27, 0x00	; 0
    391c:	d0 97       	sbiw	r26, 0x30	; 48
    391e:	28 ee       	ldi	r18, 0xE8	; 232
    3920:	33 e0       	ldi	r19, 0x03	; 3
    3922:	0e 94 df 28 	call	0x51be	; 0x51be <__usmulhisi3>
    3926:	20 91 26 01 	lds	r18, 0x0126	; 0x800126 <K_P_s+0x10>
    392a:	30 e0       	ldi	r19, 0x00	; 0
    392c:	20 53       	subi	r18, 0x30	; 48
    392e:	31 09       	sbc	r19, r1
    3930:	d2 9f       	mul	r29, r18
    3932:	40 01       	movw	r8, r0
    3934:	d3 9f       	mul	r29, r19
    3936:	90 0c       	add	r9, r0
    3938:	11 24       	eor	r1, r1
    393a:	09 2c       	mov	r0, r9
    393c:	00 0c       	add	r0, r0
    393e:	aa 08       	sbc	r10, r10
    3940:	bb 08       	sbc	r11, r11
    3942:	86 0e       	add	r8, r22
    3944:	97 1e       	adc	r9, r23
    3946:	a8 1e       	adc	r10, r24
    3948:	b9 1e       	adc	r11, r25
    394a:	80 91 28 01 	lds	r24, 0x0128	; 0x800128 <K_P_s+0x12>
    394e:	90 e0       	ldi	r25, 0x00	; 0
    3950:	c0 97       	sbiw	r24, 0x30	; 48
    3952:	09 2e       	mov	r0, r25
    3954:	00 0c       	add	r0, r0
    3956:	aa 0b       	sbc	r26, r26
    3958:	bb 0b       	sbc	r27, r27
    395a:	88 0e       	add	r8, r24
    395c:	99 1e       	adc	r9, r25
    395e:	aa 1e       	adc	r10, r26
    3960:	bb 1e       	adc	r11, r27
    3962:	20 91 27 01 	lds	r18, 0x0127	; 0x800127 <K_P_s+0x11>
    3966:	3f c0       	rjmp	.+126    	; 0x39e6 <menu_in_loop+0xc38>
    3968:	22 30       	cpi	r18, 0x02	; 2
    396a:	09 f0       	breq	.+2      	; 0x396e <menu_in_loop+0xbc0>
    396c:	4d c0       	rjmp	.+154    	; 0x3a08 <menu_in_loop+0xc5a>
    396e:	a0 91 24 01 	lds	r26, 0x0124	; 0x800124 <K_P_s+0xe>
    3972:	b0 e0       	ldi	r27, 0x00	; 0
    3974:	d0 97       	sbiw	r26, 0x30	; 48
    3976:	20 e1       	ldi	r18, 0x10	; 16
    3978:	37 e2       	ldi	r19, 0x27	; 39
    397a:	0e 94 df 28 	call	0x51be	; 0x51be <__usmulhisi3>
    397e:	20 91 25 01 	lds	r18, 0x0125	; 0x800125 <K_P_s+0xf>
    3982:	30 e0       	ldi	r19, 0x00	; 0
    3984:	20 53       	subi	r18, 0x30	; 48
    3986:	31 09       	sbc	r19, r1
    3988:	2e 9d       	mul	r18, r14
    398a:	40 01       	movw	r8, r0
    398c:	2f 9d       	mul	r18, r15
    398e:	90 0c       	add	r9, r0
    3990:	3e 9d       	mul	r19, r14
    3992:	90 0c       	add	r9, r0
    3994:	11 24       	eor	r1, r1
    3996:	09 2c       	mov	r0, r9
    3998:	00 0c       	add	r0, r0
    399a:	aa 08       	sbc	r10, r10
    399c:	bb 08       	sbc	r11, r11
    399e:	86 0e       	add	r8, r22
    39a0:	97 1e       	adc	r9, r23
    39a2:	a8 1e       	adc	r10, r24
    39a4:	b9 1e       	adc	r11, r25
    39a6:	80 91 29 01 	lds	r24, 0x0129	; 0x800129 <K_P_s+0x13>
    39aa:	90 e0       	ldi	r25, 0x00	; 0
    39ac:	c0 97       	sbiw	r24, 0x30	; 48
    39ae:	09 2e       	mov	r0, r25
    39b0:	00 0c       	add	r0, r0
    39b2:	aa 0b       	sbc	r26, r26
    39b4:	bb 0b       	sbc	r27, r27
    39b6:	88 0d       	add	r24, r8
    39b8:	99 1d       	adc	r25, r9
    39ba:	aa 1d       	adc	r26, r10
    39bc:	bb 1d       	adc	r27, r11
    39be:	20 91 27 01 	lds	r18, 0x0127	; 0x800127 <K_P_s+0x11>
    39c2:	30 e0       	ldi	r19, 0x00	; 0
    39c4:	20 53       	subi	r18, 0x30	; 48
    39c6:	31 09       	sbc	r19, r1
    39c8:	d2 9f       	mul	r29, r18
    39ca:	40 01       	movw	r8, r0
    39cc:	d3 9f       	mul	r29, r19
    39ce:	90 0c       	add	r9, r0
    39d0:	11 24       	eor	r1, r1
    39d2:	09 2c       	mov	r0, r9
    39d4:	00 0c       	add	r0, r0
    39d6:	aa 08       	sbc	r10, r10
    39d8:	bb 08       	sbc	r11, r11
    39da:	88 0e       	add	r8, r24
    39dc:	99 1e       	adc	r9, r25
    39de:	aa 1e       	adc	r10, r26
    39e0:	bb 1e       	adc	r11, r27
    39e2:	20 91 28 01 	lds	r18, 0x0128	; 0x800128 <K_P_s+0x12>
    39e6:	30 e0       	ldi	r19, 0x00	; 0
    39e8:	20 53       	subi	r18, 0x30	; 48
    39ea:	31 09       	sbc	r19, r1
    39ec:	c2 9f       	mul	r28, r18
    39ee:	c0 01       	movw	r24, r0
    39f0:	c3 9f       	mul	r28, r19
    39f2:	90 0d       	add	r25, r0
    39f4:	11 24       	eor	r1, r1
    39f6:	09 2e       	mov	r0, r25
    39f8:	00 0c       	add	r0, r0
    39fa:	aa 0b       	sbc	r26, r26
    39fc:	bb 0b       	sbc	r27, r27
    39fe:	88 0e       	add	r8, r24
    3a00:	99 1e       	adc	r9, r25
    3a02:	aa 1e       	adc	r10, r26
    3a04:	bb 1e       	adc	r11, r27
    3a06:	03 c0       	rjmp	.+6      	; 0x3a0e <menu_in_loop+0xc60>
    3a08:	81 2c       	mov	r8, r1
    3a0a:	91 2c       	mov	r9, r1
    3a0c:	54 01       	movw	r10, r8
    3a0e:	b5 01       	movw	r22, r10
    3a10:	a4 01       	movw	r20, r8
    3a12:	80 e2       	ldi	r24, 0x20	; 32
    3a14:	90 e0       	ldi	r25, 0x00	; 0
    3a16:	0e 94 cd 2b 	call	0x579a	; 0x579a <eeprom_write_dword>
    3a1a:	80 92 f9 02 	sts	0x02F9, r8	; 0x8002f9 <K_P_RAM+0x8>
    3a1e:	90 92 fa 02 	sts	0x02FA, r9	; 0x8002fa <K_P_RAM+0x9>
    3a22:	a0 92 fb 02 	sts	0x02FB, r10	; 0x8002fb <K_P_RAM+0xa>
    3a26:	b0 92 fc 02 	sts	0x02FC, r11	; 0x8002fc <K_P_RAM+0xb>
    3a2a:	e0 c9       	rjmp	.-3136   	; 0x2dec <menu_in_loop+0x3e>
    3a2c:	20 e0       	ldi	r18, 0x00	; 0
    3a2e:	80 e0       	ldi	r24, 0x00	; 0
    3a30:	90 e0       	ldi	r25, 0x00	; 0
    3a32:	fc 01       	movw	r30, r24
    3a34:	e3 50       	subi	r30, 0x03	; 3
    3a36:	fd 4f       	sbci	r31, 0xFD	; 253
    3a38:	32 85       	ldd	r19, Z+10	; 0x0a
    3a3a:	3e 32       	cpi	r19, 0x2E	; 46
    3a3c:	09 f4       	brne	.+2      	; 0x3a40 <menu_in_loop+0xc92>
    3a3e:	28 2f       	mov	r18, r24
    3a40:	01 96       	adiw	r24, 0x01	; 1
    3a42:	85 30       	cpi	r24, 0x05	; 5
    3a44:	91 05       	cpc	r25, r1
    3a46:	a9 f7       	brne	.-22     	; 0x3a32 <menu_in_loop+0xc84>
    3a48:	21 30       	cpi	r18, 0x01	; 1
    3a4a:	49 f5       	brne	.+82     	; 0x3a9e <menu_in_loop+0xcf0>
    3a4c:	a0 91 07 03 	lds	r26, 0x0307	; 0x800307 <K_I_s+0xa>
    3a50:	b0 e0       	ldi	r27, 0x00	; 0
    3a52:	d0 97       	sbiw	r26, 0x30	; 48
    3a54:	28 ee       	ldi	r18, 0xE8	; 232
    3a56:	33 e0       	ldi	r19, 0x03	; 3
    3a58:	0e 94 df 28 	call	0x51be	; 0x51be <__usmulhisi3>
    3a5c:	20 91 09 03 	lds	r18, 0x0309	; 0x800309 <K_I_s+0xc>
    3a60:	30 e0       	ldi	r19, 0x00	; 0
    3a62:	20 53       	subi	r18, 0x30	; 48
    3a64:	31 09       	sbc	r19, r1
    3a66:	d2 9f       	mul	r29, r18
    3a68:	40 01       	movw	r8, r0
    3a6a:	d3 9f       	mul	r29, r19
    3a6c:	90 0c       	add	r9, r0
    3a6e:	11 24       	eor	r1, r1
    3a70:	09 2c       	mov	r0, r9
    3a72:	00 0c       	add	r0, r0
    3a74:	aa 08       	sbc	r10, r10
    3a76:	bb 08       	sbc	r11, r11
    3a78:	86 0e       	add	r8, r22
    3a7a:	97 1e       	adc	r9, r23
    3a7c:	a8 1e       	adc	r10, r24
    3a7e:	b9 1e       	adc	r11, r25
    3a80:	80 91 0b 03 	lds	r24, 0x030B	; 0x80030b <K_I_s+0xe>
    3a84:	90 e0       	ldi	r25, 0x00	; 0
    3a86:	c0 97       	sbiw	r24, 0x30	; 48
    3a88:	09 2e       	mov	r0, r25
    3a8a:	00 0c       	add	r0, r0
    3a8c:	aa 0b       	sbc	r26, r26
    3a8e:	bb 0b       	sbc	r27, r27
    3a90:	88 0e       	add	r8, r24
    3a92:	99 1e       	adc	r9, r25
    3a94:	aa 1e       	adc	r10, r26
    3a96:	bb 1e       	adc	r11, r27
    3a98:	20 91 0a 03 	lds	r18, 0x030A	; 0x80030a <K_I_s+0xd>
    3a9c:	3f c0       	rjmp	.+126    	; 0x3b1c <menu_in_loop+0xd6e>
    3a9e:	22 30       	cpi	r18, 0x02	; 2
    3aa0:	09 f0       	breq	.+2      	; 0x3aa4 <menu_in_loop+0xcf6>
    3aa2:	4d c0       	rjmp	.+154    	; 0x3b3e <menu_in_loop+0xd90>
    3aa4:	a0 91 07 03 	lds	r26, 0x0307	; 0x800307 <K_I_s+0xa>
    3aa8:	b0 e0       	ldi	r27, 0x00	; 0
    3aaa:	d0 97       	sbiw	r26, 0x30	; 48
    3aac:	20 e1       	ldi	r18, 0x10	; 16
    3aae:	37 e2       	ldi	r19, 0x27	; 39
    3ab0:	0e 94 df 28 	call	0x51be	; 0x51be <__usmulhisi3>
    3ab4:	20 91 08 03 	lds	r18, 0x0308	; 0x800308 <K_I_s+0xb>
    3ab8:	30 e0       	ldi	r19, 0x00	; 0
    3aba:	20 53       	subi	r18, 0x30	; 48
    3abc:	31 09       	sbc	r19, r1
    3abe:	2e 9d       	mul	r18, r14
    3ac0:	40 01       	movw	r8, r0
    3ac2:	2f 9d       	mul	r18, r15
    3ac4:	90 0c       	add	r9, r0
    3ac6:	3e 9d       	mul	r19, r14
    3ac8:	90 0c       	add	r9, r0
    3aca:	11 24       	eor	r1, r1
    3acc:	09 2c       	mov	r0, r9
    3ace:	00 0c       	add	r0, r0
    3ad0:	aa 08       	sbc	r10, r10
    3ad2:	bb 08       	sbc	r11, r11
    3ad4:	86 0e       	add	r8, r22
    3ad6:	97 1e       	adc	r9, r23
    3ad8:	a8 1e       	adc	r10, r24
    3ada:	b9 1e       	adc	r11, r25
    3adc:	80 91 0c 03 	lds	r24, 0x030C	; 0x80030c <_history_Buf_Number>
    3ae0:	90 e0       	ldi	r25, 0x00	; 0
    3ae2:	c0 97       	sbiw	r24, 0x30	; 48
    3ae4:	09 2e       	mov	r0, r25
    3ae6:	00 0c       	add	r0, r0
    3ae8:	aa 0b       	sbc	r26, r26
    3aea:	bb 0b       	sbc	r27, r27
    3aec:	88 0d       	add	r24, r8
    3aee:	99 1d       	adc	r25, r9
    3af0:	aa 1d       	adc	r26, r10
    3af2:	bb 1d       	adc	r27, r11
    3af4:	20 91 0a 03 	lds	r18, 0x030A	; 0x80030a <K_I_s+0xd>
    3af8:	30 e0       	ldi	r19, 0x00	; 0
    3afa:	20 53       	subi	r18, 0x30	; 48
    3afc:	31 09       	sbc	r19, r1
    3afe:	d2 9f       	mul	r29, r18
    3b00:	40 01       	movw	r8, r0
    3b02:	d3 9f       	mul	r29, r19
    3b04:	90 0c       	add	r9, r0
    3b06:	11 24       	eor	r1, r1
    3b08:	09 2c       	mov	r0, r9
    3b0a:	00 0c       	add	r0, r0
    3b0c:	aa 08       	sbc	r10, r10
    3b0e:	bb 08       	sbc	r11, r11
    3b10:	88 0e       	add	r8, r24
    3b12:	99 1e       	adc	r9, r25
    3b14:	aa 1e       	adc	r10, r26
    3b16:	bb 1e       	adc	r11, r27
    3b18:	20 91 0b 03 	lds	r18, 0x030B	; 0x80030b <K_I_s+0xe>
    3b1c:	30 e0       	ldi	r19, 0x00	; 0
    3b1e:	20 53       	subi	r18, 0x30	; 48
    3b20:	31 09       	sbc	r19, r1
    3b22:	c2 9f       	mul	r28, r18
    3b24:	c0 01       	movw	r24, r0
    3b26:	c3 9f       	mul	r28, r19
    3b28:	90 0d       	add	r25, r0
    3b2a:	11 24       	eor	r1, r1
    3b2c:	09 2e       	mov	r0, r25
    3b2e:	00 0c       	add	r0, r0
    3b30:	aa 0b       	sbc	r26, r26
    3b32:	bb 0b       	sbc	r27, r27
    3b34:	88 0e       	add	r8, r24
    3b36:	99 1e       	adc	r9, r25
    3b38:	aa 1e       	adc	r10, r26
    3b3a:	bb 1e       	adc	r11, r27
    3b3c:	03 c0       	rjmp	.+6      	; 0x3b44 <menu_in_loop+0xd96>
    3b3e:	81 2c       	mov	r8, r1
    3b40:	91 2c       	mov	r9, r1
    3b42:	54 01       	movw	r10, r8
    3b44:	b5 01       	movw	r22, r10
    3b46:	a4 01       	movw	r20, r8
    3b48:	84 e1       	ldi	r24, 0x14	; 20
    3b4a:	90 e0       	ldi	r25, 0x00	; 0
    3b4c:	0e 94 cd 2b 	call	0x579a	; 0x579a <eeprom_write_dword>
    3b50:	80 92 76 03 	sts	0x0376, r8	; 0x800376 <K_I_RAM+0x8>
    3b54:	90 92 77 03 	sts	0x0377, r9	; 0x800377 <K_I_RAM+0x9>
    3b58:	a0 92 78 03 	sts	0x0378, r10	; 0x800378 <K_I_RAM+0xa>
    3b5c:	b0 92 79 03 	sts	0x0379, r11	; 0x800379 <K_I_RAM+0xb>
    3b60:	45 c9       	rjmp	.-3446   	; 0x2dec <menu_in_loop+0x3e>
    3b62:	20 e0       	ldi	r18, 0x00	; 0
    3b64:	80 e0       	ldi	r24, 0x00	; 0
    3b66:	90 e0       	ldi	r25, 0x00	; 0
    3b68:	fc 01       	movw	r30, r24
    3b6a:	ef 5f       	subi	r30, 0xFF	; 255
    3b6c:	fe 4f       	sbci	r31, 0xFE	; 254
    3b6e:	36 85       	ldd	r19, Z+14	; 0x0e
    3b70:	3e 32       	cpi	r19, 0x2E	; 46
    3b72:	09 f4       	brne	.+2      	; 0x3b76 <menu_in_loop+0xdc8>
    3b74:	28 2f       	mov	r18, r24
    3b76:	01 96       	adiw	r24, 0x01	; 1
    3b78:	85 30       	cpi	r24, 0x05	; 5
    3b7a:	91 05       	cpc	r25, r1
    3b7c:	a9 f7       	brne	.-22     	; 0x3b68 <menu_in_loop+0xdba>
    3b7e:	21 30       	cpi	r18, 0x01	; 1
    3b80:	49 f5       	brne	.+82     	; 0x3bd4 <menu_in_loop+0xe26>
    3b82:	a0 91 0f 01 	lds	r26, 0x010F	; 0x80010f <K_D_s+0xe>
    3b86:	b0 e0       	ldi	r27, 0x00	; 0
    3b88:	d0 97       	sbiw	r26, 0x30	; 48
    3b8a:	28 ee       	ldi	r18, 0xE8	; 232
    3b8c:	33 e0       	ldi	r19, 0x03	; 3
    3b8e:	0e 94 df 28 	call	0x51be	; 0x51be <__usmulhisi3>
    3b92:	20 91 11 01 	lds	r18, 0x0111	; 0x800111 <K_D_s+0x10>
    3b96:	30 e0       	ldi	r19, 0x00	; 0
    3b98:	20 53       	subi	r18, 0x30	; 48
    3b9a:	31 09       	sbc	r19, r1
    3b9c:	d2 9f       	mul	r29, r18
    3b9e:	40 01       	movw	r8, r0
    3ba0:	d3 9f       	mul	r29, r19
    3ba2:	90 0c       	add	r9, r0
    3ba4:	11 24       	eor	r1, r1
    3ba6:	09 2c       	mov	r0, r9
    3ba8:	00 0c       	add	r0, r0
    3baa:	aa 08       	sbc	r10, r10
    3bac:	bb 08       	sbc	r11, r11
    3bae:	86 0e       	add	r8, r22
    3bb0:	97 1e       	adc	r9, r23
    3bb2:	a8 1e       	adc	r10, r24
    3bb4:	b9 1e       	adc	r11, r25
    3bb6:	80 91 13 01 	lds	r24, 0x0113	; 0x800113 <K_D_s+0x12>
    3bba:	90 e0       	ldi	r25, 0x00	; 0
    3bbc:	c0 97       	sbiw	r24, 0x30	; 48
    3bbe:	09 2e       	mov	r0, r25
    3bc0:	00 0c       	add	r0, r0
    3bc2:	aa 0b       	sbc	r26, r26
    3bc4:	bb 0b       	sbc	r27, r27
    3bc6:	88 0e       	add	r8, r24
    3bc8:	99 1e       	adc	r9, r25
    3bca:	aa 1e       	adc	r10, r26
    3bcc:	bb 1e       	adc	r11, r27
    3bce:	20 91 12 01 	lds	r18, 0x0112	; 0x800112 <K_D_s+0x11>
    3bd2:	3f c0       	rjmp	.+126    	; 0x3c52 <menu_in_loop+0xea4>
    3bd4:	22 30       	cpi	r18, 0x02	; 2
    3bd6:	09 f0       	breq	.+2      	; 0x3bda <menu_in_loop+0xe2c>
    3bd8:	4d c0       	rjmp	.+154    	; 0x3c74 <menu_in_loop+0xec6>
    3bda:	a0 91 0f 01 	lds	r26, 0x010F	; 0x80010f <K_D_s+0xe>
    3bde:	b0 e0       	ldi	r27, 0x00	; 0
    3be0:	d0 97       	sbiw	r26, 0x30	; 48
    3be2:	20 e1       	ldi	r18, 0x10	; 16
    3be4:	37 e2       	ldi	r19, 0x27	; 39
    3be6:	0e 94 df 28 	call	0x51be	; 0x51be <__usmulhisi3>
    3bea:	20 91 10 01 	lds	r18, 0x0110	; 0x800110 <K_D_s+0xf>
    3bee:	30 e0       	ldi	r19, 0x00	; 0
    3bf0:	20 53       	subi	r18, 0x30	; 48
    3bf2:	31 09       	sbc	r19, r1
    3bf4:	2e 9d       	mul	r18, r14
    3bf6:	40 01       	movw	r8, r0
    3bf8:	2f 9d       	mul	r18, r15
    3bfa:	90 0c       	add	r9, r0
    3bfc:	3e 9d       	mul	r19, r14
    3bfe:	90 0c       	add	r9, r0
    3c00:	11 24       	eor	r1, r1
    3c02:	09 2c       	mov	r0, r9
    3c04:	00 0c       	add	r0, r0
    3c06:	aa 08       	sbc	r10, r10
    3c08:	bb 08       	sbc	r11, r11
    3c0a:	86 0e       	add	r8, r22
    3c0c:	97 1e       	adc	r9, r23
    3c0e:	a8 1e       	adc	r10, r24
    3c10:	b9 1e       	adc	r11, r25
    3c12:	80 91 14 01 	lds	r24, 0x0114	; 0x800114 <K_D_s+0x13>
    3c16:	90 e0       	ldi	r25, 0x00	; 0
    3c18:	c0 97       	sbiw	r24, 0x30	; 48
    3c1a:	09 2e       	mov	r0, r25
    3c1c:	00 0c       	add	r0, r0
    3c1e:	aa 0b       	sbc	r26, r26
    3c20:	bb 0b       	sbc	r27, r27
    3c22:	88 0d       	add	r24, r8
    3c24:	99 1d       	adc	r25, r9
    3c26:	aa 1d       	adc	r26, r10
    3c28:	bb 1d       	adc	r27, r11
    3c2a:	20 91 12 01 	lds	r18, 0x0112	; 0x800112 <K_D_s+0x11>
    3c2e:	30 e0       	ldi	r19, 0x00	; 0
    3c30:	20 53       	subi	r18, 0x30	; 48
    3c32:	31 09       	sbc	r19, r1
    3c34:	d2 9f       	mul	r29, r18
    3c36:	40 01       	movw	r8, r0
    3c38:	d3 9f       	mul	r29, r19
    3c3a:	90 0c       	add	r9, r0
    3c3c:	11 24       	eor	r1, r1
    3c3e:	09 2c       	mov	r0, r9
    3c40:	00 0c       	add	r0, r0
    3c42:	aa 08       	sbc	r10, r10
    3c44:	bb 08       	sbc	r11, r11
    3c46:	88 0e       	add	r8, r24
    3c48:	99 1e       	adc	r9, r25
    3c4a:	aa 1e       	adc	r10, r26
    3c4c:	bb 1e       	adc	r11, r27
    3c4e:	20 91 13 01 	lds	r18, 0x0113	; 0x800113 <K_D_s+0x12>
    3c52:	30 e0       	ldi	r19, 0x00	; 0
    3c54:	20 53       	subi	r18, 0x30	; 48
    3c56:	31 09       	sbc	r19, r1
    3c58:	c2 9f       	mul	r28, r18
    3c5a:	c0 01       	movw	r24, r0
    3c5c:	c3 9f       	mul	r28, r19
    3c5e:	90 0d       	add	r25, r0
    3c60:	11 24       	eor	r1, r1
    3c62:	09 2e       	mov	r0, r25
    3c64:	00 0c       	add	r0, r0
    3c66:	aa 0b       	sbc	r26, r26
    3c68:	bb 0b       	sbc	r27, r27
    3c6a:	88 0e       	add	r8, r24
    3c6c:	99 1e       	adc	r9, r25
    3c6e:	aa 1e       	adc	r10, r26
    3c70:	bb 1e       	adc	r11, r27
    3c72:	03 c0       	rjmp	.+6      	; 0x3c7a <menu_in_loop+0xecc>
    3c74:	81 2c       	mov	r8, r1
    3c76:	91 2c       	mov	r9, r1
    3c78:	54 01       	movw	r10, r8
    3c7a:	b5 01       	movw	r22, r10
    3c7c:	a4 01       	movw	r20, r8
    3c7e:	88 e0       	ldi	r24, 0x08	; 8
    3c80:	90 e0       	ldi	r25, 0x00	; 0
    3c82:	0e 94 cd 2b 	call	0x579a	; 0x579a <eeprom_write_dword>
    3c86:	80 92 87 03 	sts	0x0387, r8	; 0x800387 <K_D_RAM+0x8>
    3c8a:	90 92 88 03 	sts	0x0388, r9	; 0x800388 <K_D_RAM+0x9>
    3c8e:	a0 92 89 03 	sts	0x0389, r10	; 0x800389 <K_D_RAM+0xa>
    3c92:	b0 92 8a 03 	sts	0x038A, r11	; 0x80038a <K_D_RAM+0xb>
    3c96:	aa c8       	rjmp	.-3756   	; 0x2dec <menu_in_loop+0x3e>
    3c98:	10 92 85 01 	sts	0x0185, r1	; 0x800185 <flag_M>
    3c9c:	81 e0       	ldi	r24, 0x01	; 1
    3c9e:	80 93 a5 01 	sts	0x01A5, r24	; 0x8001a5 <flag_O>
    3ca2:	10 92 a6 01 	sts	0x01A6, r1	; 0x8001a6 <flag_T>
    3ca6:	df 91       	pop	r29
    3ca8:	cf 91       	pop	r28
    3caa:	1f 91       	pop	r17
    3cac:	0f 91       	pop	r16
    3cae:	ff 90       	pop	r15
    3cb0:	ef 90       	pop	r14
    3cb2:	bf 90       	pop	r11
    3cb4:	af 90       	pop	r10
    3cb6:	9f 90       	pop	r9
    3cb8:	8f 90       	pop	r8
    3cba:	08 95       	ret

00003cbc <check_time>:
    3cbc:	e0 91 8d 03 	lds	r30, 0x038D	; 0x80038d <cur_DOW_RAM>
    3cc0:	f0 e0       	ldi	r31, 0x00	; 0
    3cc2:	e0 57       	subi	r30, 0x70	; 112
    3cc4:	fc 4f       	sbci	r31, 0xFC	; 252
    3cc6:	90 81       	ld	r25, Z
    3cc8:	80 91 32 03 	lds	r24, 0x0332	; 0x800332 <hour>
    3ccc:	90 33       	cpi	r25, 0x30	; 48
    3cce:	09 f0       	breq	.+2      	; 0x3cd2 <check_time+0x16>
    3cd0:	56 c0       	rjmp	.+172    	; 0x3d7e <check_time+0xc2>
    3cd2:	20 91 64 03 	lds	r18, 0x0364	; 0x800364 <time_nach_RAM>
    3cd6:	90 91 8b 03 	lds	r25, 0x038B	; 0x80038b <time_kon_RAM>
    3cda:	40 91 58 01 	lds	r20, 0x0158	; 0x800158 <skv_s+0x4>
    3cde:	28 17       	cp	r18, r24
    3ce0:	58 f4       	brcc	.+22     	; 0x3cf8 <check_time+0x3c>
    3ce2:	89 17       	cp	r24, r25
    3ce4:	48 f4       	brcc	.+18     	; 0x3cf8 <check_time+0x3c>
    3ce6:	10 92 4d 01 	sts	0x014D, r1	; 0x80014d <flag_N>
    3cea:	4e 34       	cpi	r20, 0x4E	; 78
    3cec:	79 f4       	brne	.+30     	; 0x3d0c <check_time+0x50>
    3cee:	34 e4       	ldi	r19, 0x44	; 68
    3cf0:	30 93 58 01 	sts	0x0158, r19	; 0x800158 <skv_s+0x4>
    3cf4:	31 e0       	ldi	r19, 0x01	; 1
    3cf6:	08 c0       	rjmp	.+16     	; 0x3d08 <check_time+0x4c>
    3cf8:	31 e0       	ldi	r19, 0x01	; 1
    3cfa:	30 93 4d 01 	sts	0x014D, r19	; 0x80014d <flag_N>
    3cfe:	44 34       	cpi	r20, 0x44	; 68
    3d00:	29 f4       	brne	.+10     	; 0x3d0c <check_time+0x50>
    3d02:	4e e4       	ldi	r20, 0x4E	; 78
    3d04:	40 93 58 01 	sts	0x0158, r20	; 0x800158 <skv_s+0x4>
    3d08:	30 93 a5 01 	sts	0x01A5, r19	; 0x8001a5 <flag_O>
    3d0c:	82 13       	cpse	r24, r18
    3d0e:	1b c0       	rjmp	.+54     	; 0x3d46 <check_time+0x8a>
    3d10:	40 91 5d 03 	lds	r20, 0x035D	; 0x80035d <min>
    3d14:	20 91 65 03 	lds	r18, 0x0365	; 0x800365 <time_nach_RAM+0x1>
    3d18:	30 91 58 01 	lds	r19, 0x0158	; 0x800158 <skv_s+0x4>
    3d1c:	42 17       	cp	r20, r18
    3d1e:	48 f0       	brcs	.+18     	; 0x3d32 <check_time+0x76>
    3d20:	10 92 4d 01 	sts	0x014D, r1	; 0x80014d <flag_N>
    3d24:	3e 34       	cpi	r19, 0x4E	; 78
    3d26:	79 f4       	brne	.+30     	; 0x3d46 <check_time+0x8a>
    3d28:	24 e4       	ldi	r18, 0x44	; 68
    3d2a:	20 93 58 01 	sts	0x0158, r18	; 0x800158 <skv_s+0x4>
    3d2e:	21 e0       	ldi	r18, 0x01	; 1
    3d30:	08 c0       	rjmp	.+16     	; 0x3d42 <check_time+0x86>
    3d32:	21 e0       	ldi	r18, 0x01	; 1
    3d34:	20 93 4d 01 	sts	0x014D, r18	; 0x80014d <flag_N>
    3d38:	34 34       	cpi	r19, 0x44	; 68
    3d3a:	29 f4       	brne	.+10     	; 0x3d46 <check_time+0x8a>
    3d3c:	3e e4       	ldi	r19, 0x4E	; 78
    3d3e:	30 93 58 01 	sts	0x0158, r19	; 0x800158 <skv_s+0x4>
    3d42:	20 93 a5 01 	sts	0x01A5, r18	; 0x8001a5 <flag_O>
    3d46:	89 13       	cpse	r24, r25
    3d48:	22 c0       	rjmp	.+68     	; 0x3d8e <check_time+0xd2>
    3d4a:	30 91 5d 03 	lds	r19, 0x035D	; 0x80035d <min>
    3d4e:	20 91 8c 03 	lds	r18, 0x038C	; 0x80038c <time_kon_RAM+0x1>
    3d52:	90 91 58 01 	lds	r25, 0x0158	; 0x800158 <skv_s+0x4>
    3d56:	32 17       	cp	r19, r18
    3d58:	38 f0       	brcs	.+14     	; 0x3d68 <check_time+0xac>
    3d5a:	21 e0       	ldi	r18, 0x01	; 1
    3d5c:	20 93 4d 01 	sts	0x014D, r18	; 0x80014d <flag_N>
    3d60:	94 34       	cpi	r25, 0x44	; 68
    3d62:	a9 f4       	brne	.+42     	; 0x3d8e <check_time+0xd2>
    3d64:	9e e4       	ldi	r25, 0x4E	; 78
    3d66:	05 c0       	rjmp	.+10     	; 0x3d72 <check_time+0xb6>
    3d68:	10 92 4d 01 	sts	0x014D, r1	; 0x80014d <flag_N>
    3d6c:	9e 34       	cpi	r25, 0x4E	; 78
    3d6e:	79 f4       	brne	.+30     	; 0x3d8e <check_time+0xd2>
    3d70:	94 e4       	ldi	r25, 0x44	; 68
    3d72:	90 93 58 01 	sts	0x0158, r25	; 0x800158 <skv_s+0x4>
    3d76:	91 e0       	ldi	r25, 0x01	; 1
    3d78:	90 93 a5 01 	sts	0x01A5, r25	; 0x8001a5 <flag_O>
    3d7c:	08 c0       	rjmp	.+16     	; 0x3d8e <check_time+0xd2>
    3d7e:	91 33       	cpi	r25, 0x31	; 49
    3d80:	31 f4       	brne	.+12     	; 0x3d8e <check_time+0xd2>
    3d82:	91 e0       	ldi	r25, 0x01	; 1
    3d84:	90 93 4d 01 	sts	0x014D, r25	; 0x80014d <flag_N>
    3d88:	90 91 58 01 	lds	r25, 0x0158	; 0x800158 <skv_s+0x4>
    3d8c:	e9 cf       	rjmp	.-46     	; 0x3d60 <check_time+0xa4>
    3d8e:	87 31       	cpi	r24, 0x17	; 23
    3d90:	01 f5       	brne	.+64     	; 0x3dd2 <check_time+0x116>
    3d92:	80 91 5d 03 	lds	r24, 0x035D	; 0x80035d <min>
    3d96:	8b 33       	cpi	r24, 0x3B	; 59
    3d98:	e1 f4       	brne	.+56     	; 0x3dd2 <check_time+0x116>
    3d9a:	80 91 63 03 	lds	r24, 0x0363	; 0x800363 <sec>
    3d9e:	8b 33       	cpi	r24, 0x3B	; 59
    3da0:	c1 f4       	brne	.+48     	; 0x3dd2 <check_time+0x116>
    3da2:	10 92 89 01 	sts	0x0189, r1	; 0x800189 <I_prev>
    3da6:	10 92 8a 01 	sts	0x018A, r1	; 0x80018a <I_prev+0x1>
    3daa:	10 92 8b 01 	sts	0x018B, r1	; 0x80018b <I_prev+0x2>
    3dae:	10 92 8c 01 	sts	0x018C, r1	; 0x80018c <I_prev+0x3>
    3db2:	10 92 8d 01 	sts	0x018D, r1	; 0x80018d <I_prev+0x4>
    3db6:	10 92 8e 01 	sts	0x018E, r1	; 0x80018e <I_prev+0x5>
    3dba:	10 92 8f 01 	sts	0x018F, r1	; 0x80018f <I_prev+0x6>
    3dbe:	10 92 90 01 	sts	0x0190, r1	; 0x800190 <I_prev+0x7>
    3dc2:	10 92 91 01 	sts	0x0191, r1	; 0x800191 <I_prev+0x8>
    3dc6:	10 92 92 01 	sts	0x0192, r1	; 0x800192 <I_prev+0x9>
    3dca:	10 92 93 01 	sts	0x0193, r1	; 0x800193 <I_prev+0xa>
    3dce:	10 92 94 01 	sts	0x0194, r1	; 0x800194 <I_prev+0xb>
    3dd2:	08 95       	ret

00003dd4 <get_time>:
    3dd4:	4b e6       	ldi	r20, 0x6B	; 107
    3dd6:	52 e0       	ldi	r21, 0x02	; 2
    3dd8:	ba 01       	movw	r22, r20
    3dda:	ca 01       	movw	r24, r20
    3ddc:	0e 94 29 0f 	call	0x1e52	; 0x1e52 <RTC_Get_Time>
    3de0:	81 11       	cpse	r24, r1
    3de2:	13 c0       	rjmp	.+38     	; 0x3e0a <get_time+0x36>
    3de4:	43 e6       	ldi	r20, 0x63	; 99
    3de6:	53 e0       	ldi	r21, 0x03	; 3
    3de8:	6d e5       	ldi	r22, 0x5D	; 93
    3dea:	73 e0       	ldi	r23, 0x03	; 3
    3dec:	82 e3       	ldi	r24, 0x32	; 50
    3dee:	93 e0       	ldi	r25, 0x03	; 3
    3df0:	0e 94 29 0f 	call	0x1e52	; 0x1e52 <RTC_Get_Time>
    3df4:	2b e6       	ldi	r18, 0x6B	; 107
    3df6:	32 e0       	ldi	r19, 0x02	; 2
    3df8:	a9 01       	movw	r20, r18
    3dfa:	b9 01       	movw	r22, r18
    3dfc:	8d e8       	ldi	r24, 0x8D	; 141
    3dfe:	93 e0       	ldi	r25, 0x03	; 3
    3e00:	0e 94 8a 0f 	call	0x1f14	; 0x1f14 <RTC_Get_Date>
    3e04:	10 92 86 01 	sts	0x0186, r1	; 0x800186 <clock_err>
    3e08:	05 c0       	rjmp	.+10     	; 0x3e14 <get_time+0x40>
    3e0a:	80 91 86 01 	lds	r24, 0x0186	; 0x800186 <clock_err>
    3e0e:	8f 5f       	subi	r24, 0xFF	; 255
    3e10:	80 93 86 01 	sts	0x0186, r24	; 0x800186 <clock_err>
    3e14:	80 91 86 01 	lds	r24, 0x0186	; 0x800186 <clock_err>
    3e18:	8b 30       	cpi	r24, 0x0B	; 11
    3e1a:	50 f0       	brcs	.+20     	; 0x3e30 <get_time+0x5c>
    3e1c:	0e 94 0c 0f 	call	0x1e18	; 0x1e18 <RTC_Init>
    3e20:	81 e0       	ldi	r24, 0x01	; 1
    3e22:	80 93 95 01 	sts	0x0195, r24	; 0x800195 <flag_R>
    3e26:	92 e5       	ldi	r25, 0x52	; 82
    3e28:	90 93 54 01 	sts	0x0154, r25	; 0x800154 <skv_s>
    3e2c:	80 93 a5 01 	sts	0x01A5, r24	; 0x8001a5 <flag_O>
    3e30:	08 95       	ret

00003e32 <start_sencors>:
    3e32:	cf 93       	push	r28
    3e34:	df 93       	push	r29
    3e36:	c3 ee       	ldi	r28, 0xE3	; 227
    3e38:	d3 e0       	ldi	r29, 0x03	; 3
    3e3a:	d0 93 ad 01 	sts	0x01AD, r29	; 0x8001ad <pointer_Flash+0x1>
    3e3e:	c0 93 ac 01 	sts	0x01AC, r28	; 0x8001ac <pointer_Flash>
    3e42:	ae e5       	ldi	r26, 0x5E	; 94
    3e44:	b1 e0       	ldi	r27, 0x01	; 1
    3e46:	80 91 ac 01 	lds	r24, 0x01AC	; 0x8001ac <pointer_Flash>
    3e4a:	90 91 ad 01 	lds	r25, 0x01AD	; 0x8001ad <pointer_Flash+0x1>
    3e4e:	fc 01       	movw	r30, r24
    3e50:	01 96       	adiw	r24, 0x01	; 1
    3e52:	25 91       	lpm	r18, Z+
    3e54:	2d 93       	st	X+, r18
    3e56:	90 93 ad 01 	sts	0x01AD, r25	; 0x8001ad <pointer_Flash+0x1>
    3e5a:	80 93 ac 01 	sts	0x01AC, r24	; 0x8001ac <pointer_Flash>
    3e5e:	f1 e0       	ldi	r31, 0x01	; 1
    3e60:	a5 36       	cpi	r26, 0x65	; 101
    3e62:	bf 07       	cpc	r27, r31
    3e64:	81 f7       	brne	.-32     	; 0x3e46 <start_sencors+0x14>
    3e66:	6e e5       	ldi	r22, 0x5E	; 94
    3e68:	71 e0       	ldi	r23, 0x01	; 1
    3e6a:	80 e0       	ldi	r24, 0x00	; 0
    3e6c:	90 e0       	ldi	r25, 0x00	; 0
    3e6e:	0e 94 75 0d 	call	0x1aea	; 0x1aea <Write_DCON>
    3e72:	27 96       	adiw	r28, 0x07	; 7
    3e74:	83 e0       	ldi	r24, 0x03	; 3
    3e76:	c8 3f       	cpi	r28, 0xF8	; 248
    3e78:	d8 07       	cpc	r29, r24
    3e7a:	f9 f6       	brne	.-66     	; 0x3e3a <start_sencors+0x8>
    3e7c:	df 91       	pop	r29
    3e7e:	cf 91       	pop	r28
    3e80:	08 95       	ret

00003e82 <read_sencors>:
    3e82:	0f 93       	push	r16
    3e84:	1f 93       	push	r17
    3e86:	20 91 8e 03 	lds	r18, 0x038E	; 0x80038e <per_dat_RAM>
    3e8a:	30 91 8f 03 	lds	r19, 0x038F	; 0x80038f <per_dat_RAM+0x1>
    3e8e:	a4 e6       	ldi	r26, 0x64	; 100
    3e90:	b0 e0       	ldi	r27, 0x00	; 0
    3e92:	0e 94 d0 28 	call	0x51a0	; 0x51a0 <__umulhisi3>
    3e96:	00 91 a1 01 	lds	r16, 0x01A1	; 0x8001a1 <time_10_dat>
    3e9a:	10 91 a2 01 	lds	r17, 0x01A2	; 0x8001a2 <time_10_dat+0x1>
    3e9e:	20 91 a3 01 	lds	r18, 0x01A3	; 0x8001a3 <time_10_dat+0x2>
    3ea2:	30 91 a4 01 	lds	r19, 0x01A4	; 0x8001a4 <time_10_dat+0x3>
    3ea6:	06 17       	cp	r16, r22
    3ea8:	17 07       	cpc	r17, r23
    3eaa:	28 07       	cpc	r18, r24
    3eac:	39 07       	cpc	r19, r25
    3eae:	19 f5       	brne	.+70     	; 0x3ef6 <read_sencors+0x74>
    3eb0:	8e ec       	ldi	r24, 0xCE	; 206
    3eb2:	93 e0       	ldi	r25, 0x03	; 3
    3eb4:	90 93 ad 01 	sts	0x01AD, r25	; 0x8001ad <pointer_Flash+0x1>
    3eb8:	80 93 ac 01 	sts	0x01AC, r24	; 0x8001ac <pointer_Flash>
    3ebc:	ae e5       	ldi	r26, 0x5E	; 94
    3ebe:	b1 e0       	ldi	r27, 0x01	; 1
    3ec0:	80 91 ac 01 	lds	r24, 0x01AC	; 0x8001ac <pointer_Flash>
    3ec4:	90 91 ad 01 	lds	r25, 0x01AD	; 0x8001ad <pointer_Flash+0x1>
    3ec8:	fc 01       	movw	r30, r24
    3eca:	01 96       	adiw	r24, 0x01	; 1
    3ecc:	25 91       	lpm	r18, Z+
    3ece:	2d 93       	st	X+, r18
    3ed0:	90 93 ad 01 	sts	0x01AD, r25	; 0x8001ad <pointer_Flash+0x1>
    3ed4:	80 93 ac 01 	sts	0x01AC, r24	; 0x8001ac <pointer_Flash>
    3ed8:	f1 e0       	ldi	r31, 0x01	; 1
    3eda:	a5 36       	cpi	r26, 0x65	; 101
    3edc:	bf 07       	cpc	r27, r31
    3ede:	81 f7       	brne	.-32     	; 0x3ec0 <read_sencors+0x3e>
    3ee0:	6e e5       	ldi	r22, 0x5E	; 94
    3ee2:	71 e0       	ldi	r23, 0x01	; 1
    3ee4:	80 e0       	ldi	r24, 0x00	; 0
    3ee6:	90 e0       	ldi	r25, 0x00	; 0
    3ee8:	0e 94 75 0d 	call	0x1aea	; 0x1aea <Write_DCON>
    3eec:	80 91 a9 01 	lds	r24, 0x01A9	; 0x8001a9 <snc_err>
    3ef0:	8f 5f       	subi	r24, 0xFF	; 255
    3ef2:	80 93 a9 01 	sts	0x01A9, r24	; 0x8001a9 <snc_err>
    3ef6:	20 91 8e 03 	lds	r18, 0x038E	; 0x80038e <per_dat_RAM>
    3efa:	30 91 8f 03 	lds	r19, 0x038F	; 0x80038f <per_dat_RAM+0x1>
    3efe:	a4 e6       	ldi	r26, 0x64	; 100
    3f00:	b0 e0       	ldi	r27, 0x00	; 0
    3f02:	0e 94 d0 28 	call	0x51a0	; 0x51a0 <__umulhisi3>
    3f06:	dc 01       	movw	r26, r24
    3f08:	cb 01       	movw	r24, r22
    3f0a:	44 96       	adiw	r24, 0x14	; 20
    3f0c:	a1 1d       	adc	r26, r1
    3f0e:	b1 1d       	adc	r27, r1
    3f10:	00 91 a1 01 	lds	r16, 0x01A1	; 0x8001a1 <time_10_dat>
    3f14:	10 91 a2 01 	lds	r17, 0x01A2	; 0x8001a2 <time_10_dat+0x1>
    3f18:	20 91 a3 01 	lds	r18, 0x01A3	; 0x8001a3 <time_10_dat+0x2>
    3f1c:	30 91 a4 01 	lds	r19, 0x01A4	; 0x8001a4 <time_10_dat+0x3>
    3f20:	08 17       	cp	r16, r24
    3f22:	19 07       	cpc	r17, r25
    3f24:	2a 07       	cpc	r18, r26
    3f26:	3b 07       	cpc	r19, r27
    3f28:	19 f5       	brne	.+70     	; 0x3f70 <read_sencors+0xee>
    3f2a:	85 ed       	ldi	r24, 0xD5	; 213
    3f2c:	93 e0       	ldi	r25, 0x03	; 3
    3f2e:	90 93 ad 01 	sts	0x01AD, r25	; 0x8001ad <pointer_Flash+0x1>
    3f32:	80 93 ac 01 	sts	0x01AC, r24	; 0x8001ac <pointer_Flash>
    3f36:	ae e5       	ldi	r26, 0x5E	; 94
    3f38:	b1 e0       	ldi	r27, 0x01	; 1
    3f3a:	80 91 ac 01 	lds	r24, 0x01AC	; 0x8001ac <pointer_Flash>
    3f3e:	90 91 ad 01 	lds	r25, 0x01AD	; 0x8001ad <pointer_Flash+0x1>
    3f42:	fc 01       	movw	r30, r24
    3f44:	01 96       	adiw	r24, 0x01	; 1
    3f46:	25 91       	lpm	r18, Z+
    3f48:	2d 93       	st	X+, r18
    3f4a:	90 93 ad 01 	sts	0x01AD, r25	; 0x8001ad <pointer_Flash+0x1>
    3f4e:	80 93 ac 01 	sts	0x01AC, r24	; 0x8001ac <pointer_Flash>
    3f52:	f1 e0       	ldi	r31, 0x01	; 1
    3f54:	a5 36       	cpi	r26, 0x65	; 101
    3f56:	bf 07       	cpc	r27, r31
    3f58:	81 f7       	brne	.-32     	; 0x3f3a <read_sencors+0xb8>
    3f5a:	6e e5       	ldi	r22, 0x5E	; 94
    3f5c:	71 e0       	ldi	r23, 0x01	; 1
    3f5e:	80 e0       	ldi	r24, 0x00	; 0
    3f60:	90 e0       	ldi	r25, 0x00	; 0
    3f62:	0e 94 75 0d 	call	0x1aea	; 0x1aea <Write_DCON>
    3f66:	80 91 aa 01 	lds	r24, 0x01AA	; 0x8001aa <snc_err+0x1>
    3f6a:	8f 5f       	subi	r24, 0xFF	; 255
    3f6c:	80 93 aa 01 	sts	0x01AA, r24	; 0x8001aa <snc_err+0x1>
    3f70:	20 91 8e 03 	lds	r18, 0x038E	; 0x80038e <per_dat_RAM>
    3f74:	30 91 8f 03 	lds	r19, 0x038F	; 0x80038f <per_dat_RAM+0x1>
    3f78:	a4 e6       	ldi	r26, 0x64	; 100
    3f7a:	b0 e0       	ldi	r27, 0x00	; 0
    3f7c:	0e 94 d0 28 	call	0x51a0	; 0x51a0 <__umulhisi3>
    3f80:	dc 01       	movw	r26, r24
    3f82:	cb 01       	movw	r24, r22
    3f84:	88 96       	adiw	r24, 0x28	; 40
    3f86:	a1 1d       	adc	r26, r1
    3f88:	b1 1d       	adc	r27, r1
    3f8a:	00 91 a1 01 	lds	r16, 0x01A1	; 0x8001a1 <time_10_dat>
    3f8e:	10 91 a2 01 	lds	r17, 0x01A2	; 0x8001a2 <time_10_dat+0x1>
    3f92:	20 91 a3 01 	lds	r18, 0x01A3	; 0x8001a3 <time_10_dat+0x2>
    3f96:	30 91 a4 01 	lds	r19, 0x01A4	; 0x8001a4 <time_10_dat+0x3>
    3f9a:	08 17       	cp	r16, r24
    3f9c:	19 07       	cpc	r17, r25
    3f9e:	2a 07       	cpc	r18, r26
    3fa0:	3b 07       	cpc	r19, r27
    3fa2:	19 f5       	brne	.+70     	; 0x3fea <read_sencors+0x168>
    3fa4:	8c ed       	ldi	r24, 0xDC	; 220
    3fa6:	93 e0       	ldi	r25, 0x03	; 3
    3fa8:	90 93 ad 01 	sts	0x01AD, r25	; 0x8001ad <pointer_Flash+0x1>
    3fac:	80 93 ac 01 	sts	0x01AC, r24	; 0x8001ac <pointer_Flash>
    3fb0:	ae e5       	ldi	r26, 0x5E	; 94
    3fb2:	b1 e0       	ldi	r27, 0x01	; 1
    3fb4:	80 91 ac 01 	lds	r24, 0x01AC	; 0x8001ac <pointer_Flash>
    3fb8:	90 91 ad 01 	lds	r25, 0x01AD	; 0x8001ad <pointer_Flash+0x1>
    3fbc:	fc 01       	movw	r30, r24
    3fbe:	01 96       	adiw	r24, 0x01	; 1
    3fc0:	25 91       	lpm	r18, Z+
    3fc2:	2d 93       	st	X+, r18
    3fc4:	90 93 ad 01 	sts	0x01AD, r25	; 0x8001ad <pointer_Flash+0x1>
    3fc8:	80 93 ac 01 	sts	0x01AC, r24	; 0x8001ac <pointer_Flash>
    3fcc:	f1 e0       	ldi	r31, 0x01	; 1
    3fce:	a5 36       	cpi	r26, 0x65	; 101
    3fd0:	bf 07       	cpc	r27, r31
    3fd2:	81 f7       	brne	.-32     	; 0x3fb4 <read_sencors+0x132>
    3fd4:	6e e5       	ldi	r22, 0x5E	; 94
    3fd6:	71 e0       	ldi	r23, 0x01	; 1
    3fd8:	80 e0       	ldi	r24, 0x00	; 0
    3fda:	90 e0       	ldi	r25, 0x00	; 0
    3fdc:	0e 94 75 0d 	call	0x1aea	; 0x1aea <Write_DCON>
    3fe0:	80 91 ab 01 	lds	r24, 0x01AB	; 0x8001ab <snc_err+0x2>
    3fe4:	8f 5f       	subi	r24, 0xFF	; 255
    3fe6:	80 93 ab 01 	sts	0x01AB, r24	; 0x8001ab <snc_err+0x2>
    3fea:	6e e5       	ldi	r22, 0x5E	; 94
    3fec:	71 e0       	ldi	r23, 0x01	; 1
    3fee:	80 e0       	ldi	r24, 0x00	; 0
    3ff0:	90 e0       	ldi	r25, 0x00	; 0
    3ff2:	0e 94 d8 0d 	call	0x1bb0	; 0x1bb0 <Read_DCON>
    3ff6:	81 30       	cpi	r24, 0x01	; 1
    3ff8:	09 f0       	breq	.+2      	; 0x3ffc <read_sencors+0x17a>
    3ffa:	c4 c0       	rjmp	.+392    	; 0x4184 <read_sencors+0x302>
    3ffc:	e0 91 5e 01 	lds	r30, 0x015E	; 0x80015e <buf_UART_1>
    4000:	f0 e0       	ldi	r31, 0x00	; 0
    4002:	e2 5a       	subi	r30, 0xA2	; 162
    4004:	fe 4f       	sbci	r31, 0xFE	; 254
    4006:	10 82       	st	Z, r1
    4008:	80 91 63 01 	lds	r24, 0x0163	; 0x800163 <buf_UART_1+0x5>
    400c:	82 33       	cpi	r24, 0x32	; 50
    400e:	e9 f5       	brne	.+122    	; 0x408a <read_sencors+0x208>
    4010:	10 92 a9 01 	sts	0x01A9, r1	; 0x8001a9 <snc_err>
    4014:	40 91 65 01 	lds	r20, 0x0165	; 0x800165 <buf_UART_1+0x7>
    4018:	40 93 6c 02 	sts	0x026C, r20	; 0x80026c <snc1>
    401c:	20 91 66 01 	lds	r18, 0x0166	; 0x800166 <buf_UART_1+0x8>
    4020:	20 93 6d 02 	sts	0x026D, r18	; 0x80026d <snc1+0x1>
    4024:	8e e2       	ldi	r24, 0x2E	; 46
    4026:	80 93 6e 02 	sts	0x026E, r24	; 0x80026e <snc1+0x2>
    402a:	80 91 67 01 	lds	r24, 0x0167	; 0x800167 <buf_UART_1+0x9>
    402e:	80 93 6f 02 	sts	0x026F, r24	; 0x80026f <snc1+0x3>
    4032:	10 92 70 02 	sts	0x0270, r1	; 0x800270 <snc1+0x4>
    4036:	50 e0       	ldi	r21, 0x00	; 0
    4038:	40 53       	subi	r20, 0x30	; 48
    403a:	51 09       	sbc	r21, r1
    403c:	e0 e1       	ldi	r30, 0x10	; 16
    403e:	f7 e2       	ldi	r31, 0x27	; 39
    4040:	4e 9f       	mul	r20, r30
    4042:	b0 01       	movw	r22, r0
    4044:	4f 9f       	mul	r20, r31
    4046:	70 0d       	add	r23, r0
    4048:	5e 9f       	mul	r21, r30
    404a:	70 0d       	add	r23, r0
    404c:	11 24       	eor	r1, r1
    404e:	30 e0       	ldi	r19, 0x00	; 0
    4050:	20 53       	subi	r18, 0x30	; 48
    4052:	31 09       	sbc	r19, r1
    4054:	e8 ee       	ldi	r30, 0xE8	; 232
    4056:	f3 e0       	ldi	r31, 0x03	; 3
    4058:	2e 9f       	mul	r18, r30
    405a:	a0 01       	movw	r20, r0
    405c:	2f 9f       	mul	r18, r31
    405e:	50 0d       	add	r21, r0
    4060:	3e 9f       	mul	r19, r30
    4062:	50 0d       	add	r21, r0
    4064:	11 24       	eor	r1, r1
    4066:	46 0f       	add	r20, r22
    4068:	57 1f       	adc	r21, r23
    406a:	90 e0       	ldi	r25, 0x00	; 0
    406c:	c0 97       	sbiw	r24, 0x30	; 48
    406e:	64 e6       	ldi	r22, 0x64	; 100
    4070:	68 9f       	mul	r22, r24
    4072:	90 01       	movw	r18, r0
    4074:	69 9f       	mul	r22, r25
    4076:	30 0d       	add	r19, r0
    4078:	11 24       	eor	r1, r1
    407a:	ca 01       	movw	r24, r20
    407c:	82 0f       	add	r24, r18
    407e:	93 1f       	adc	r25, r19
    4080:	90 93 34 03 	sts	0x0334, r25	; 0x800334 <cur_temp+0x1>
    4084:	80 93 33 03 	sts	0x0333, r24	; 0x800333 <cur_temp>
    4088:	7d c0       	rjmp	.+250    	; 0x4184 <read_sencors+0x302>
    408a:	83 33       	cpi	r24, 0x33	; 51
    408c:	e9 f5       	brne	.+122    	; 0x4108 <read_sencors+0x286>
    408e:	10 92 aa 01 	sts	0x01AA, r1	; 0x8001aa <snc_err+0x1>
    4092:	40 91 65 01 	lds	r20, 0x0165	; 0x800165 <buf_UART_1+0x7>
    4096:	40 93 7a 03 	sts	0x037A, r20	; 0x80037a <snc2>
    409a:	20 91 66 01 	lds	r18, 0x0166	; 0x800166 <buf_UART_1+0x8>
    409e:	20 93 7b 03 	sts	0x037B, r18	; 0x80037b <snc2+0x1>
    40a2:	8e e2       	ldi	r24, 0x2E	; 46
    40a4:	80 93 7c 03 	sts	0x037C, r24	; 0x80037c <snc2+0x2>
    40a8:	80 91 67 01 	lds	r24, 0x0167	; 0x800167 <buf_UART_1+0x9>
    40ac:	80 93 7d 03 	sts	0x037D, r24	; 0x80037d <snc2+0x3>
    40b0:	10 92 7e 03 	sts	0x037E, r1	; 0x80037e <snc2+0x4>
    40b4:	50 e0       	ldi	r21, 0x00	; 0
    40b6:	40 53       	subi	r20, 0x30	; 48
    40b8:	51 09       	sbc	r21, r1
    40ba:	e0 e1       	ldi	r30, 0x10	; 16
    40bc:	f7 e2       	ldi	r31, 0x27	; 39
    40be:	4e 9f       	mul	r20, r30
    40c0:	b0 01       	movw	r22, r0
    40c2:	4f 9f       	mul	r20, r31
    40c4:	70 0d       	add	r23, r0
    40c6:	5e 9f       	mul	r21, r30
    40c8:	70 0d       	add	r23, r0
    40ca:	11 24       	eor	r1, r1
    40cc:	30 e0       	ldi	r19, 0x00	; 0
    40ce:	20 53       	subi	r18, 0x30	; 48
    40d0:	31 09       	sbc	r19, r1
    40d2:	e8 ee       	ldi	r30, 0xE8	; 232
    40d4:	f3 e0       	ldi	r31, 0x03	; 3
    40d6:	2e 9f       	mul	r18, r30
    40d8:	a0 01       	movw	r20, r0
    40da:	2f 9f       	mul	r18, r31
    40dc:	50 0d       	add	r21, r0
    40de:	3e 9f       	mul	r19, r30
    40e0:	50 0d       	add	r21, r0
    40e2:	11 24       	eor	r1, r1
    40e4:	46 0f       	add	r20, r22
    40e6:	57 1f       	adc	r21, r23
    40e8:	90 e0       	ldi	r25, 0x00	; 0
    40ea:	c0 97       	sbiw	r24, 0x30	; 48
    40ec:	64 e6       	ldi	r22, 0x64	; 100
    40ee:	68 9f       	mul	r22, r24
    40f0:	90 01       	movw	r18, r0
    40f2:	69 9f       	mul	r22, r25
    40f4:	30 0d       	add	r19, r0
    40f6:	11 24       	eor	r1, r1
    40f8:	ca 01       	movw	r24, r20
    40fa:	82 0f       	add	r24, r18
    40fc:	93 1f       	adc	r25, r19
    40fe:	90 93 36 03 	sts	0x0336, r25	; 0x800336 <cur_temp+0x3>
    4102:	80 93 35 03 	sts	0x0335, r24	; 0x800335 <cur_temp+0x2>
    4106:	3e c0       	rjmp	.+124    	; 0x4184 <read_sencors+0x302>
    4108:	84 33       	cpi	r24, 0x34	; 52
    410a:	e1 f5       	brne	.+120    	; 0x4184 <read_sencors+0x302>
    410c:	10 92 ab 01 	sts	0x01AB, r1	; 0x8001ab <snc_err+0x2>
    4110:	40 91 65 01 	lds	r20, 0x0165	; 0x800165 <buf_UART_1+0x7>
    4114:	40 93 65 02 	sts	0x0265, r20	; 0x800265 <snc3>
    4118:	20 91 66 01 	lds	r18, 0x0166	; 0x800166 <buf_UART_1+0x8>
    411c:	20 93 66 02 	sts	0x0266, r18	; 0x800266 <snc3+0x1>
    4120:	8e e2       	ldi	r24, 0x2E	; 46
    4122:	80 93 67 02 	sts	0x0267, r24	; 0x800267 <snc3+0x2>
    4126:	80 91 67 01 	lds	r24, 0x0167	; 0x800167 <buf_UART_1+0x9>
    412a:	80 93 68 02 	sts	0x0268, r24	; 0x800268 <snc3+0x3>
    412e:	10 92 69 02 	sts	0x0269, r1	; 0x800269 <snc3+0x4>
    4132:	50 e0       	ldi	r21, 0x00	; 0
    4134:	40 53       	subi	r20, 0x30	; 48
    4136:	51 09       	sbc	r21, r1
    4138:	e0 e1       	ldi	r30, 0x10	; 16
    413a:	f7 e2       	ldi	r31, 0x27	; 39
    413c:	4e 9f       	mul	r20, r30
    413e:	b0 01       	movw	r22, r0
    4140:	4f 9f       	mul	r20, r31
    4142:	70 0d       	add	r23, r0
    4144:	5e 9f       	mul	r21, r30
    4146:	70 0d       	add	r23, r0
    4148:	11 24       	eor	r1, r1
    414a:	30 e0       	ldi	r19, 0x00	; 0
    414c:	20 53       	subi	r18, 0x30	; 48
    414e:	31 09       	sbc	r19, r1
    4150:	e8 ee       	ldi	r30, 0xE8	; 232
    4152:	f3 e0       	ldi	r31, 0x03	; 3
    4154:	2e 9f       	mul	r18, r30
    4156:	a0 01       	movw	r20, r0
    4158:	2f 9f       	mul	r18, r31
    415a:	50 0d       	add	r21, r0
    415c:	3e 9f       	mul	r19, r30
    415e:	50 0d       	add	r21, r0
    4160:	11 24       	eor	r1, r1
    4162:	46 0f       	add	r20, r22
    4164:	57 1f       	adc	r21, r23
    4166:	90 e0       	ldi	r25, 0x00	; 0
    4168:	c0 97       	sbiw	r24, 0x30	; 48
    416a:	64 e6       	ldi	r22, 0x64	; 100
    416c:	68 9f       	mul	r22, r24
    416e:	90 01       	movw	r18, r0
    4170:	69 9f       	mul	r22, r25
    4172:	30 0d       	add	r19, r0
    4174:	11 24       	eor	r1, r1
    4176:	ca 01       	movw	r24, r20
    4178:	82 0f       	add	r24, r18
    417a:	93 1f       	adc	r25, r19
    417c:	90 93 38 03 	sts	0x0338, r25	; 0x800338 <cur_temp+0x5>
    4180:	80 93 37 03 	sts	0x0337, r24	; 0x800337 <cur_temp+0x4>
    4184:	20 91 8e 03 	lds	r18, 0x038E	; 0x80038e <per_dat_RAM>
    4188:	30 91 8f 03 	lds	r19, 0x038F	; 0x80038f <per_dat_RAM+0x1>
    418c:	a4 e6       	ldi	r26, 0x64	; 100
    418e:	b0 e0       	ldi	r27, 0x00	; 0
    4190:	0e 94 d0 28 	call	0x51a0	; 0x51a0 <__umulhisi3>
    4194:	dc 01       	movw	r26, r24
    4196:	cb 01       	movw	r24, r22
    4198:	80 5b       	subi	r24, 0xB0	; 176
    419a:	9f 4f       	sbci	r25, 0xFF	; 255
    419c:	af 4f       	sbci	r26, 0xFF	; 255
    419e:	bf 4f       	sbci	r27, 0xFF	; 255
    41a0:	00 91 a1 01 	lds	r16, 0x01A1	; 0x8001a1 <time_10_dat>
    41a4:	10 91 a2 01 	lds	r17, 0x01A2	; 0x8001a2 <time_10_dat+0x1>
    41a8:	20 91 a3 01 	lds	r18, 0x01A3	; 0x8001a3 <time_10_dat+0x2>
    41ac:	30 91 a4 01 	lds	r19, 0x01A4	; 0x8001a4 <time_10_dat+0x3>
    41b0:	08 17       	cp	r16, r24
    41b2:	19 07       	cpc	r17, r25
    41b4:	2a 07       	cpc	r18, r26
    41b6:	3b 07       	cpc	r19, r27
    41b8:	09 f0       	breq	.+2      	; 0x41bc <read_sencors+0x33a>
    41ba:	4a c0       	rjmp	.+148    	; 0x4250 <read_sencors+0x3ce>
    41bc:	10 92 a1 01 	sts	0x01A1, r1	; 0x8001a1 <time_10_dat>
    41c0:	10 92 a2 01 	sts	0x01A2, r1	; 0x8001a2 <time_10_dat+0x1>
    41c4:	10 92 a3 01 	sts	0x01A3, r1	; 0x8001a3 <time_10_dat+0x2>
    41c8:	10 92 a4 01 	sts	0x01A4, r1	; 0x8001a4 <time_10_dat+0x3>
    41cc:	80 91 a9 01 	lds	r24, 0x01A9	; 0x8001a9 <snc_err>
    41d0:	8b 30       	cpi	r24, 0x0B	; 11
    41d2:	88 f0       	brcs	.+34     	; 0x41f6 <read_sencors+0x374>
    41d4:	84 e4       	ldi	r24, 0x44	; 68
    41d6:	80 93 6c 02 	sts	0x026C, r24	; 0x80026c <snc1>
    41da:	9d e4       	ldi	r25, 0x4D	; 77
    41dc:	90 93 6d 02 	sts	0x026D, r25	; 0x80026d <snc1+0x1>
    41e0:	97 e4       	ldi	r25, 0x47	; 71
    41e2:	90 93 6e 02 	sts	0x026E, r25	; 0x80026e <snc1+0x2>
    41e6:	80 93 6f 02 	sts	0x026F, r24	; 0x80026f <snc1+0x3>
    41ea:	8c ed       	ldi	r24, 0xDC	; 220
    41ec:	9f ef       	ldi	r25, 0xFF	; 255
    41ee:	90 93 34 03 	sts	0x0334, r25	; 0x800334 <cur_temp+0x1>
    41f2:	80 93 33 03 	sts	0x0333, r24	; 0x800333 <cur_temp>
    41f6:	80 91 aa 01 	lds	r24, 0x01AA	; 0x8001aa <snc_err+0x1>
    41fa:	8b 30       	cpi	r24, 0x0B	; 11
    41fc:	88 f0       	brcs	.+34     	; 0x4220 <read_sencors+0x39e>
    41fe:	84 e4       	ldi	r24, 0x44	; 68
    4200:	80 93 7a 03 	sts	0x037A, r24	; 0x80037a <snc2>
    4204:	9d e4       	ldi	r25, 0x4D	; 77
    4206:	90 93 7b 03 	sts	0x037B, r25	; 0x80037b <snc2+0x1>
    420a:	97 e4       	ldi	r25, 0x47	; 71
    420c:	90 93 7c 03 	sts	0x037C, r25	; 0x80037c <snc2+0x2>
    4210:	80 93 7d 03 	sts	0x037D, r24	; 0x80037d <snc2+0x3>
    4214:	8c ed       	ldi	r24, 0xDC	; 220
    4216:	9f ef       	ldi	r25, 0xFF	; 255
    4218:	90 93 36 03 	sts	0x0336, r25	; 0x800336 <cur_temp+0x3>
    421c:	80 93 35 03 	sts	0x0335, r24	; 0x800335 <cur_temp+0x2>
    4220:	80 91 ab 01 	lds	r24, 0x01AB	; 0x8001ab <snc_err+0x2>
    4224:	8b 30       	cpi	r24, 0x0B	; 11
    4226:	88 f0       	brcs	.+34     	; 0x424a <read_sencors+0x3c8>
    4228:	84 e4       	ldi	r24, 0x44	; 68
    422a:	80 93 65 02 	sts	0x0265, r24	; 0x800265 <snc3>
    422e:	9d e4       	ldi	r25, 0x4D	; 77
    4230:	90 93 66 02 	sts	0x0266, r25	; 0x800266 <snc3+0x1>
    4234:	97 e4       	ldi	r25, 0x47	; 71
    4236:	90 93 67 02 	sts	0x0267, r25	; 0x800267 <snc3+0x2>
    423a:	80 93 68 02 	sts	0x0268, r24	; 0x800268 <snc3+0x3>
    423e:	8c ed       	ldi	r24, 0xDC	; 220
    4240:	9f ef       	ldi	r25, 0xFF	; 255
    4242:	90 93 38 03 	sts	0x0338, r25	; 0x800338 <cur_temp+0x5>
    4246:	80 93 37 03 	sts	0x0337, r24	; 0x800337 <cur_temp+0x4>
    424a:	81 e0       	ldi	r24, 0x01	; 1
    424c:	80 93 a5 01 	sts	0x01A5, r24	; 0x8001a5 <flag_O>
    4250:	1f 91       	pop	r17
    4252:	0f 91       	pop	r16
    4254:	08 95       	ret

00004256 <check_buttons>:
    4256:	80 e0       	ldi	r24, 0x00	; 0
    4258:	0e 94 60 03 	call	0x6c0	; 0x6c0 <Key>
    425c:	81 30       	cpi	r24, 0x01	; 1
    425e:	b1 f4       	brne	.+44     	; 0x428c <check_buttons+0x36>
    4260:	0e 94 d7 16 	call	0x2dae	; 0x2dae <menu_in_loop>
    4264:	13 c0       	rjmp	.+38     	; 0x428c <check_buttons+0x36>
    4266:	f8 94       	cli
    4268:	20 91 96 01 	lds	r18, 0x0196	; 0x800196 <t_push>
    426c:	30 91 97 01 	lds	r19, 0x0197	; 0x800197 <t_push+0x1>
    4270:	2f 5f       	subi	r18, 0xFF	; 255
    4272:	3f 4f       	sbci	r19, 0xFF	; 255
    4274:	30 93 97 01 	sts	0x0197, r19	; 0x800197 <t_push+0x1>
    4278:	20 93 96 01 	sts	0x0196, r18	; 0x800196 <t_push>
    427c:	28 3b       	cpi	r18, 0xB8	; 184
    427e:	3b 40       	sbci	r19, 0x0B	; 11
    4280:	58 f4       	brcc	.+22     	; 0x4298 <check_buttons+0x42>
    4282:	86 e6       	ldi	r24, 0x66	; 102
    4284:	9e e0       	ldi	r25, 0x0E	; 14
    4286:	01 97       	sbiw	r24, 0x01	; 1
    4288:	f1 f7       	brne	.-4      	; 0x4286 <check_buttons+0x30>
    428a:	00 00       	nop
    428c:	83 e0       	ldi	r24, 0x03	; 3
    428e:	0e 94 60 03 	call	0x6c0	; 0x6c0 <Key>
    4292:	81 30       	cpi	r24, 0x01	; 1
    4294:	41 f3       	breq	.-48     	; 0x4266 <check_buttons+0x10>
    4296:	15 c0       	rjmp	.+42     	; 0x42c2 <check_buttons+0x6c>
    4298:	90 91 95 01 	lds	r25, 0x0195	; 0x800195 <flag_R>
    429c:	91 11       	cpse	r25, r1
    429e:	08 c0       	rjmp	.+16     	; 0x42b0 <check_buttons+0x5a>
    42a0:	80 93 95 01 	sts	0x0195, r24	; 0x800195 <flag_R>
    42a4:	92 e5       	ldi	r25, 0x52	; 82
    42a6:	90 93 54 01 	sts	0x0154, r25	; 0x800154 <skv_s>
    42aa:	80 93 a5 01 	sts	0x01A5, r24	; 0x8001a5 <flag_O>
    42ae:	09 c0       	rjmp	.+18     	; 0x42c2 <check_buttons+0x6c>
    42b0:	91 30       	cpi	r25, 0x01	; 1
    42b2:	39 f7       	brne	.-50     	; 0x4282 <check_buttons+0x2c>
    42b4:	10 92 95 01 	sts	0x0195, r1	; 0x800195 <flag_R>
    42b8:	81 e4       	ldi	r24, 0x41	; 65
    42ba:	80 93 54 01 	sts	0x0154, r24	; 0x800154 <skv_s>
    42be:	90 93 a5 01 	sts	0x01A5, r25	; 0x8001a5 <flag_O>
    42c2:	78 94       	sei
    42c4:	10 92 97 01 	sts	0x0197, r1	; 0x800197 <t_push+0x1>
    42c8:	10 92 96 01 	sts	0x0196, r1	; 0x800196 <t_push>
    42cc:	82 e0       	ldi	r24, 0x02	; 2
    42ce:	0e 94 60 03 	call	0x6c0	; 0x6c0 <Key>
    42d2:	81 30       	cpi	r24, 0x01	; 1
    42d4:	39 f5       	brne	.+78     	; 0x4324 <check_buttons+0xce>
    42d6:	82 e0       	ldi	r24, 0x02	; 2
    42d8:	0e 94 60 03 	call	0x6c0	; 0x6c0 <Key>
    42dc:	81 30       	cpi	r24, 0x01	; 1
    42de:	39 f4       	brne	.+14     	; 0x42ee <check_buttons+0x98>
    42e0:	8f ef       	ldi	r24, 0xFF	; 255
    42e2:	9f e8       	ldi	r25, 0x8F	; 143
    42e4:	01 97       	sbiw	r24, 0x01	; 1
    42e6:	f1 f7       	brne	.-4      	; 0x42e4 <check_buttons+0x8e>
    42e8:	00 c0       	rjmp	.+0      	; 0x42ea <check_buttons+0x94>
    42ea:	00 00       	nop
    42ec:	f4 cf       	rjmp	.-24     	; 0x42d6 <check_buttons+0x80>
    42ee:	80 91 5a 01 	lds	r24, 0x015A	; 0x80015a <skv>
    42f2:	84 36       	cpi	r24, 0x64	; 100
    42f4:	18 f4       	brcc	.+6      	; 0x42fc <check_buttons+0xa6>
    42f6:	8b 5f       	subi	r24, 0xFB	; 251
    42f8:	80 93 5a 01 	sts	0x015A, r24	; 0x80015a <skv>
    42fc:	80 91 5a 01 	lds	r24, 0x015A	; 0x80015a <skv>
    4300:	64 e6       	ldi	r22, 0x64	; 100
    4302:	25 d7       	rcall	.+3658   	; 0x514e <__udivmodqi4>
    4304:	20 e3       	ldi	r18, 0x30	; 48
    4306:	28 0f       	add	r18, r24
    4308:	20 93 55 01 	sts	0x0155, r18	; 0x800155 <skv_s+0x1>
    430c:	89 2f       	mov	r24, r25
    430e:	6a e0       	ldi	r22, 0x0A	; 10
    4310:	1e d7       	rcall	.+3644   	; 0x514e <__udivmodqi4>
    4312:	80 5d       	subi	r24, 0xD0	; 208
    4314:	80 93 56 01 	sts	0x0156, r24	; 0x800156 <skv_s+0x2>
    4318:	90 5d       	subi	r25, 0xD0	; 208
    431a:	90 93 57 01 	sts	0x0157, r25	; 0x800157 <skv_s+0x3>
    431e:	81 e0       	ldi	r24, 0x01	; 1
    4320:	80 93 a5 01 	sts	0x01A5, r24	; 0x8001a5 <flag_O>
    4324:	81 e0       	ldi	r24, 0x01	; 1
    4326:	0e 94 60 03 	call	0x6c0	; 0x6c0 <Key>
    432a:	81 30       	cpi	r24, 0x01	; 1
    432c:	39 f5       	brne	.+78     	; 0x437c <check_buttons+0x126>
    432e:	81 e0       	ldi	r24, 0x01	; 1
    4330:	0e 94 60 03 	call	0x6c0	; 0x6c0 <Key>
    4334:	81 30       	cpi	r24, 0x01	; 1
    4336:	39 f4       	brne	.+14     	; 0x4346 <check_buttons+0xf0>
    4338:	8f ef       	ldi	r24, 0xFF	; 255
    433a:	9f e8       	ldi	r25, 0x8F	; 143
    433c:	01 97       	sbiw	r24, 0x01	; 1
    433e:	f1 f7       	brne	.-4      	; 0x433c <check_buttons+0xe6>
    4340:	00 c0       	rjmp	.+0      	; 0x4342 <check_buttons+0xec>
    4342:	00 00       	nop
    4344:	f4 cf       	rjmp	.-24     	; 0x432e <check_buttons+0xd8>
    4346:	80 91 5a 01 	lds	r24, 0x015A	; 0x80015a <skv>
    434a:	88 23       	and	r24, r24
    434c:	19 f0       	breq	.+6      	; 0x4354 <check_buttons+0xfe>
    434e:	85 50       	subi	r24, 0x05	; 5
    4350:	80 93 5a 01 	sts	0x015A, r24	; 0x80015a <skv>
    4354:	80 91 5a 01 	lds	r24, 0x015A	; 0x80015a <skv>
    4358:	64 e6       	ldi	r22, 0x64	; 100
    435a:	f9 d6       	rcall	.+3570   	; 0x514e <__udivmodqi4>
    435c:	20 e3       	ldi	r18, 0x30	; 48
    435e:	28 0f       	add	r18, r24
    4360:	20 93 55 01 	sts	0x0155, r18	; 0x800155 <skv_s+0x1>
    4364:	89 2f       	mov	r24, r25
    4366:	6a e0       	ldi	r22, 0x0A	; 10
    4368:	f2 d6       	rcall	.+3556   	; 0x514e <__udivmodqi4>
    436a:	80 5d       	subi	r24, 0xD0	; 208
    436c:	80 93 56 01 	sts	0x0156, r24	; 0x800156 <skv_s+0x2>
    4370:	90 5d       	subi	r25, 0xD0	; 208
    4372:	90 93 57 01 	sts	0x0157, r25	; 0x800157 <skv_s+0x3>
    4376:	81 e0       	ldi	r24, 0x01	; 1
    4378:	80 93 a5 01 	sts	0x01A5, r24	; 0x8001a5 <flag_O>
    437c:	08 95       	ret

0000437e <main_screen>:
    437e:	80 91 a7 01 	lds	r24, 0x01A7	; 0x8001a7 <time_10_slide>
    4382:	90 91 a8 01 	lds	r25, 0x01A8	; 0x8001a8 <time_10_slide+0x1>
    4386:	9c 01       	movw	r18, r24
    4388:	21 50       	subi	r18, 0x01	; 1
    438a:	31 09       	sbc	r19, r1
    438c:	28 3c       	cpi	r18, 0xC8	; 200
    438e:	31 05       	cpc	r19, r1
    4390:	10 f5       	brcc	.+68     	; 0x43d6 <main_screen+0x58>
    4392:	20 91 5d 01 	lds	r18, 0x015D	; 0x80015d <flag_S>
    4396:	23 30       	cpi	r18, 0x03	; 3
    4398:	f1 f4       	brne	.+60     	; 0x43d6 <main_screen+0x58>
    439a:	80 e0       	ldi	r24, 0x00	; 0
    439c:	0e 94 c4 02 	call	0x588	; 0x588 <_LED_Set_Addres>
    43a0:	83 e8       	ldi	r24, 0x83	; 131
    43a2:	93 e0       	ldi	r25, 0x03	; 3
    43a4:	0e 94 30 03 	call	0x660	; 0x660 <LED_Write_String_P>
    43a8:	80 e4       	ldi	r24, 0x40	; 64
    43aa:	0e 94 c4 02 	call	0x588	; 0x588 <_LED_Set_Addres>
    43ae:	8f e7       	ldi	r24, 0x7F	; 127
    43b0:	93 e0       	ldi	r25, 0x03	; 3
    43b2:	0e 94 30 03 	call	0x660	; 0x660 <LED_Write_String_P>
    43b6:	83 e0       	ldi	r24, 0x03	; 3
    43b8:	0e 94 c4 02 	call	0x588	; 0x588 <_LED_Set_Addres>
    43bc:	8c e6       	ldi	r24, 0x6C	; 108
    43be:	92 e0       	ldi	r25, 0x02	; 2
    43c0:	0e 94 1c 03 	call	0x638	; 0x638 <LED_Write_String>
    43c4:	83 e4       	ldi	r24, 0x43	; 67
    43c6:	0e 94 c4 02 	call	0x588	; 0x588 <_LED_Set_Addres>
    43ca:	8a e7       	ldi	r24, 0x7A	; 122
    43cc:	93 e0       	ldi	r25, 0x03	; 3
    43ce:	0e 94 1c 03 	call	0x638	; 0x638 <LED_Write_String>
    43d2:	81 e0       	ldi	r24, 0x01	; 1
    43d4:	4d c0       	rjmp	.+154    	; 0x4470 <main_screen+0xf2>
    43d6:	9c 01       	movw	r18, r24
    43d8:	29 5c       	subi	r18, 0xC9	; 201
    43da:	31 09       	sbc	r19, r1
    43dc:	28 3c       	cpi	r18, 0xC8	; 200
    43de:	31 05       	cpc	r19, r1
    43e0:	18 f5       	brcc	.+70     	; 0x4428 <main_screen+0xaa>
    43e2:	80 91 5d 01 	lds	r24, 0x015D	; 0x80015d <flag_S>
    43e6:	81 30       	cpi	r24, 0x01	; 1
    43e8:	09 f0       	breq	.+2      	; 0x43ec <main_screen+0x6e>
    43ea:	44 c0       	rjmp	.+136    	; 0x4474 <main_screen+0xf6>
    43ec:	80 e0       	ldi	r24, 0x00	; 0
    43ee:	0e 94 c4 02 	call	0x588	; 0x588 <_LED_Set_Addres>
    43f2:	8b e7       	ldi	r24, 0x7B	; 123
    43f4:	93 e0       	ldi	r25, 0x03	; 3
    43f6:	0e 94 30 03 	call	0x660	; 0x660 <LED_Write_String_P>
    43fa:	80 e4       	ldi	r24, 0x40	; 64
    43fc:	0e 94 c4 02 	call	0x588	; 0x588 <_LED_Set_Addres>
    4400:	87 e7       	ldi	r24, 0x77	; 119
    4402:	93 e0       	ldi	r25, 0x03	; 3
    4404:	0e 94 30 03 	call	0x660	; 0x660 <LED_Write_String_P>
    4408:	83 e0       	ldi	r24, 0x03	; 3
    440a:	0e 94 c4 02 	call	0x588	; 0x588 <_LED_Set_Addres>
    440e:	8a e7       	ldi	r24, 0x7A	; 122
    4410:	93 e0       	ldi	r25, 0x03	; 3
    4412:	0e 94 1c 03 	call	0x638	; 0x638 <LED_Write_String>
    4416:	83 e4       	ldi	r24, 0x43	; 67
    4418:	0e 94 c4 02 	call	0x588	; 0x588 <_LED_Set_Addres>
    441c:	85 e6       	ldi	r24, 0x65	; 101
    441e:	92 e0       	ldi	r25, 0x02	; 2
    4420:	0e 94 1c 03 	call	0x638	; 0x638 <LED_Write_String>
    4424:	82 e0       	ldi	r24, 0x02	; 2
    4426:	24 c0       	rjmp	.+72     	; 0x4470 <main_screen+0xf2>
    4428:	81 39       	cpi	r24, 0x91	; 145
    442a:	91 40       	sbci	r25, 0x01	; 1
    442c:	18 f1       	brcs	.+70     	; 0x4474 <main_screen+0xf6>
    442e:	80 91 5d 01 	lds	r24, 0x015D	; 0x80015d <flag_S>
    4432:	82 30       	cpi	r24, 0x02	; 2
    4434:	f9 f4       	brne	.+62     	; 0x4474 <main_screen+0xf6>
    4436:	80 e0       	ldi	r24, 0x00	; 0
    4438:	0e 94 c4 02 	call	0x588	; 0x588 <_LED_Set_Addres>
    443c:	83 e7       	ldi	r24, 0x73	; 115
    443e:	93 e0       	ldi	r25, 0x03	; 3
    4440:	0e 94 30 03 	call	0x660	; 0x660 <LED_Write_String_P>
    4444:	80 e4       	ldi	r24, 0x40	; 64
    4446:	0e 94 c4 02 	call	0x588	; 0x588 <_LED_Set_Addres>
    444a:	8f e6       	ldi	r24, 0x6F	; 111
    444c:	93 e0       	ldi	r25, 0x03	; 3
    444e:	0e 94 30 03 	call	0x660	; 0x660 <LED_Write_String_P>
    4452:	83 e0       	ldi	r24, 0x03	; 3
    4454:	0e 94 c4 02 	call	0x588	; 0x588 <_LED_Set_Addres>
    4458:	85 e6       	ldi	r24, 0x65	; 101
    445a:	92 e0       	ldi	r25, 0x02	; 2
    445c:	0e 94 1c 03 	call	0x638	; 0x638 <LED_Write_String>
    4460:	83 e4       	ldi	r24, 0x43	; 67
    4462:	0e 94 c4 02 	call	0x588	; 0x588 <_LED_Set_Addres>
    4466:	8c e6       	ldi	r24, 0x6C	; 108
    4468:	92 e0       	ldi	r25, 0x02	; 2
    446a:	0e 94 1c 03 	call	0x638	; 0x638 <LED_Write_String>
    446e:	83 e0       	ldi	r24, 0x03	; 3
    4470:	80 93 5d 01 	sts	0x015D, r24	; 0x80015d <flag_S>
    4474:	80 91 a6 01 	lds	r24, 0x01A6	; 0x8001a6 <flag_T>
    4478:	81 11       	cpse	r24, r1
    447a:	0a c0       	rjmp	.+20     	; 0x4490 <main_screen+0x112>
    447c:	89 e0       	ldi	r24, 0x09	; 9
    447e:	0e 94 c4 02 	call	0x588	; 0x588 <_LED_Set_Addres>
    4482:	8c e6       	ldi	r24, 0x6C	; 108
    4484:	93 e0       	ldi	r25, 0x03	; 3
    4486:	0e 94 30 03 	call	0x660	; 0x660 <LED_Write_String_P>
    448a:	81 e0       	ldi	r24, 0x01	; 1
    448c:	80 93 a6 01 	sts	0x01A6, r24	; 0x8001a6 <flag_T>
    4490:	80 91 a5 01 	lds	r24, 0x01A5	; 0x8001a5 <flag_O>
    4494:	81 30       	cpi	r24, 0x01	; 1
    4496:	81 f4       	brne	.+32     	; 0x44b8 <main_screen+0x13a>
    4498:	8b e0       	ldi	r24, 0x0B	; 11
    449a:	0e 94 c4 02 	call	0x588	; 0x588 <_LED_Set_Addres>
    449e:	8e e4       	ldi	r24, 0x4E	; 78
    44a0:	91 e0       	ldi	r25, 0x01	; 1
    44a2:	0e 94 1c 03 	call	0x638	; 0x638 <LED_Write_String>
    44a6:	89 e4       	ldi	r24, 0x49	; 73
    44a8:	0e 94 c4 02 	call	0x588	; 0x588 <_LED_Set_Addres>
    44ac:	84 e5       	ldi	r24, 0x54	; 84
    44ae:	91 e0       	ldi	r25, 0x01	; 1
    44b0:	0e 94 1c 03 	call	0x638	; 0x638 <LED_Write_String>
    44b4:	10 92 a5 01 	sts	0x01A5, r1	; 0x8001a5 <flag_O>
    44b8:	08 95       	ret

000044ba <Timer0_Init>:
    44ba:	83 b7       	in	r24, 0x33	; 51
    44bc:	87 60       	ori	r24, 0x07	; 7
    44be:	83 bf       	out	0x33, r24	; 51
    44c0:	8f e6       	ldi	r24, 0x6F	; 111
    44c2:	82 bf       	out	0x32, r24	; 50
    44c4:	87 b7       	in	r24, 0x37	; 55
    44c6:	81 60       	ori	r24, 0x01	; 1
    44c8:	87 bf       	out	0x37, r24	; 55
    44ca:	78 94       	sei
    44cc:	08 95       	ret

000044ce <__vector_16>:
    44ce:	1f 92       	push	r1
    44d0:	0f 92       	push	r0
    44d2:	0f b6       	in	r0, 0x3f	; 63
    44d4:	0f 92       	push	r0
    44d6:	11 24       	eor	r1, r1
    44d8:	0b b6       	in	r0, 0x3b	; 59
    44da:	0f 92       	push	r0
    44dc:	0f 93       	push	r16
    44de:	1f 93       	push	r17
    44e0:	2f 93       	push	r18
    44e2:	3f 93       	push	r19
    44e4:	4f 93       	push	r20
    44e6:	5f 93       	push	r21
    44e8:	6f 93       	push	r22
    44ea:	7f 93       	push	r23
    44ec:	8f 93       	push	r24
    44ee:	9f 93       	push	r25
    44f0:	af 93       	push	r26
    44f2:	bf 93       	push	r27
    44f4:	ef 93       	push	r30
    44f6:	ff 93       	push	r31
    44f8:	8f e6       	ldi	r24, 0x6F	; 111
    44fa:	82 bf       	out	0x32, r24	; 50
    44fc:	20 91 6c 03 	lds	r18, 0x036C	; 0x80036c <per_shim_RAM>
    4500:	30 91 6d 03 	lds	r19, 0x036D	; 0x80036d <per_shim_RAM+0x1>
    4504:	a4 e6       	ldi	r26, 0x64	; 100
    4506:	b0 e0       	ldi	r27, 0x00	; 0
    4508:	4b d6       	rcall	.+3222   	; 0x51a0 <__umulhisi3>
    450a:	00 91 9d 01 	lds	r16, 0x019D	; 0x80019d <time_10_shim>
    450e:	10 91 9e 01 	lds	r17, 0x019E	; 0x80019e <time_10_shim+0x1>
    4512:	20 91 9f 01 	lds	r18, 0x019F	; 0x80019f <time_10_shim+0x2>
    4516:	30 91 a0 01 	lds	r19, 0x01A0	; 0x8001a0 <time_10_shim+0x3>
    451a:	06 17       	cp	r16, r22
    451c:	17 07       	cpc	r17, r23
    451e:	28 07       	cpc	r18, r24
    4520:	39 07       	cpc	r19, r25
    4522:	40 f0       	brcs	.+16     	; 0x4534 <__vector_16+0x66>
    4524:	10 92 9d 01 	sts	0x019D, r1	; 0x80019d <time_10_shim>
    4528:	10 92 9e 01 	sts	0x019E, r1	; 0x80019e <time_10_shim+0x1>
    452c:	10 92 9f 01 	sts	0x019F, r1	; 0x80019f <time_10_shim+0x2>
    4530:	10 92 a0 01 	sts	0x01A0, r1	; 0x8001a0 <time_10_shim+0x3>
    4534:	40 91 98 01 	lds	r20, 0x0198	; 0x800198 <flag_P>
    4538:	41 30       	cpi	r20, 0x01	; 1
    453a:	e1 f5       	brne	.+120    	; 0x45b4 <__vector_16+0xe6>
    453c:	20 91 5b 01 	lds	r18, 0x015B	; 0x80015b <time_per_nas>
    4540:	30 91 5c 01 	lds	r19, 0x015C	; 0x80015c <time_per_nas+0x1>
    4544:	a4 e6       	ldi	r26, 0x64	; 100
    4546:	b0 e0       	ldi	r27, 0x00	; 0
    4548:	2b d6       	rcall	.+3158   	; 0x51a0 <__umulhisi3>
    454a:	00 91 99 01 	lds	r16, 0x0199	; 0x800199 <time_10_nas>
    454e:	10 91 9a 01 	lds	r17, 0x019A	; 0x80019a <time_10_nas+0x1>
    4552:	20 91 9b 01 	lds	r18, 0x019B	; 0x80019b <time_10_nas+0x2>
    4556:	30 91 9c 01 	lds	r19, 0x019C	; 0x80019c <time_10_nas+0x3>
    455a:	06 17       	cp	r16, r22
    455c:	17 07       	cpc	r17, r23
    455e:	28 07       	cpc	r18, r24
    4560:	39 07       	cpc	r19, r25
    4562:	f0 f4       	brcc	.+60     	; 0x45a0 <__vector_16+0xd2>
    4564:	94 98       	cbi	0x12, 4	; 18
    4566:	80 91 52 01 	lds	r24, 0x0152	; 0x800152 <vis+0x4>
    456a:	81 33       	cpi	r24, 0x31	; 49
    456c:	29 f4       	brne	.+10     	; 0x4578 <__vector_16+0xaa>
    456e:	80 e3       	ldi	r24, 0x30	; 48
    4570:	80 93 52 01 	sts	0x0152, r24	; 0x800152 <vis+0x4>
    4574:	40 93 a5 01 	sts	0x01A5, r20	; 0x8001a5 <flag_O>
    4578:	80 91 99 01 	lds	r24, 0x0199	; 0x800199 <time_10_nas>
    457c:	90 91 9a 01 	lds	r25, 0x019A	; 0x80019a <time_10_nas+0x1>
    4580:	a0 91 9b 01 	lds	r26, 0x019B	; 0x80019b <time_10_nas+0x2>
    4584:	b0 91 9c 01 	lds	r27, 0x019C	; 0x80019c <time_10_nas+0x3>
    4588:	01 96       	adiw	r24, 0x01	; 1
    458a:	a1 1d       	adc	r26, r1
    458c:	b1 1d       	adc	r27, r1
    458e:	80 93 99 01 	sts	0x0199, r24	; 0x800199 <time_10_nas>
    4592:	90 93 9a 01 	sts	0x019A, r25	; 0x80019a <time_10_nas+0x1>
    4596:	a0 93 9b 01 	sts	0x019B, r26	; 0x80019b <time_10_nas+0x2>
    459a:	b0 93 9c 01 	sts	0x019C, r27	; 0x80019c <time_10_nas+0x3>
    459e:	0a c0       	rjmp	.+20     	; 0x45b4 <__vector_16+0xe6>
    45a0:	10 92 99 01 	sts	0x0199, r1	; 0x800199 <time_10_nas>
    45a4:	10 92 9a 01 	sts	0x019A, r1	; 0x80019a <time_10_nas+0x1>
    45a8:	10 92 9b 01 	sts	0x019B, r1	; 0x80019b <time_10_nas+0x2>
    45ac:	10 92 9c 01 	sts	0x019C, r1	; 0x80019c <time_10_nas+0x3>
    45b0:	10 92 98 01 	sts	0x0198, r1	; 0x800198 <flag_P>
    45b4:	80 91 87 01 	lds	r24, 0x0187	; 0x800187 <time_10_clock>
    45b8:	90 91 88 01 	lds	r25, 0x0188	; 0x800188 <time_10_clock+0x1>
    45bc:	85 36       	cpi	r24, 0x65	; 101
    45be:	91 05       	cpc	r25, r1
    45c0:	30 f4       	brcc	.+12     	; 0x45ce <__vector_16+0x100>
    45c2:	01 96       	adiw	r24, 0x01	; 1
    45c4:	90 93 88 01 	sts	0x0188, r25	; 0x800188 <time_10_clock+0x1>
    45c8:	80 93 87 01 	sts	0x0187, r24	; 0x800187 <time_10_clock>
    45cc:	04 c0       	rjmp	.+8      	; 0x45d6 <__vector_16+0x108>
    45ce:	10 92 88 01 	sts	0x0188, r1	; 0x800188 <time_10_clock+0x1>
    45d2:	10 92 87 01 	sts	0x0187, r1	; 0x800187 <time_10_clock>
    45d6:	80 91 a1 01 	lds	r24, 0x01A1	; 0x8001a1 <time_10_dat>
    45da:	90 91 a2 01 	lds	r25, 0x01A2	; 0x8001a2 <time_10_dat+0x1>
    45de:	a0 91 a3 01 	lds	r26, 0x01A3	; 0x8001a3 <time_10_dat+0x2>
    45e2:	b0 91 a4 01 	lds	r27, 0x01A4	; 0x8001a4 <time_10_dat+0x3>
    45e6:	8d 3d       	cpi	r24, 0xDD	; 221
    45e8:	21 e4       	ldi	r18, 0x41	; 65
    45ea:	92 07       	cpc	r25, r18
    45ec:	2f e0       	ldi	r18, 0x0F	; 15
    45ee:	a2 07       	cpc	r26, r18
    45f0:	b1 05       	cpc	r27, r1
    45f2:	60 f4       	brcc	.+24     	; 0x460c <__vector_16+0x13e>
    45f4:	01 96       	adiw	r24, 0x01	; 1
    45f6:	a1 1d       	adc	r26, r1
    45f8:	b1 1d       	adc	r27, r1
    45fa:	80 93 a1 01 	sts	0x01A1, r24	; 0x8001a1 <time_10_dat>
    45fe:	90 93 a2 01 	sts	0x01A2, r25	; 0x8001a2 <time_10_dat+0x1>
    4602:	a0 93 a3 01 	sts	0x01A3, r26	; 0x8001a3 <time_10_dat+0x2>
    4606:	b0 93 a4 01 	sts	0x01A4, r27	; 0x8001a4 <time_10_dat+0x3>
    460a:	08 c0       	rjmp	.+16     	; 0x461c <__vector_16+0x14e>
    460c:	10 92 a1 01 	sts	0x01A1, r1	; 0x8001a1 <time_10_dat>
    4610:	10 92 a2 01 	sts	0x01A2, r1	; 0x8001a2 <time_10_dat+0x1>
    4614:	10 92 a3 01 	sts	0x01A3, r1	; 0x8001a3 <time_10_dat+0x2>
    4618:	10 92 a4 01 	sts	0x01A4, r1	; 0x8001a4 <time_10_dat+0x3>
    461c:	80 91 9d 01 	lds	r24, 0x019D	; 0x80019d <time_10_shim>
    4620:	90 91 9e 01 	lds	r25, 0x019E	; 0x80019e <time_10_shim+0x1>
    4624:	a0 91 9f 01 	lds	r26, 0x019F	; 0x80019f <time_10_shim+0x2>
    4628:	b0 91 a0 01 	lds	r27, 0x01A0	; 0x8001a0 <time_10_shim+0x3>
    462c:	8d 3d       	cpi	r24, 0xDD	; 221
    462e:	21 e4       	ldi	r18, 0x41	; 65
    4630:	92 07       	cpc	r25, r18
    4632:	2f e0       	ldi	r18, 0x0F	; 15
    4634:	a2 07       	cpc	r26, r18
    4636:	b1 05       	cpc	r27, r1
    4638:	60 f4       	brcc	.+24     	; 0x4652 <__vector_16+0x184>
    463a:	01 96       	adiw	r24, 0x01	; 1
    463c:	a1 1d       	adc	r26, r1
    463e:	b1 1d       	adc	r27, r1
    4640:	80 93 9d 01 	sts	0x019D, r24	; 0x80019d <time_10_shim>
    4644:	90 93 9e 01 	sts	0x019E, r25	; 0x80019e <time_10_shim+0x1>
    4648:	a0 93 9f 01 	sts	0x019F, r26	; 0x80019f <time_10_shim+0x2>
    464c:	b0 93 a0 01 	sts	0x01A0, r27	; 0x8001a0 <time_10_shim+0x3>
    4650:	08 c0       	rjmp	.+16     	; 0x4662 <__vector_16+0x194>
    4652:	10 92 9d 01 	sts	0x019D, r1	; 0x80019d <time_10_shim>
    4656:	10 92 9e 01 	sts	0x019E, r1	; 0x80019e <time_10_shim+0x1>
    465a:	10 92 9f 01 	sts	0x019F, r1	; 0x80019f <time_10_shim+0x2>
    465e:	10 92 a0 01 	sts	0x01A0, r1	; 0x8001a0 <time_10_shim+0x3>
    4662:	80 91 a7 01 	lds	r24, 0x01A7	; 0x8001a7 <time_10_slide>
    4666:	90 91 a8 01 	lds	r25, 0x01A8	; 0x8001a8 <time_10_slide+0x1>
    466a:	88 35       	cpi	r24, 0x58	; 88
    466c:	22 e0       	ldi	r18, 0x02	; 2
    466e:	92 07       	cpc	r25, r18
    4670:	30 f4       	brcc	.+12     	; 0x467e <__vector_16+0x1b0>
    4672:	01 96       	adiw	r24, 0x01	; 1
    4674:	90 93 a8 01 	sts	0x01A8, r25	; 0x8001a8 <time_10_slide+0x1>
    4678:	80 93 a7 01 	sts	0x01A7, r24	; 0x8001a7 <time_10_slide>
    467c:	04 c0       	rjmp	.+8      	; 0x4686 <__vector_16+0x1b8>
    467e:	10 92 a8 01 	sts	0x01A8, r1	; 0x8001a8 <time_10_slide+0x1>
    4682:	10 92 a7 01 	sts	0x01A7, r1	; 0x8001a7 <time_10_slide>
    4686:	fd db       	rcall	.-2054   	; 0x3e82 <read_sencors>
    4688:	ff 91       	pop	r31
    468a:	ef 91       	pop	r30
    468c:	bf 91       	pop	r27
    468e:	af 91       	pop	r26
    4690:	9f 91       	pop	r25
    4692:	8f 91       	pop	r24
    4694:	7f 91       	pop	r23
    4696:	6f 91       	pop	r22
    4698:	5f 91       	pop	r21
    469a:	4f 91       	pop	r20
    469c:	3f 91       	pop	r19
    469e:	2f 91       	pop	r18
    46a0:	1f 91       	pop	r17
    46a2:	0f 91       	pop	r16
    46a4:	0f 90       	pop	r0
    46a6:	0b be       	out	0x3b, r0	; 59
    46a8:	0f 90       	pop	r0
    46aa:	0f be       	out	0x3f, r0	; 63
    46ac:	0f 90       	pop	r0
    46ae:	1f 90       	pop	r1
    46b0:	18 95       	reti

000046b2 <main>:
    46b2:	2f ef       	ldi	r18, 0xFF	; 255
    46b4:	8f ef       	ldi	r24, 0xFF	; 255
    46b6:	9c e2       	ldi	r25, 0x2C	; 44
    46b8:	21 50       	subi	r18, 0x01	; 1
    46ba:	80 40       	sbci	r24, 0x00	; 0
    46bc:	90 40       	sbci	r25, 0x00	; 0
    46be:	e1 f7       	brne	.-8      	; 0x46b8 <main+0x6>
    46c0:	00 c0       	rjmp	.+0      	; 0x46c2 <main+0x10>
    46c2:	00 00       	nop
    46c4:	0e 94 e7 02 	call	0x5ce	; 0x5ce <LED_Init>
    46c8:	0e 94 0c 0f 	call	0x1e18	; 0x1e18 <RTC_Init>
    46cc:	40 e8       	ldi	r20, 0x80	; 128
    46ce:	55 e2       	ldi	r21, 0x25	; 37
    46d0:	60 e0       	ldi	r22, 0x00	; 0
    46d2:	70 e0       	ldi	r23, 0x00	; 0
    46d4:	80 e0       	ldi	r24, 0x00	; 0
    46d6:	90 e0       	ldi	r25, 0x00	; 0
    46d8:	0e 94 b3 0c 	call	0x1966	; 0x1966 <COM_Init>
    46dc:	87 b3       	in	r24, 0x17	; 23
    46de:	80 6f       	ori	r24, 0xF0	; 240
    46e0:	87 bb       	out	0x17, r24	; 23
    46e2:	8c 9a       	sbi	0x11, 4	; 17
    46e4:	66 e0       	ldi	r22, 0x06	; 6
    46e6:	80 e0       	ldi	r24, 0x00	; 0
    46e8:	0e 94 e9 03 	call	0x7d2	; 0x7d2 <Add_New_Menu>
    46ec:	e1 2c       	mov	r14, r1
    46ee:	00 e0       	ldi	r16, 0x00	; 0
    46f0:	10 e0       	ldi	r17, 0x00	; 0
    46f2:	23 e6       	ldi	r18, 0x63	; 99
    46f4:	33 e0       	ldi	r19, 0x03	; 3
    46f6:	47 e0       	ldi	r20, 0x07	; 7
    46f8:	60 e0       	ldi	r22, 0x00	; 0
    46fa:	80 e0       	ldi	r24, 0x00	; 0
    46fc:	0e 94 9d 03 	call	0x73a	; 0x73a <Add_New_Element>
    4700:	2a e5       	ldi	r18, 0x5A	; 90
    4702:	33 e0       	ldi	r19, 0x03	; 3
    4704:	4a e0       	ldi	r20, 0x0A	; 10
    4706:	60 e0       	ldi	r22, 0x00	; 0
    4708:	81 e0       	ldi	r24, 0x01	; 1
    470a:	0e 94 9d 03 	call	0x73a	; 0x73a <Add_New_Element>
    470e:	21 e5       	ldi	r18, 0x51	; 81
    4710:	33 e0       	ldi	r19, 0x03	; 3
    4712:	4d e0       	ldi	r20, 0x0D	; 13
    4714:	60 e0       	ldi	r22, 0x00	; 0
    4716:	82 e0       	ldi	r24, 0x02	; 2
    4718:	0e 94 9d 03 	call	0x73a	; 0x73a <Add_New_Element>
    471c:	27 e3       	ldi	r18, 0x37	; 55
    471e:	33 e0       	ldi	r19, 0x03	; 3
    4720:	41 e0       	ldi	r20, 0x01	; 1
    4722:	60 e0       	ldi	r22, 0x00	; 0
    4724:	83 e0       	ldi	r24, 0x03	; 3
    4726:	0e 94 9d 03 	call	0x73a	; 0x73a <Add_New_Element>
    472a:	2c e2       	ldi	r18, 0x2C	; 44
    472c:	33 e0       	ldi	r19, 0x03	; 3
    472e:	45 e0       	ldi	r20, 0x05	; 5
    4730:	60 e0       	ldi	r22, 0x00	; 0
    4732:	84 e0       	ldi	r24, 0x04	; 4
    4734:	0e 94 9d 03 	call	0x73a	; 0x73a <Add_New_Element>
    4738:	23 e1       	ldi	r18, 0x13	; 19
    473a:	33 e0       	ldi	r19, 0x03	; 3
    473c:	46 e0       	ldi	r20, 0x06	; 6
    473e:	60 e0       	ldi	r22, 0x00	; 0
    4740:	85 e0       	ldi	r24, 0x05	; 5
    4742:	0e 94 9d 03 	call	0x73a	; 0x73a <Add_New_Element>
    4746:	63 e0       	ldi	r22, 0x03	; 3
    4748:	81 e0       	ldi	r24, 0x01	; 1
    474a:	0e 94 e9 03 	call	0x7d2	; 0x7d2 <Add_New_Menu>
    474e:	28 ef       	ldi	r18, 0xF8	; 248
    4750:	32 e0       	ldi	r19, 0x02	; 2
    4752:	42 e0       	ldi	r20, 0x02	; 2
    4754:	60 e0       	ldi	r22, 0x00	; 0
    4756:	86 e0       	ldi	r24, 0x06	; 6
    4758:	0e 94 9d 03 	call	0x73a	; 0x73a <Add_New_Element>
    475c:	27 ee       	ldi	r18, 0xE7	; 231
    475e:	32 e0       	ldi	r19, 0x02	; 2
    4760:	43 e0       	ldi	r20, 0x03	; 3
    4762:	60 e0       	ldi	r22, 0x00	; 0
    4764:	87 e0       	ldi	r24, 0x07	; 7
    4766:	0e 94 9d 03 	call	0x73a	; 0x73a <Add_New_Element>
    476a:	22 ed       	ldi	r18, 0xD2	; 210
    476c:	32 e0       	ldi	r19, 0x02	; 2
    476e:	44 e0       	ldi	r20, 0x04	; 4
    4770:	60 e0       	ldi	r22, 0x00	; 0
    4772:	88 e0       	ldi	r24, 0x08	; 8
    4774:	0e 94 9d 03 	call	0x73a	; 0x73a <Add_New_Element>
    4778:	62 e0       	ldi	r22, 0x02	; 2
    477a:	82 e0       	ldi	r24, 0x02	; 2
    477c:	0e 94 e9 03 	call	0x7d2	; 0x7d2 <Add_New_Menu>
    4780:	85 e0       	ldi	r24, 0x05	; 5
    4782:	e8 2e       	mov	r14, r24
    4784:	00 e6       	ldi	r16, 0x60	; 96
    4786:	12 e0       	ldi	r17, 0x02	; 2
    4788:	2c ec       	ldi	r18, 0xCC	; 204
    478a:	32 e0       	ldi	r19, 0x02	; 2
    478c:	40 e0       	ldi	r20, 0x00	; 0
    478e:	61 e0       	ldi	r22, 0x01	; 1
    4790:	89 e0       	ldi	r24, 0x09	; 9
    4792:	0e 94 9d 03 	call	0x73a	; 0x73a <Add_New_Element>
    4796:	93 e0       	ldi	r25, 0x03	; 3
    4798:	e9 2e       	mov	r14, r25
    479a:	05 e3       	ldi	r16, 0x35	; 53
    479c:	11 e0       	ldi	r17, 0x01	; 1
    479e:	20 ec       	ldi	r18, 0xC0	; 192
    47a0:	32 e0       	ldi	r19, 0x02	; 2
    47a2:	40 e0       	ldi	r20, 0x00	; 0
    47a4:	67 e0       	ldi	r22, 0x07	; 7
    47a6:	8a e0       	ldi	r24, 0x0A	; 10
    47a8:	0e 94 9d 03 	call	0x73a	; 0x73a <Add_New_Element>
    47ac:	62 e0       	ldi	r22, 0x02	; 2
    47ae:	83 e0       	ldi	r24, 0x03	; 3
    47b0:	0e 94 e9 03 	call	0x7d2	; 0x7d2 <Add_New_Menu>
    47b4:	25 e0       	ldi	r18, 0x05	; 5
    47b6:	e2 2e       	mov	r14, r18
    47b8:	0e e5       	ldi	r16, 0x5E	; 94
    47ba:	13 e0       	ldi	r17, 0x03	; 3
    47bc:	20 eb       	ldi	r18, 0xB0	; 176
    47be:	32 e0       	ldi	r19, 0x02	; 2
    47c0:	40 e0       	ldi	r20, 0x00	; 0
    47c2:	61 e0       	ldi	r22, 0x01	; 1
    47c4:	8b e0       	ldi	r24, 0x0B	; 11
    47c6:	0e 94 9d 03 	call	0x73a	; 0x73a <Add_New_Element>
    47ca:	0f ec       	ldi	r16, 0xCF	; 207
    47cc:	14 e0       	ldi	r17, 0x04	; 4
    47ce:	21 ea       	ldi	r18, 0xA1	; 161
    47d0:	32 e0       	ldi	r19, 0x02	; 2
    47d2:	40 e0       	ldi	r20, 0x00	; 0
    47d4:	61 e0       	ldi	r22, 0x01	; 1
    47d6:	8c e0       	ldi	r24, 0x0C	; 12
    47d8:	0e 94 9d 03 	call	0x73a	; 0x73a <Add_New_Element>
    47dc:	61 e0       	ldi	r22, 0x01	; 1
    47de:	84 e0       	ldi	r24, 0x04	; 4
    47e0:	0e 94 e9 03 	call	0x7d2	; 0x7d2 <Add_New_Menu>
    47e4:	37 e0       	ldi	r19, 0x07	; 7
    47e6:	e3 2e       	mov	r14, r19
    47e8:	00 e9       	ldi	r16, 0x90	; 144
    47ea:	13 e0       	ldi	r17, 0x03	; 3
    47ec:	23 e9       	ldi	r18, 0x93	; 147
    47ee:	32 e0       	ldi	r19, 0x02	; 2
    47f0:	40 e0       	ldi	r20, 0x00	; 0
    47f2:	65 e0       	ldi	r22, 0x05	; 5
    47f4:	8d e0       	ldi	r24, 0x0D	; 13
    47f6:	0e 94 9d 03 	call	0x73a	; 0x73a <Add_New_Element>
    47fa:	61 e0       	ldi	r22, 0x01	; 1
    47fc:	85 e0       	ldi	r24, 0x05	; 5
    47fe:	0e 94 e9 03 	call	0x7d2	; 0x7d2 <Add_New_Menu>
    4802:	44 e0       	ldi	r20, 0x04	; 4
    4804:	e4 2e       	mov	r14, r20
    4806:	00 e3       	ldi	r16, 0x30	; 48
    4808:	11 e0       	ldi	r17, 0x01	; 1
    480a:	26 e8       	ldi	r18, 0x86	; 134
    480c:	32 e0       	ldi	r19, 0x02	; 2
    480e:	40 e0       	ldi	r20, 0x00	; 0
    4810:	61 e0       	ldi	r22, 0x01	; 1
    4812:	8e e0       	ldi	r24, 0x0E	; 14
    4814:	0e 94 9d 03 	call	0x73a	; 0x73a <Add_New_Element>
    4818:	61 e0       	ldi	r22, 0x01	; 1
    481a:	86 e0       	ldi	r24, 0x06	; 6
    481c:	0e 94 e9 03 	call	0x7d2	; 0x7d2 <Add_New_Menu>
    4820:	0b e2       	ldi	r16, 0x2B	; 43
    4822:	11 e0       	ldi	r17, 0x01	; 1
    4824:	28 e7       	ldi	r18, 0x78	; 120
    4826:	32 e0       	ldi	r19, 0x02	; 2
    4828:	40 e0       	ldi	r20, 0x00	; 0
    482a:	61 e0       	ldi	r22, 0x01	; 1
    482c:	8f e0       	ldi	r24, 0x0F	; 15
    482e:	0e 94 9d 03 	call	0x73a	; 0x73a <Add_New_Element>
    4832:	62 e0       	ldi	r22, 0x02	; 2
    4834:	87 e0       	ldi	r24, 0x07	; 7
    4836:	0e 94 e9 03 	call	0x7d2	; 0x7d2 <Add_New_Menu>
    483a:	e1 2c       	mov	r14, r1
    483c:	00 e0       	ldi	r16, 0x00	; 0
    483e:	10 e0       	ldi	r17, 0x00	; 0
    4840:	2a e5       	ldi	r18, 0x5A	; 90
    4842:	32 e0       	ldi	r19, 0x02	; 2
    4844:	48 e0       	ldi	r20, 0x08	; 8
    4846:	60 e0       	ldi	r22, 0x00	; 0
    4848:	80 e1       	ldi	r24, 0x10	; 16
    484a:	0e 94 9d 03 	call	0x73a	; 0x73a <Add_New_Element>
    484e:	2d e3       	ldi	r18, 0x3D	; 61
    4850:	32 e0       	ldi	r19, 0x02	; 2
    4852:	49 e0       	ldi	r20, 0x09	; 9
    4854:	60 e0       	ldi	r22, 0x00	; 0
    4856:	81 e1       	ldi	r24, 0x11	; 17
    4858:	0e 94 9d 03 	call	0x73a	; 0x73a <Add_New_Element>
    485c:	62 e0       	ldi	r22, 0x02	; 2
    485e:	88 e0       	ldi	r24, 0x08	; 8
    4860:	0e 94 e9 03 	call	0x7d2	; 0x7d2 <Add_New_Menu>
    4864:	52 e0       	ldi	r21, 0x02	; 2
    4866:	e5 2e       	mov	r14, r21
    4868:	0c e2       	ldi	r16, 0x2C	; 44
    486a:	13 e0       	ldi	r17, 0x03	; 3
    486c:	2c e2       	ldi	r18, 0x2C	; 44
    486e:	32 e0       	ldi	r19, 0x02	; 2
    4870:	40 e0       	ldi	r20, 0x00	; 0
    4872:	61 e0       	ldi	r22, 0x01	; 1
    4874:	82 e1       	ldi	r24, 0x12	; 18
    4876:	0e 94 9d 03 	call	0x73a	; 0x73a <Add_New_Element>
    487a:	04 ed       	ldi	r16, 0xD4	; 212
    487c:	14 e0       	ldi	r17, 0x04	; 4
    487e:	2b e1       	ldi	r18, 0x1B	; 27
    4880:	32 e0       	ldi	r19, 0x02	; 2
    4882:	40 e0       	ldi	r20, 0x00	; 0
    4884:	61 e0       	ldi	r22, 0x01	; 1
    4886:	83 e1       	ldi	r24, 0x13	; 19
    4888:	0e 94 9d 03 	call	0x73a	; 0x73a <Add_New_Element>
    488c:	63 e0       	ldi	r22, 0x03	; 3
    488e:	89 e0       	ldi	r24, 0x09	; 9
    4890:	0e 94 e9 03 	call	0x7d2	; 0x7d2 <Add_New_Menu>
    4894:	66 e0       	ldi	r22, 0x06	; 6
    4896:	e6 2e       	mov	r14, r22
    4898:	06 e1       	ldi	r16, 0x16	; 22
    489a:	11 e0       	ldi	r17, 0x01	; 1
    489c:	28 e1       	ldi	r18, 0x18	; 24
    489e:	32 e0       	ldi	r19, 0x02	; 2
    48a0:	40 e0       	ldi	r20, 0x00	; 0
    48a2:	61 e0       	ldi	r22, 0x01	; 1
    48a4:	84 e1       	ldi	r24, 0x14	; 20
    48a6:	0e 94 9d 03 	call	0x73a	; 0x73a <Add_New_Element>
    48aa:	75 e0       	ldi	r23, 0x05	; 5
    48ac:	e7 2e       	mov	r14, r23
    48ae:	0d ef       	ldi	r16, 0xFD	; 253
    48b0:	12 e0       	ldi	r17, 0x02	; 2
    48b2:	25 e1       	ldi	r18, 0x15	; 21
    48b4:	32 e0       	ldi	r19, 0x02	; 2
    48b6:	40 e0       	ldi	r20, 0x00	; 0
    48b8:	61 e0       	ldi	r22, 0x01	; 1
    48ba:	85 e1       	ldi	r24, 0x15	; 21
    48bc:	0e 94 9d 03 	call	0x73a	; 0x73a <Add_New_Element>
    48c0:	e6 e0       	ldi	r30, 0x06	; 6
    48c2:	ee 2e       	mov	r14, r30
    48c4:	01 e0       	ldi	r16, 0x01	; 1
    48c6:	11 e0       	ldi	r17, 0x01	; 1
    48c8:	22 e1       	ldi	r18, 0x12	; 18
    48ca:	32 e0       	ldi	r19, 0x02	; 2
    48cc:	40 e0       	ldi	r20, 0x00	; 0
    48ce:	61 e0       	ldi	r22, 0x01	; 1
    48d0:	86 e1       	ldi	r24, 0x16	; 22
    48d2:	0e 94 9d 03 	call	0x73a	; 0x73a <Add_New_Element>
    48d6:	62 e0       	ldi	r22, 0x02	; 2
    48d8:	8a e0       	ldi	r24, 0x0A	; 10
    48da:	0e 94 e9 03 	call	0x7d2	; 0x7d2 <Add_New_Menu>
    48de:	e1 2c       	mov	r14, r1
    48e0:	00 e0       	ldi	r16, 0x00	; 0
    48e2:	10 e0       	ldi	r17, 0x00	; 0
    48e4:	24 ef       	ldi	r18, 0xF4	; 244
    48e6:	31 e0       	ldi	r19, 0x01	; 1
    48e8:	4b e0       	ldi	r20, 0x0B	; 11
    48ea:	60 e0       	ldi	r22, 0x00	; 0
    48ec:	87 e1       	ldi	r24, 0x17	; 23
    48ee:	0e 94 9d 03 	call	0x73a	; 0x73a <Add_New_Element>
    48f2:	27 ed       	ldi	r18, 0xD7	; 215
    48f4:	31 e0       	ldi	r19, 0x01	; 1
    48f6:	4c e0       	ldi	r20, 0x0C	; 12
    48f8:	60 e0       	ldi	r22, 0x00	; 0
    48fa:	88 e1       	ldi	r24, 0x18	; 24
    48fc:	0e 94 9d 03 	call	0x73a	; 0x73a <Add_New_Element>
    4900:	62 e0       	ldi	r22, 0x02	; 2
    4902:	8b e0       	ldi	r24, 0x0B	; 11
    4904:	0e 94 e9 03 	call	0x7d2	; 0x7d2 <Add_New_Menu>
    4908:	f2 e0       	ldi	r31, 0x02	; 2
    490a:	ef 2e       	mov	r14, r31
    490c:	0e e2       	ldi	r16, 0x2E	; 46
    490e:	13 e0       	ldi	r17, 0x03	; 3
    4910:	26 ec       	ldi	r18, 0xC6	; 198
    4912:	31 e0       	ldi	r19, 0x01	; 1
    4914:	40 e0       	ldi	r20, 0x00	; 0
    4916:	61 e0       	ldi	r22, 0x01	; 1
    4918:	89 e1       	ldi	r24, 0x19	; 25
    491a:	0e 94 9d 03 	call	0x73a	; 0x73a <Add_New_Element>
    491e:	06 ed       	ldi	r16, 0xD6	; 214
    4920:	14 e0       	ldi	r17, 0x04	; 4
    4922:	25 eb       	ldi	r18, 0xB5	; 181
    4924:	31 e0       	ldi	r19, 0x01	; 1
    4926:	40 e0       	ldi	r20, 0x00	; 0
    4928:	61 e0       	ldi	r22, 0x01	; 1
    492a:	8a e1       	ldi	r24, 0x1A	; 26
    492c:	0e 94 9d 03 	call	0x73a	; 0x73a <Add_New_Element>
    4930:	63 e0       	ldi	r22, 0x03	; 3
    4932:	8c e0       	ldi	r24, 0x0C	; 12
    4934:	0e 94 e9 03 	call	0x7d2	; 0x7d2 <Add_New_Menu>
    4938:	a6 e0       	ldi	r26, 0x06	; 6
    493a:	ea 2e       	mov	r14, r26
    493c:	0d e1       	ldi	r16, 0x1D	; 29
    493e:	11 e0       	ldi	r17, 0x01	; 1
    4940:	22 eb       	ldi	r18, 0xB2	; 178
    4942:	31 e0       	ldi	r19, 0x01	; 1
    4944:	40 e0       	ldi	r20, 0x00	; 0
    4946:	61 e0       	ldi	r22, 0x01	; 1
    4948:	8b e1       	ldi	r24, 0x1B	; 27
    494a:	0e 94 9d 03 	call	0x73a	; 0x73a <Add_New_Element>
    494e:	b5 e0       	ldi	r27, 0x05	; 5
    4950:	eb 2e       	mov	r14, r27
    4952:	02 e0       	ldi	r16, 0x02	; 2
    4954:	13 e0       	ldi	r17, 0x03	; 3
    4956:	2f ea       	ldi	r18, 0xAF	; 175
    4958:	31 e0       	ldi	r19, 0x01	; 1
    495a:	40 e0       	ldi	r20, 0x00	; 0
    495c:	61 e0       	ldi	r22, 0x01	; 1
    495e:	8c e1       	ldi	r24, 0x1C	; 28
    4960:	0e 94 9d 03 	call	0x73a	; 0x73a <Add_New_Element>
    4964:	16 e0       	ldi	r17, 0x06	; 6
    4966:	e1 2e       	mov	r14, r17
    4968:	08 e0       	ldi	r16, 0x08	; 8
    496a:	11 e0       	ldi	r17, 0x01	; 1
    496c:	2c ea       	ldi	r18, 0xAC	; 172
    496e:	31 e0       	ldi	r19, 0x01	; 1
    4970:	40 e0       	ldi	r20, 0x00	; 0
    4972:	61 e0       	ldi	r22, 0x01	; 1
    4974:	8d e1       	ldi	r24, 0x1D	; 29
    4976:	0e 94 9d 03 	call	0x73a	; 0x73a <Add_New_Element>
    497a:	62 e0       	ldi	r22, 0x02	; 2
    497c:	8d e0       	ldi	r24, 0x0D	; 13
    497e:	0e 94 e9 03 	call	0x7d2	; 0x7d2 <Add_New_Menu>
    4982:	e1 2c       	mov	r14, r1
    4984:	00 e0       	ldi	r16, 0x00	; 0
    4986:	10 e0       	ldi	r17, 0x00	; 0
    4988:	2e e8       	ldi	r18, 0x8E	; 142
    498a:	31 e0       	ldi	r19, 0x01	; 1
    498c:	4e e0       	ldi	r20, 0x0E	; 14
    498e:	60 e0       	ldi	r22, 0x00	; 0
    4990:	8e e1       	ldi	r24, 0x1E	; 30
    4992:	0e 94 9d 03 	call	0x73a	; 0x73a <Add_New_Element>
    4996:	21 e7       	ldi	r18, 0x71	; 113
    4998:	31 e0       	ldi	r19, 0x01	; 1
    499a:	4f e0       	ldi	r20, 0x0F	; 15
    499c:	60 e0       	ldi	r22, 0x00	; 0
    499e:	8f e1       	ldi	r24, 0x1F	; 31
    49a0:	0e 94 9d 03 	call	0x73a	; 0x73a <Add_New_Element>
    49a4:	62 e0       	ldi	r22, 0x02	; 2
    49a6:	8e e0       	ldi	r24, 0x0E	; 14
    49a8:	0e 94 e9 03 	call	0x7d2	; 0x7d2 <Add_New_Menu>
    49ac:	02 e0       	ldi	r16, 0x02	; 2
    49ae:	e0 2e       	mov	r14, r16
    49b0:	00 e3       	ldi	r16, 0x30	; 48
    49b2:	13 e0       	ldi	r17, 0x03	; 3
    49b4:	20 e6       	ldi	r18, 0x60	; 96
    49b6:	31 e0       	ldi	r19, 0x01	; 1
    49b8:	40 e0       	ldi	r20, 0x00	; 0
    49ba:	61 e0       	ldi	r22, 0x01	; 1
    49bc:	80 e2       	ldi	r24, 0x20	; 32
    49be:	0e 94 9d 03 	call	0x73a	; 0x73a <Add_New_Element>
    49c2:	08 ed       	ldi	r16, 0xD8	; 216
    49c4:	14 e0       	ldi	r17, 0x04	; 4
    49c6:	2f e4       	ldi	r18, 0x4F	; 79
    49c8:	31 e0       	ldi	r19, 0x01	; 1
    49ca:	40 e0       	ldi	r20, 0x00	; 0
    49cc:	61 e0       	ldi	r22, 0x01	; 1
    49ce:	81 e2       	ldi	r24, 0x21	; 33
    49d0:	0e 94 9d 03 	call	0x73a	; 0x73a <Add_New_Element>
    49d4:	63 e0       	ldi	r22, 0x03	; 3
    49d6:	8f e0       	ldi	r24, 0x0F	; 15
    49d8:	0e 94 e9 03 	call	0x7d2	; 0x7d2 <Add_New_Menu>
    49dc:	86 e0       	ldi	r24, 0x06	; 6
    49de:	e8 2e       	mov	r14, r24
    49e0:	04 e2       	ldi	r16, 0x24	; 36
    49e2:	11 e0       	ldi	r17, 0x01	; 1
    49e4:	2c e4       	ldi	r18, 0x4C	; 76
    49e6:	31 e0       	ldi	r19, 0x01	; 1
    49e8:	40 e0       	ldi	r20, 0x00	; 0
    49ea:	61 e0       	ldi	r22, 0x01	; 1
    49ec:	82 e2       	ldi	r24, 0x22	; 34
    49ee:	0e 94 9d 03 	call	0x73a	; 0x73a <Add_New_Element>
    49f2:	95 e0       	ldi	r25, 0x05	; 5
    49f4:	e9 2e       	mov	r14, r25
    49f6:	07 e0       	ldi	r16, 0x07	; 7
    49f8:	13 e0       	ldi	r17, 0x03	; 3
    49fa:	29 e4       	ldi	r18, 0x49	; 73
    49fc:	31 e0       	ldi	r19, 0x01	; 1
    49fe:	40 e0       	ldi	r20, 0x00	; 0
    4a00:	61 e0       	ldi	r22, 0x01	; 1
    4a02:	83 e2       	ldi	r24, 0x23	; 35
    4a04:	0e 94 9d 03 	call	0x73a	; 0x73a <Add_New_Element>
    4a08:	26 e0       	ldi	r18, 0x06	; 6
    4a0a:	e2 2e       	mov	r14, r18
    4a0c:	0f e0       	ldi	r16, 0x0F	; 15
    4a0e:	11 e0       	ldi	r17, 0x01	; 1
    4a10:	26 e4       	ldi	r18, 0x46	; 70
    4a12:	31 e0       	ldi	r19, 0x01	; 1
    4a14:	40 e0       	ldi	r20, 0x00	; 0
    4a16:	61 e0       	ldi	r22, 0x01	; 1
    4a18:	84 e2       	ldi	r24, 0x24	; 36
    4a1a:	0e 94 9d 03 	call	0x73a	; 0x73a <Add_New_Element>
    4a1e:	09 da       	rcall	.-3054   	; 0x3e32 <start_sencors>
    4a20:	0e 94 33 16 	call	0x2c66	; 0x2c66 <mems_to_RAM>
    4a24:	4a dd       	rcall	.-1388   	; 0x44ba <Timer0_Init>
    4a26:	20 91 8e 03 	lds	r18, 0x038E	; 0x80038e <per_dat_RAM>
    4a2a:	30 91 8f 03 	lds	r19, 0x038F	; 0x80038f <per_dat_RAM+0x1>
    4a2e:	44 e6       	ldi	r20, 0x64	; 100
    4a30:	42 9f       	mul	r20, r18
    4a32:	c0 01       	movw	r24, r0
    4a34:	43 9f       	mul	r20, r19
    4a36:	90 0d       	add	r25, r0
    4a38:	11 24       	eor	r1, r1
    4a3a:	05 97       	sbiw	r24, 0x05	; 5
    4a3c:	a0 e0       	ldi	r26, 0x00	; 0
    4a3e:	b0 e0       	ldi	r27, 0x00	; 0
    4a40:	80 93 a1 01 	sts	0x01A1, r24	; 0x8001a1 <time_10_dat>
    4a44:	90 93 a2 01 	sts	0x01A2, r25	; 0x8001a2 <time_10_dat+0x1>
    4a48:	a0 93 a3 01 	sts	0x01A3, r26	; 0x8001a3 <time_10_dat+0x2>
    4a4c:	b0 93 a4 01 	sts	0x01A4, r27	; 0x8001a4 <time_10_dat+0x3>
    4a50:	18 da       	rcall	.-3024   	; 0x3e82 <read_sencors>
    4a52:	0e 94 01 10 	call	0x2002	; 0x2002 <convert_to_show>
    4a56:	93 dc       	rcall	.-1754   	; 0x437e <main_screen>
    4a58:	bd d9       	rcall	.-3206   	; 0x3dd4 <get_time>
    4a5a:	30 d9       	rcall	.-3488   	; 0x3cbc <check_time>
    4a5c:	fc db       	rcall	.-2056   	; 0x4256 <check_buttons>
    4a5e:	fb cf       	rjmp	.-10     	; 0x4a56 <main+0x3a4>

00004a60 <__subsf3>:
    4a60:	50 58       	subi	r21, 0x80	; 128

00004a62 <__addsf3>:
    4a62:	bb 27       	eor	r27, r27
    4a64:	aa 27       	eor	r26, r26
    4a66:	0e d0       	rcall	.+28     	; 0x4a84 <__addsf3x>
    4a68:	48 c1       	rjmp	.+656    	; 0x4cfa <__fp_round>
    4a6a:	39 d1       	rcall	.+626    	; 0x4cde <__fp_pscA>
    4a6c:	30 f0       	brcs	.+12     	; 0x4a7a <__addsf3+0x18>
    4a6e:	3e d1       	rcall	.+636    	; 0x4cec <__fp_pscB>
    4a70:	20 f0       	brcs	.+8      	; 0x4a7a <__addsf3+0x18>
    4a72:	31 f4       	brne	.+12     	; 0x4a80 <__addsf3+0x1e>
    4a74:	9f 3f       	cpi	r25, 0xFF	; 255
    4a76:	11 f4       	brne	.+4      	; 0x4a7c <__addsf3+0x1a>
    4a78:	1e f4       	brtc	.+6      	; 0x4a80 <__addsf3+0x1e>
    4a7a:	2e c1       	rjmp	.+604    	; 0x4cd8 <__fp_nan>
    4a7c:	0e f4       	brtc	.+2      	; 0x4a80 <__addsf3+0x1e>
    4a7e:	e0 95       	com	r30
    4a80:	e7 fb       	bst	r30, 7
    4a82:	24 c1       	rjmp	.+584    	; 0x4ccc <__fp_inf>

00004a84 <__addsf3x>:
    4a84:	e9 2f       	mov	r30, r25
    4a86:	4a d1       	rcall	.+660    	; 0x4d1c <__fp_split3>
    4a88:	80 f3       	brcs	.-32     	; 0x4a6a <__addsf3+0x8>
    4a8a:	ba 17       	cp	r27, r26
    4a8c:	62 07       	cpc	r22, r18
    4a8e:	73 07       	cpc	r23, r19
    4a90:	84 07       	cpc	r24, r20
    4a92:	95 07       	cpc	r25, r21
    4a94:	18 f0       	brcs	.+6      	; 0x4a9c <__addsf3x+0x18>
    4a96:	71 f4       	brne	.+28     	; 0x4ab4 <__addsf3x+0x30>
    4a98:	9e f5       	brtc	.+102    	; 0x4b00 <__addsf3x+0x7c>
    4a9a:	62 c1       	rjmp	.+708    	; 0x4d60 <__fp_zero>
    4a9c:	0e f4       	brtc	.+2      	; 0x4aa0 <__addsf3x+0x1c>
    4a9e:	e0 95       	com	r30
    4aa0:	0b 2e       	mov	r0, r27
    4aa2:	ba 2f       	mov	r27, r26
    4aa4:	a0 2d       	mov	r26, r0
    4aa6:	0b 01       	movw	r0, r22
    4aa8:	b9 01       	movw	r22, r18
    4aaa:	90 01       	movw	r18, r0
    4aac:	0c 01       	movw	r0, r24
    4aae:	ca 01       	movw	r24, r20
    4ab0:	a0 01       	movw	r20, r0
    4ab2:	11 24       	eor	r1, r1
    4ab4:	ff 27       	eor	r31, r31
    4ab6:	59 1b       	sub	r21, r25
    4ab8:	99 f0       	breq	.+38     	; 0x4ae0 <__addsf3x+0x5c>
    4aba:	59 3f       	cpi	r21, 0xF9	; 249
    4abc:	50 f4       	brcc	.+20     	; 0x4ad2 <__addsf3x+0x4e>
    4abe:	50 3e       	cpi	r21, 0xE0	; 224
    4ac0:	68 f1       	brcs	.+90     	; 0x4b1c <__addsf3x+0x98>
    4ac2:	1a 16       	cp	r1, r26
    4ac4:	f0 40       	sbci	r31, 0x00	; 0
    4ac6:	a2 2f       	mov	r26, r18
    4ac8:	23 2f       	mov	r18, r19
    4aca:	34 2f       	mov	r19, r20
    4acc:	44 27       	eor	r20, r20
    4ace:	58 5f       	subi	r21, 0xF8	; 248
    4ad0:	f3 cf       	rjmp	.-26     	; 0x4ab8 <__addsf3x+0x34>
    4ad2:	46 95       	lsr	r20
    4ad4:	37 95       	ror	r19
    4ad6:	27 95       	ror	r18
    4ad8:	a7 95       	ror	r26
    4ada:	f0 40       	sbci	r31, 0x00	; 0
    4adc:	53 95       	inc	r21
    4ade:	c9 f7       	brne	.-14     	; 0x4ad2 <__addsf3x+0x4e>
    4ae0:	7e f4       	brtc	.+30     	; 0x4b00 <__addsf3x+0x7c>
    4ae2:	1f 16       	cp	r1, r31
    4ae4:	ba 0b       	sbc	r27, r26
    4ae6:	62 0b       	sbc	r22, r18
    4ae8:	73 0b       	sbc	r23, r19
    4aea:	84 0b       	sbc	r24, r20
    4aec:	ba f0       	brmi	.+46     	; 0x4b1c <__addsf3x+0x98>
    4aee:	91 50       	subi	r25, 0x01	; 1
    4af0:	a1 f0       	breq	.+40     	; 0x4b1a <__addsf3x+0x96>
    4af2:	ff 0f       	add	r31, r31
    4af4:	bb 1f       	adc	r27, r27
    4af6:	66 1f       	adc	r22, r22
    4af8:	77 1f       	adc	r23, r23
    4afa:	88 1f       	adc	r24, r24
    4afc:	c2 f7       	brpl	.-16     	; 0x4aee <__addsf3x+0x6a>
    4afe:	0e c0       	rjmp	.+28     	; 0x4b1c <__addsf3x+0x98>
    4b00:	ba 0f       	add	r27, r26
    4b02:	62 1f       	adc	r22, r18
    4b04:	73 1f       	adc	r23, r19
    4b06:	84 1f       	adc	r24, r20
    4b08:	48 f4       	brcc	.+18     	; 0x4b1c <__addsf3x+0x98>
    4b0a:	87 95       	ror	r24
    4b0c:	77 95       	ror	r23
    4b0e:	67 95       	ror	r22
    4b10:	b7 95       	ror	r27
    4b12:	f7 95       	ror	r31
    4b14:	9e 3f       	cpi	r25, 0xFE	; 254
    4b16:	08 f0       	brcs	.+2      	; 0x4b1a <__addsf3x+0x96>
    4b18:	b3 cf       	rjmp	.-154    	; 0x4a80 <__addsf3+0x1e>
    4b1a:	93 95       	inc	r25
    4b1c:	88 0f       	add	r24, r24
    4b1e:	08 f0       	brcs	.+2      	; 0x4b22 <__addsf3x+0x9e>
    4b20:	99 27       	eor	r25, r25
    4b22:	ee 0f       	add	r30, r30
    4b24:	97 95       	ror	r25
    4b26:	87 95       	ror	r24
    4b28:	08 95       	ret

00004b2a <__divsf3>:
    4b2a:	0c d0       	rcall	.+24     	; 0x4b44 <__divsf3x>
    4b2c:	e6 c0       	rjmp	.+460    	; 0x4cfa <__fp_round>
    4b2e:	de d0       	rcall	.+444    	; 0x4cec <__fp_pscB>
    4b30:	40 f0       	brcs	.+16     	; 0x4b42 <__divsf3+0x18>
    4b32:	d5 d0       	rcall	.+426    	; 0x4cde <__fp_pscA>
    4b34:	30 f0       	brcs	.+12     	; 0x4b42 <__divsf3+0x18>
    4b36:	21 f4       	brne	.+8      	; 0x4b40 <__divsf3+0x16>
    4b38:	5f 3f       	cpi	r21, 0xFF	; 255
    4b3a:	19 f0       	breq	.+6      	; 0x4b42 <__divsf3+0x18>
    4b3c:	c7 c0       	rjmp	.+398    	; 0x4ccc <__fp_inf>
    4b3e:	51 11       	cpse	r21, r1
    4b40:	10 c1       	rjmp	.+544    	; 0x4d62 <__fp_szero>
    4b42:	ca c0       	rjmp	.+404    	; 0x4cd8 <__fp_nan>

00004b44 <__divsf3x>:
    4b44:	eb d0       	rcall	.+470    	; 0x4d1c <__fp_split3>
    4b46:	98 f3       	brcs	.-26     	; 0x4b2e <__divsf3+0x4>

00004b48 <__divsf3_pse>:
    4b48:	99 23       	and	r25, r25
    4b4a:	c9 f3       	breq	.-14     	; 0x4b3e <__divsf3+0x14>
    4b4c:	55 23       	and	r21, r21
    4b4e:	b1 f3       	breq	.-20     	; 0x4b3c <__divsf3+0x12>
    4b50:	95 1b       	sub	r25, r21
    4b52:	55 0b       	sbc	r21, r21
    4b54:	bb 27       	eor	r27, r27
    4b56:	aa 27       	eor	r26, r26
    4b58:	62 17       	cp	r22, r18
    4b5a:	73 07       	cpc	r23, r19
    4b5c:	84 07       	cpc	r24, r20
    4b5e:	38 f0       	brcs	.+14     	; 0x4b6e <__divsf3_pse+0x26>
    4b60:	9f 5f       	subi	r25, 0xFF	; 255
    4b62:	5f 4f       	sbci	r21, 0xFF	; 255
    4b64:	22 0f       	add	r18, r18
    4b66:	33 1f       	adc	r19, r19
    4b68:	44 1f       	adc	r20, r20
    4b6a:	aa 1f       	adc	r26, r26
    4b6c:	a9 f3       	breq	.-22     	; 0x4b58 <__divsf3_pse+0x10>
    4b6e:	33 d0       	rcall	.+102    	; 0x4bd6 <__divsf3_pse+0x8e>
    4b70:	0e 2e       	mov	r0, r30
    4b72:	3a f0       	brmi	.+14     	; 0x4b82 <__divsf3_pse+0x3a>
    4b74:	e0 e8       	ldi	r30, 0x80	; 128
    4b76:	30 d0       	rcall	.+96     	; 0x4bd8 <__divsf3_pse+0x90>
    4b78:	91 50       	subi	r25, 0x01	; 1
    4b7a:	50 40       	sbci	r21, 0x00	; 0
    4b7c:	e6 95       	lsr	r30
    4b7e:	00 1c       	adc	r0, r0
    4b80:	ca f7       	brpl	.-14     	; 0x4b74 <__divsf3_pse+0x2c>
    4b82:	29 d0       	rcall	.+82     	; 0x4bd6 <__divsf3_pse+0x8e>
    4b84:	fe 2f       	mov	r31, r30
    4b86:	27 d0       	rcall	.+78     	; 0x4bd6 <__divsf3_pse+0x8e>
    4b88:	66 0f       	add	r22, r22
    4b8a:	77 1f       	adc	r23, r23
    4b8c:	88 1f       	adc	r24, r24
    4b8e:	bb 1f       	adc	r27, r27
    4b90:	26 17       	cp	r18, r22
    4b92:	37 07       	cpc	r19, r23
    4b94:	48 07       	cpc	r20, r24
    4b96:	ab 07       	cpc	r26, r27
    4b98:	b0 e8       	ldi	r27, 0x80	; 128
    4b9a:	09 f0       	breq	.+2      	; 0x4b9e <__divsf3_pse+0x56>
    4b9c:	bb 0b       	sbc	r27, r27
    4b9e:	80 2d       	mov	r24, r0
    4ba0:	bf 01       	movw	r22, r30
    4ba2:	ff 27       	eor	r31, r31
    4ba4:	93 58       	subi	r25, 0x83	; 131
    4ba6:	5f 4f       	sbci	r21, 0xFF	; 255
    4ba8:	2a f0       	brmi	.+10     	; 0x4bb4 <__divsf3_pse+0x6c>
    4baa:	9e 3f       	cpi	r25, 0xFE	; 254
    4bac:	51 05       	cpc	r21, r1
    4bae:	68 f0       	brcs	.+26     	; 0x4bca <__divsf3_pse+0x82>
    4bb0:	8d c0       	rjmp	.+282    	; 0x4ccc <__fp_inf>
    4bb2:	d7 c0       	rjmp	.+430    	; 0x4d62 <__fp_szero>
    4bb4:	5f 3f       	cpi	r21, 0xFF	; 255
    4bb6:	ec f3       	brlt	.-6      	; 0x4bb2 <__divsf3_pse+0x6a>
    4bb8:	98 3e       	cpi	r25, 0xE8	; 232
    4bba:	dc f3       	brlt	.-10     	; 0x4bb2 <__divsf3_pse+0x6a>
    4bbc:	86 95       	lsr	r24
    4bbe:	77 95       	ror	r23
    4bc0:	67 95       	ror	r22
    4bc2:	b7 95       	ror	r27
    4bc4:	f7 95       	ror	r31
    4bc6:	9f 5f       	subi	r25, 0xFF	; 255
    4bc8:	c9 f7       	brne	.-14     	; 0x4bbc <__divsf3_pse+0x74>
    4bca:	88 0f       	add	r24, r24
    4bcc:	91 1d       	adc	r25, r1
    4bce:	96 95       	lsr	r25
    4bd0:	87 95       	ror	r24
    4bd2:	97 f9       	bld	r25, 7
    4bd4:	08 95       	ret
    4bd6:	e1 e0       	ldi	r30, 0x01	; 1
    4bd8:	66 0f       	add	r22, r22
    4bda:	77 1f       	adc	r23, r23
    4bdc:	88 1f       	adc	r24, r24
    4bde:	bb 1f       	adc	r27, r27
    4be0:	62 17       	cp	r22, r18
    4be2:	73 07       	cpc	r23, r19
    4be4:	84 07       	cpc	r24, r20
    4be6:	ba 07       	cpc	r27, r26
    4be8:	20 f0       	brcs	.+8      	; 0x4bf2 <__divsf3_pse+0xaa>
    4bea:	62 1b       	sub	r22, r18
    4bec:	73 0b       	sbc	r23, r19
    4bee:	84 0b       	sbc	r24, r20
    4bf0:	ba 0b       	sbc	r27, r26
    4bf2:	ee 1f       	adc	r30, r30
    4bf4:	88 f7       	brcc	.-30     	; 0x4bd8 <__divsf3_pse+0x90>
    4bf6:	e0 95       	com	r30
    4bf8:	08 95       	ret

00004bfa <__fixunssfsi>:
    4bfa:	98 d0       	rcall	.+304    	; 0x4d2c <__fp_splitA>
    4bfc:	88 f0       	brcs	.+34     	; 0x4c20 <__fixunssfsi+0x26>
    4bfe:	9f 57       	subi	r25, 0x7F	; 127
    4c00:	90 f0       	brcs	.+36     	; 0x4c26 <__fixunssfsi+0x2c>
    4c02:	b9 2f       	mov	r27, r25
    4c04:	99 27       	eor	r25, r25
    4c06:	b7 51       	subi	r27, 0x17	; 23
    4c08:	a0 f0       	brcs	.+40     	; 0x4c32 <__fixunssfsi+0x38>
    4c0a:	d1 f0       	breq	.+52     	; 0x4c40 <__fixunssfsi+0x46>
    4c0c:	66 0f       	add	r22, r22
    4c0e:	77 1f       	adc	r23, r23
    4c10:	88 1f       	adc	r24, r24
    4c12:	99 1f       	adc	r25, r25
    4c14:	1a f0       	brmi	.+6      	; 0x4c1c <__fixunssfsi+0x22>
    4c16:	ba 95       	dec	r27
    4c18:	c9 f7       	brne	.-14     	; 0x4c0c <__fixunssfsi+0x12>
    4c1a:	12 c0       	rjmp	.+36     	; 0x4c40 <__fixunssfsi+0x46>
    4c1c:	b1 30       	cpi	r27, 0x01	; 1
    4c1e:	81 f0       	breq	.+32     	; 0x4c40 <__fixunssfsi+0x46>
    4c20:	9f d0       	rcall	.+318    	; 0x4d60 <__fp_zero>
    4c22:	b1 e0       	ldi	r27, 0x01	; 1
    4c24:	08 95       	ret
    4c26:	9c c0       	rjmp	.+312    	; 0x4d60 <__fp_zero>
    4c28:	67 2f       	mov	r22, r23
    4c2a:	78 2f       	mov	r23, r24
    4c2c:	88 27       	eor	r24, r24
    4c2e:	b8 5f       	subi	r27, 0xF8	; 248
    4c30:	39 f0       	breq	.+14     	; 0x4c40 <__fixunssfsi+0x46>
    4c32:	b9 3f       	cpi	r27, 0xF9	; 249
    4c34:	cc f3       	brlt	.-14     	; 0x4c28 <__fixunssfsi+0x2e>
    4c36:	86 95       	lsr	r24
    4c38:	77 95       	ror	r23
    4c3a:	67 95       	ror	r22
    4c3c:	b3 95       	inc	r27
    4c3e:	d9 f7       	brne	.-10     	; 0x4c36 <__fixunssfsi+0x3c>
    4c40:	3e f4       	brtc	.+14     	; 0x4c50 <__fixunssfsi+0x56>
    4c42:	90 95       	com	r25
    4c44:	80 95       	com	r24
    4c46:	70 95       	com	r23
    4c48:	61 95       	neg	r22
    4c4a:	7f 4f       	sbci	r23, 0xFF	; 255
    4c4c:	8f 4f       	sbci	r24, 0xFF	; 255
    4c4e:	9f 4f       	sbci	r25, 0xFF	; 255
    4c50:	08 95       	ret

00004c52 <__floatunsisf>:
    4c52:	e8 94       	clt
    4c54:	09 c0       	rjmp	.+18     	; 0x4c68 <__floatsisf+0x12>

00004c56 <__floatsisf>:
    4c56:	97 fb       	bst	r25, 7
    4c58:	3e f4       	brtc	.+14     	; 0x4c68 <__floatsisf+0x12>
    4c5a:	90 95       	com	r25
    4c5c:	80 95       	com	r24
    4c5e:	70 95       	com	r23
    4c60:	61 95       	neg	r22
    4c62:	7f 4f       	sbci	r23, 0xFF	; 255
    4c64:	8f 4f       	sbci	r24, 0xFF	; 255
    4c66:	9f 4f       	sbci	r25, 0xFF	; 255
    4c68:	99 23       	and	r25, r25
    4c6a:	a9 f0       	breq	.+42     	; 0x4c96 <__floatsisf+0x40>
    4c6c:	f9 2f       	mov	r31, r25
    4c6e:	96 e9       	ldi	r25, 0x96	; 150
    4c70:	bb 27       	eor	r27, r27
    4c72:	93 95       	inc	r25
    4c74:	f6 95       	lsr	r31
    4c76:	87 95       	ror	r24
    4c78:	77 95       	ror	r23
    4c7a:	67 95       	ror	r22
    4c7c:	b7 95       	ror	r27
    4c7e:	f1 11       	cpse	r31, r1
    4c80:	f8 cf       	rjmp	.-16     	; 0x4c72 <__floatsisf+0x1c>
    4c82:	fa f4       	brpl	.+62     	; 0x4cc2 <__floatsisf+0x6c>
    4c84:	bb 0f       	add	r27, r27
    4c86:	11 f4       	brne	.+4      	; 0x4c8c <__floatsisf+0x36>
    4c88:	60 ff       	sbrs	r22, 0
    4c8a:	1b c0       	rjmp	.+54     	; 0x4cc2 <__floatsisf+0x6c>
    4c8c:	6f 5f       	subi	r22, 0xFF	; 255
    4c8e:	7f 4f       	sbci	r23, 0xFF	; 255
    4c90:	8f 4f       	sbci	r24, 0xFF	; 255
    4c92:	9f 4f       	sbci	r25, 0xFF	; 255
    4c94:	16 c0       	rjmp	.+44     	; 0x4cc2 <__floatsisf+0x6c>
    4c96:	88 23       	and	r24, r24
    4c98:	11 f0       	breq	.+4      	; 0x4c9e <__floatsisf+0x48>
    4c9a:	96 e9       	ldi	r25, 0x96	; 150
    4c9c:	11 c0       	rjmp	.+34     	; 0x4cc0 <__floatsisf+0x6a>
    4c9e:	77 23       	and	r23, r23
    4ca0:	21 f0       	breq	.+8      	; 0x4caa <__floatsisf+0x54>
    4ca2:	9e e8       	ldi	r25, 0x8E	; 142
    4ca4:	87 2f       	mov	r24, r23
    4ca6:	76 2f       	mov	r23, r22
    4ca8:	05 c0       	rjmp	.+10     	; 0x4cb4 <__floatsisf+0x5e>
    4caa:	66 23       	and	r22, r22
    4cac:	71 f0       	breq	.+28     	; 0x4cca <__floatsisf+0x74>
    4cae:	96 e8       	ldi	r25, 0x86	; 134
    4cb0:	86 2f       	mov	r24, r22
    4cb2:	70 e0       	ldi	r23, 0x00	; 0
    4cb4:	60 e0       	ldi	r22, 0x00	; 0
    4cb6:	2a f0       	brmi	.+10     	; 0x4cc2 <__floatsisf+0x6c>
    4cb8:	9a 95       	dec	r25
    4cba:	66 0f       	add	r22, r22
    4cbc:	77 1f       	adc	r23, r23
    4cbe:	88 1f       	adc	r24, r24
    4cc0:	da f7       	brpl	.-10     	; 0x4cb8 <__floatsisf+0x62>
    4cc2:	88 0f       	add	r24, r24
    4cc4:	96 95       	lsr	r25
    4cc6:	87 95       	ror	r24
    4cc8:	97 f9       	bld	r25, 7
    4cca:	08 95       	ret

00004ccc <__fp_inf>:
    4ccc:	97 f9       	bld	r25, 7
    4cce:	9f 67       	ori	r25, 0x7F	; 127
    4cd0:	80 e8       	ldi	r24, 0x80	; 128
    4cd2:	70 e0       	ldi	r23, 0x00	; 0
    4cd4:	60 e0       	ldi	r22, 0x00	; 0
    4cd6:	08 95       	ret

00004cd8 <__fp_nan>:
    4cd8:	9f ef       	ldi	r25, 0xFF	; 255
    4cda:	80 ec       	ldi	r24, 0xC0	; 192
    4cdc:	08 95       	ret

00004cde <__fp_pscA>:
    4cde:	00 24       	eor	r0, r0
    4ce0:	0a 94       	dec	r0
    4ce2:	16 16       	cp	r1, r22
    4ce4:	17 06       	cpc	r1, r23
    4ce6:	18 06       	cpc	r1, r24
    4ce8:	09 06       	cpc	r0, r25
    4cea:	08 95       	ret

00004cec <__fp_pscB>:
    4cec:	00 24       	eor	r0, r0
    4cee:	0a 94       	dec	r0
    4cf0:	12 16       	cp	r1, r18
    4cf2:	13 06       	cpc	r1, r19
    4cf4:	14 06       	cpc	r1, r20
    4cf6:	05 06       	cpc	r0, r21
    4cf8:	08 95       	ret

00004cfa <__fp_round>:
    4cfa:	09 2e       	mov	r0, r25
    4cfc:	03 94       	inc	r0
    4cfe:	00 0c       	add	r0, r0
    4d00:	11 f4       	brne	.+4      	; 0x4d06 <__fp_round+0xc>
    4d02:	88 23       	and	r24, r24
    4d04:	52 f0       	brmi	.+20     	; 0x4d1a <__fp_round+0x20>
    4d06:	bb 0f       	add	r27, r27
    4d08:	40 f4       	brcc	.+16     	; 0x4d1a <__fp_round+0x20>
    4d0a:	bf 2b       	or	r27, r31
    4d0c:	11 f4       	brne	.+4      	; 0x4d12 <__fp_round+0x18>
    4d0e:	60 ff       	sbrs	r22, 0
    4d10:	04 c0       	rjmp	.+8      	; 0x4d1a <__fp_round+0x20>
    4d12:	6f 5f       	subi	r22, 0xFF	; 255
    4d14:	7f 4f       	sbci	r23, 0xFF	; 255
    4d16:	8f 4f       	sbci	r24, 0xFF	; 255
    4d18:	9f 4f       	sbci	r25, 0xFF	; 255
    4d1a:	08 95       	ret

00004d1c <__fp_split3>:
    4d1c:	57 fd       	sbrc	r21, 7
    4d1e:	90 58       	subi	r25, 0x80	; 128
    4d20:	44 0f       	add	r20, r20
    4d22:	55 1f       	adc	r21, r21
    4d24:	59 f0       	breq	.+22     	; 0x4d3c <__fp_splitA+0x10>
    4d26:	5f 3f       	cpi	r21, 0xFF	; 255
    4d28:	71 f0       	breq	.+28     	; 0x4d46 <__fp_splitA+0x1a>
    4d2a:	47 95       	ror	r20

00004d2c <__fp_splitA>:
    4d2c:	88 0f       	add	r24, r24
    4d2e:	97 fb       	bst	r25, 7
    4d30:	99 1f       	adc	r25, r25
    4d32:	61 f0       	breq	.+24     	; 0x4d4c <__fp_splitA+0x20>
    4d34:	9f 3f       	cpi	r25, 0xFF	; 255
    4d36:	79 f0       	breq	.+30     	; 0x4d56 <__fp_splitA+0x2a>
    4d38:	87 95       	ror	r24
    4d3a:	08 95       	ret
    4d3c:	12 16       	cp	r1, r18
    4d3e:	13 06       	cpc	r1, r19
    4d40:	14 06       	cpc	r1, r20
    4d42:	55 1f       	adc	r21, r21
    4d44:	f2 cf       	rjmp	.-28     	; 0x4d2a <__fp_split3+0xe>
    4d46:	46 95       	lsr	r20
    4d48:	f1 df       	rcall	.-30     	; 0x4d2c <__fp_splitA>
    4d4a:	08 c0       	rjmp	.+16     	; 0x4d5c <__fp_splitA+0x30>
    4d4c:	16 16       	cp	r1, r22
    4d4e:	17 06       	cpc	r1, r23
    4d50:	18 06       	cpc	r1, r24
    4d52:	99 1f       	adc	r25, r25
    4d54:	f1 cf       	rjmp	.-30     	; 0x4d38 <__fp_splitA+0xc>
    4d56:	86 95       	lsr	r24
    4d58:	71 05       	cpc	r23, r1
    4d5a:	61 05       	cpc	r22, r1
    4d5c:	08 94       	sec
    4d5e:	08 95       	ret

00004d60 <__fp_zero>:
    4d60:	e8 94       	clt

00004d62 <__fp_szero>:
    4d62:	bb 27       	eor	r27, r27
    4d64:	66 27       	eor	r22, r22
    4d66:	77 27       	eor	r23, r23
    4d68:	cb 01       	movw	r24, r22
    4d6a:	97 f9       	bld	r25, 7
    4d6c:	08 95       	ret

00004d6e <__gesf2>:
    4d6e:	e3 d0       	rcall	.+454    	; 0x4f36 <__fp_cmp>
    4d70:	08 f4       	brcc	.+2      	; 0x4d74 <__gesf2+0x6>
    4d72:	8f ef       	ldi	r24, 0xFF	; 255
    4d74:	08 95       	ret

00004d76 <__mulsf3>:
    4d76:	0b d0       	rcall	.+22     	; 0x4d8e <__mulsf3x>
    4d78:	c0 cf       	rjmp	.-128    	; 0x4cfa <__fp_round>
    4d7a:	b1 df       	rcall	.-158    	; 0x4cde <__fp_pscA>
    4d7c:	28 f0       	brcs	.+10     	; 0x4d88 <__mulsf3+0x12>
    4d7e:	b6 df       	rcall	.-148    	; 0x4cec <__fp_pscB>
    4d80:	18 f0       	brcs	.+6      	; 0x4d88 <__mulsf3+0x12>
    4d82:	95 23       	and	r25, r21
    4d84:	09 f0       	breq	.+2      	; 0x4d88 <__mulsf3+0x12>
    4d86:	a2 cf       	rjmp	.-188    	; 0x4ccc <__fp_inf>
    4d88:	a7 cf       	rjmp	.-178    	; 0x4cd8 <__fp_nan>
    4d8a:	11 24       	eor	r1, r1
    4d8c:	ea cf       	rjmp	.-44     	; 0x4d62 <__fp_szero>

00004d8e <__mulsf3x>:
    4d8e:	c6 df       	rcall	.-116    	; 0x4d1c <__fp_split3>
    4d90:	a0 f3       	brcs	.-24     	; 0x4d7a <__mulsf3+0x4>

00004d92 <__mulsf3_pse>:
    4d92:	95 9f       	mul	r25, r21
    4d94:	d1 f3       	breq	.-12     	; 0x4d8a <__mulsf3+0x14>
    4d96:	95 0f       	add	r25, r21
    4d98:	50 e0       	ldi	r21, 0x00	; 0
    4d9a:	55 1f       	adc	r21, r21
    4d9c:	62 9f       	mul	r22, r18
    4d9e:	f0 01       	movw	r30, r0
    4da0:	72 9f       	mul	r23, r18
    4da2:	bb 27       	eor	r27, r27
    4da4:	f0 0d       	add	r31, r0
    4da6:	b1 1d       	adc	r27, r1
    4da8:	63 9f       	mul	r22, r19
    4daa:	aa 27       	eor	r26, r26
    4dac:	f0 0d       	add	r31, r0
    4dae:	b1 1d       	adc	r27, r1
    4db0:	aa 1f       	adc	r26, r26
    4db2:	64 9f       	mul	r22, r20
    4db4:	66 27       	eor	r22, r22
    4db6:	b0 0d       	add	r27, r0
    4db8:	a1 1d       	adc	r26, r1
    4dba:	66 1f       	adc	r22, r22
    4dbc:	82 9f       	mul	r24, r18
    4dbe:	22 27       	eor	r18, r18
    4dc0:	b0 0d       	add	r27, r0
    4dc2:	a1 1d       	adc	r26, r1
    4dc4:	62 1f       	adc	r22, r18
    4dc6:	73 9f       	mul	r23, r19
    4dc8:	b0 0d       	add	r27, r0
    4dca:	a1 1d       	adc	r26, r1
    4dcc:	62 1f       	adc	r22, r18
    4dce:	83 9f       	mul	r24, r19
    4dd0:	a0 0d       	add	r26, r0
    4dd2:	61 1d       	adc	r22, r1
    4dd4:	22 1f       	adc	r18, r18
    4dd6:	74 9f       	mul	r23, r20
    4dd8:	33 27       	eor	r19, r19
    4dda:	a0 0d       	add	r26, r0
    4ddc:	61 1d       	adc	r22, r1
    4dde:	23 1f       	adc	r18, r19
    4de0:	84 9f       	mul	r24, r20
    4de2:	60 0d       	add	r22, r0
    4de4:	21 1d       	adc	r18, r1
    4de6:	82 2f       	mov	r24, r18
    4de8:	76 2f       	mov	r23, r22
    4dea:	6a 2f       	mov	r22, r26
    4dec:	11 24       	eor	r1, r1
    4dee:	9f 57       	subi	r25, 0x7F	; 127
    4df0:	50 40       	sbci	r21, 0x00	; 0
    4df2:	8a f0       	brmi	.+34     	; 0x4e16 <__mulsf3_pse+0x84>
    4df4:	e1 f0       	breq	.+56     	; 0x4e2e <__mulsf3_pse+0x9c>
    4df6:	88 23       	and	r24, r24
    4df8:	4a f0       	brmi	.+18     	; 0x4e0c <__mulsf3_pse+0x7a>
    4dfa:	ee 0f       	add	r30, r30
    4dfc:	ff 1f       	adc	r31, r31
    4dfe:	bb 1f       	adc	r27, r27
    4e00:	66 1f       	adc	r22, r22
    4e02:	77 1f       	adc	r23, r23
    4e04:	88 1f       	adc	r24, r24
    4e06:	91 50       	subi	r25, 0x01	; 1
    4e08:	50 40       	sbci	r21, 0x00	; 0
    4e0a:	a9 f7       	brne	.-22     	; 0x4df6 <__mulsf3_pse+0x64>
    4e0c:	9e 3f       	cpi	r25, 0xFE	; 254
    4e0e:	51 05       	cpc	r21, r1
    4e10:	70 f0       	brcs	.+28     	; 0x4e2e <__mulsf3_pse+0x9c>
    4e12:	5c cf       	rjmp	.-328    	; 0x4ccc <__fp_inf>
    4e14:	a6 cf       	rjmp	.-180    	; 0x4d62 <__fp_szero>
    4e16:	5f 3f       	cpi	r21, 0xFF	; 255
    4e18:	ec f3       	brlt	.-6      	; 0x4e14 <__mulsf3_pse+0x82>
    4e1a:	98 3e       	cpi	r25, 0xE8	; 232
    4e1c:	dc f3       	brlt	.-10     	; 0x4e14 <__mulsf3_pse+0x82>
    4e1e:	86 95       	lsr	r24
    4e20:	77 95       	ror	r23
    4e22:	67 95       	ror	r22
    4e24:	b7 95       	ror	r27
    4e26:	f7 95       	ror	r31
    4e28:	e7 95       	ror	r30
    4e2a:	9f 5f       	subi	r25, 0xFF	; 255
    4e2c:	c1 f7       	brne	.-16     	; 0x4e1e <__mulsf3_pse+0x8c>
    4e2e:	fe 2b       	or	r31, r30
    4e30:	88 0f       	add	r24, r24
    4e32:	91 1d       	adc	r25, r1
    4e34:	96 95       	lsr	r25
    4e36:	87 95       	ror	r24
    4e38:	97 f9       	bld	r25, 7
    4e3a:	08 95       	ret

00004e3c <pow>:
    4e3c:	fa 01       	movw	r30, r20
    4e3e:	ee 0f       	add	r30, r30
    4e40:	ff 1f       	adc	r31, r31
    4e42:	30 96       	adiw	r30, 0x00	; 0
    4e44:	21 05       	cpc	r18, r1
    4e46:	31 05       	cpc	r19, r1
    4e48:	99 f1       	breq	.+102    	; 0x4eb0 <pow+0x74>
    4e4a:	61 15       	cp	r22, r1
    4e4c:	71 05       	cpc	r23, r1
    4e4e:	61 f4       	brne	.+24     	; 0x4e68 <pow+0x2c>
    4e50:	80 38       	cpi	r24, 0x80	; 128
    4e52:	bf e3       	ldi	r27, 0x3F	; 63
    4e54:	9b 07       	cpc	r25, r27
    4e56:	49 f1       	breq	.+82     	; 0x4eaa <pow+0x6e>
    4e58:	68 94       	set
    4e5a:	90 38       	cpi	r25, 0x80	; 128
    4e5c:	81 05       	cpc	r24, r1
    4e5e:	61 f0       	breq	.+24     	; 0x4e78 <pow+0x3c>
    4e60:	80 38       	cpi	r24, 0x80	; 128
    4e62:	bf ef       	ldi	r27, 0xFF	; 255
    4e64:	9b 07       	cpc	r25, r27
    4e66:	41 f0       	breq	.+16     	; 0x4e78 <pow+0x3c>
    4e68:	99 23       	and	r25, r25
    4e6a:	42 f5       	brpl	.+80     	; 0x4ebc <pow+0x80>
    4e6c:	ff 3f       	cpi	r31, 0xFF	; 255
    4e6e:	e1 05       	cpc	r30, r1
    4e70:	31 05       	cpc	r19, r1
    4e72:	21 05       	cpc	r18, r1
    4e74:	11 f1       	breq	.+68     	; 0x4eba <pow+0x7e>
    4e76:	e8 94       	clt
    4e78:	08 94       	sec
    4e7a:	e7 95       	ror	r30
    4e7c:	d9 01       	movw	r26, r18
    4e7e:	aa 23       	and	r26, r26
    4e80:	29 f4       	brne	.+10     	; 0x4e8c <pow+0x50>
    4e82:	ab 2f       	mov	r26, r27
    4e84:	be 2f       	mov	r27, r30
    4e86:	f8 5f       	subi	r31, 0xF8	; 248
    4e88:	d0 f3       	brcs	.-12     	; 0x4e7e <pow+0x42>
    4e8a:	10 c0       	rjmp	.+32     	; 0x4eac <pow+0x70>
    4e8c:	ff 5f       	subi	r31, 0xFF	; 255
    4e8e:	70 f4       	brcc	.+28     	; 0x4eac <pow+0x70>
    4e90:	a6 95       	lsr	r26
    4e92:	e0 f7       	brcc	.-8      	; 0x4e8c <pow+0x50>
    4e94:	f7 39       	cpi	r31, 0x97	; 151
    4e96:	50 f0       	brcs	.+20     	; 0x4eac <pow+0x70>
    4e98:	19 f0       	breq	.+6      	; 0x4ea0 <pow+0x64>
    4e9a:	ff 3a       	cpi	r31, 0xAF	; 175
    4e9c:	38 f4       	brcc	.+14     	; 0x4eac <pow+0x70>
    4e9e:	9f 77       	andi	r25, 0x7F	; 127
    4ea0:	9f 93       	push	r25
    4ea2:	0c d0       	rcall	.+24     	; 0x4ebc <pow+0x80>
    4ea4:	0f 90       	pop	r0
    4ea6:	07 fc       	sbrc	r0, 7
    4ea8:	90 58       	subi	r25, 0x80	; 128
    4eaa:	08 95       	ret
    4eac:	3e f0       	brts	.+14     	; 0x4ebc <pow+0x80>
    4eae:	14 cf       	rjmp	.-472    	; 0x4cd8 <__fp_nan>
    4eb0:	60 e0       	ldi	r22, 0x00	; 0
    4eb2:	70 e0       	ldi	r23, 0x00	; 0
    4eb4:	80 e8       	ldi	r24, 0x80	; 128
    4eb6:	9f e3       	ldi	r25, 0x3F	; 63
    4eb8:	08 95       	ret
    4eba:	4f e7       	ldi	r20, 0x7F	; 127
    4ebc:	9f 77       	andi	r25, 0x7F	; 127
    4ebe:	5f 93       	push	r21
    4ec0:	4f 93       	push	r20
    4ec2:	3f 93       	push	r19
    4ec4:	2f 93       	push	r18
    4ec6:	c2 d0       	rcall	.+388    	; 0x504c <log>
    4ec8:	2f 91       	pop	r18
    4eca:	3f 91       	pop	r19
    4ecc:	4f 91       	pop	r20
    4ece:	5f 91       	pop	r21
    4ed0:	52 df       	rcall	.-348    	; 0x4d76 <__mulsf3>
    4ed2:	05 c0       	rjmp	.+10     	; 0x4ede <exp>
    4ed4:	19 f4       	brne	.+6      	; 0x4edc <pow+0xa0>
    4ed6:	0e f0       	brts	.+2      	; 0x4eda <pow+0x9e>
    4ed8:	f9 ce       	rjmp	.-526    	; 0x4ccc <__fp_inf>
    4eda:	42 cf       	rjmp	.-380    	; 0x4d60 <__fp_zero>
    4edc:	fd ce       	rjmp	.-518    	; 0x4cd8 <__fp_nan>

00004ede <exp>:
    4ede:	26 df       	rcall	.-436    	; 0x4d2c <__fp_splitA>
    4ee0:	c8 f3       	brcs	.-14     	; 0x4ed4 <pow+0x98>
    4ee2:	96 38       	cpi	r25, 0x86	; 134
    4ee4:	c0 f7       	brcc	.-16     	; 0x4ed6 <pow+0x9a>
    4ee6:	07 f8       	bld	r0, 7
    4ee8:	0f 92       	push	r0
    4eea:	e8 94       	clt
    4eec:	2b e3       	ldi	r18, 0x3B	; 59
    4eee:	3a ea       	ldi	r19, 0xAA	; 170
    4ef0:	48 eb       	ldi	r20, 0xB8	; 184
    4ef2:	5f e7       	ldi	r21, 0x7F	; 127
    4ef4:	4e df       	rcall	.-356    	; 0x4d92 <__mulsf3_pse>
    4ef6:	0f 92       	push	r0
    4ef8:	0f 92       	push	r0
    4efa:	0f 92       	push	r0
    4efc:	4d b7       	in	r20, 0x3d	; 61
    4efe:	5e b7       	in	r21, 0x3e	; 62
    4f00:	0f 92       	push	r0
    4f02:	e4 d0       	rcall	.+456    	; 0x50cc <modf>
    4f04:	e4 ec       	ldi	r30, 0xC4	; 196
    4f06:	f0 e0       	ldi	r31, 0x00	; 0
    4f08:	3a d0       	rcall	.+116    	; 0x4f7e <__fp_powser>
    4f0a:	4f 91       	pop	r20
    4f0c:	5f 91       	pop	r21
    4f0e:	ef 91       	pop	r30
    4f10:	ff 91       	pop	r31
    4f12:	e5 95       	asr	r30
    4f14:	ee 1f       	adc	r30, r30
    4f16:	ff 1f       	adc	r31, r31
    4f18:	49 f0       	breq	.+18     	; 0x4f2c <exp+0x4e>
    4f1a:	fe 57       	subi	r31, 0x7E	; 126
    4f1c:	e0 68       	ori	r30, 0x80	; 128
    4f1e:	44 27       	eor	r20, r20
    4f20:	ee 0f       	add	r30, r30
    4f22:	44 1f       	adc	r20, r20
    4f24:	fa 95       	dec	r31
    4f26:	e1 f7       	brne	.-8      	; 0x4f20 <exp+0x42>
    4f28:	41 95       	neg	r20
    4f2a:	55 0b       	sbc	r21, r21
    4f2c:	56 d0       	rcall	.+172    	; 0x4fda <ldexp>
    4f2e:	0f 90       	pop	r0
    4f30:	07 fe       	sbrs	r0, 7
    4f32:	4a c0       	rjmp	.+148    	; 0x4fc8 <inverse>
    4f34:	08 95       	ret

00004f36 <__fp_cmp>:
    4f36:	99 0f       	add	r25, r25
    4f38:	00 08       	sbc	r0, r0
    4f3a:	55 0f       	add	r21, r21
    4f3c:	aa 0b       	sbc	r26, r26
    4f3e:	e0 e8       	ldi	r30, 0x80	; 128
    4f40:	fe ef       	ldi	r31, 0xFE	; 254
    4f42:	16 16       	cp	r1, r22
    4f44:	17 06       	cpc	r1, r23
    4f46:	e8 07       	cpc	r30, r24
    4f48:	f9 07       	cpc	r31, r25
    4f4a:	c0 f0       	brcs	.+48     	; 0x4f7c <__fp_cmp+0x46>
    4f4c:	12 16       	cp	r1, r18
    4f4e:	13 06       	cpc	r1, r19
    4f50:	e4 07       	cpc	r30, r20
    4f52:	f5 07       	cpc	r31, r21
    4f54:	98 f0       	brcs	.+38     	; 0x4f7c <__fp_cmp+0x46>
    4f56:	62 1b       	sub	r22, r18
    4f58:	73 0b       	sbc	r23, r19
    4f5a:	84 0b       	sbc	r24, r20
    4f5c:	95 0b       	sbc	r25, r21
    4f5e:	39 f4       	brne	.+14     	; 0x4f6e <__fp_cmp+0x38>
    4f60:	0a 26       	eor	r0, r26
    4f62:	61 f0       	breq	.+24     	; 0x4f7c <__fp_cmp+0x46>
    4f64:	23 2b       	or	r18, r19
    4f66:	24 2b       	or	r18, r20
    4f68:	25 2b       	or	r18, r21
    4f6a:	21 f4       	brne	.+8      	; 0x4f74 <__fp_cmp+0x3e>
    4f6c:	08 95       	ret
    4f6e:	0a 26       	eor	r0, r26
    4f70:	09 f4       	brne	.+2      	; 0x4f74 <__fp_cmp+0x3e>
    4f72:	a1 40       	sbci	r26, 0x01	; 1
    4f74:	a6 95       	lsr	r26
    4f76:	8f ef       	ldi	r24, 0xFF	; 255
    4f78:	81 1d       	adc	r24, r1
    4f7a:	81 1d       	adc	r24, r1
    4f7c:	08 95       	ret

00004f7e <__fp_powser>:
    4f7e:	df 93       	push	r29
    4f80:	cf 93       	push	r28
    4f82:	1f 93       	push	r17
    4f84:	0f 93       	push	r16
    4f86:	ff 92       	push	r15
    4f88:	ef 92       	push	r14
    4f8a:	df 92       	push	r13
    4f8c:	7b 01       	movw	r14, r22
    4f8e:	8c 01       	movw	r16, r24
    4f90:	68 94       	set
    4f92:	05 c0       	rjmp	.+10     	; 0x4f9e <__fp_powser+0x20>
    4f94:	da 2e       	mov	r13, r26
    4f96:	ef 01       	movw	r28, r30
    4f98:	fa de       	rcall	.-524    	; 0x4d8e <__mulsf3x>
    4f9a:	fe 01       	movw	r30, r28
    4f9c:	e8 94       	clt
    4f9e:	a5 91       	lpm	r26, Z+
    4fa0:	25 91       	lpm	r18, Z+
    4fa2:	35 91       	lpm	r19, Z+
    4fa4:	45 91       	lpm	r20, Z+
    4fa6:	55 91       	lpm	r21, Z+
    4fa8:	ae f3       	brts	.-22     	; 0x4f94 <__fp_powser+0x16>
    4faa:	ef 01       	movw	r28, r30
    4fac:	6b dd       	rcall	.-1322   	; 0x4a84 <__addsf3x>
    4fae:	fe 01       	movw	r30, r28
    4fb0:	97 01       	movw	r18, r14
    4fb2:	a8 01       	movw	r20, r16
    4fb4:	da 94       	dec	r13
    4fb6:	79 f7       	brne	.-34     	; 0x4f96 <__fp_powser+0x18>
    4fb8:	df 90       	pop	r13
    4fba:	ef 90       	pop	r14
    4fbc:	ff 90       	pop	r15
    4fbe:	0f 91       	pop	r16
    4fc0:	1f 91       	pop	r17
    4fc2:	cf 91       	pop	r28
    4fc4:	df 91       	pop	r29
    4fc6:	08 95       	ret

00004fc8 <inverse>:
    4fc8:	9b 01       	movw	r18, r22
    4fca:	ac 01       	movw	r20, r24
    4fcc:	60 e0       	ldi	r22, 0x00	; 0
    4fce:	70 e0       	ldi	r23, 0x00	; 0
    4fd0:	80 e8       	ldi	r24, 0x80	; 128
    4fd2:	9f e3       	ldi	r25, 0x3F	; 63
    4fd4:	aa cd       	rjmp	.-1196   	; 0x4b2a <__divsf3>
    4fd6:	7a ce       	rjmp	.-780    	; 0x4ccc <__fp_inf>
    4fd8:	ac c0       	rjmp	.+344    	; 0x5132 <__fp_mpack>

00004fda <ldexp>:
    4fda:	a8 de       	rcall	.-688    	; 0x4d2c <__fp_splitA>
    4fdc:	e8 f3       	brcs	.-6      	; 0x4fd8 <inverse+0x10>
    4fde:	99 23       	and	r25, r25
    4fe0:	d9 f3       	breq	.-10     	; 0x4fd8 <inverse+0x10>
    4fe2:	94 0f       	add	r25, r20
    4fe4:	51 1d       	adc	r21, r1
    4fe6:	bb f3       	brvs	.-18     	; 0x4fd6 <inverse+0xe>
    4fe8:	91 50       	subi	r25, 0x01	; 1
    4fea:	50 40       	sbci	r21, 0x00	; 0
    4fec:	94 f0       	brlt	.+36     	; 0x5012 <ldexp+0x38>
    4fee:	59 f0       	breq	.+22     	; 0x5006 <ldexp+0x2c>
    4ff0:	88 23       	and	r24, r24
    4ff2:	32 f0       	brmi	.+12     	; 0x5000 <ldexp+0x26>
    4ff4:	66 0f       	add	r22, r22
    4ff6:	77 1f       	adc	r23, r23
    4ff8:	88 1f       	adc	r24, r24
    4ffa:	91 50       	subi	r25, 0x01	; 1
    4ffc:	50 40       	sbci	r21, 0x00	; 0
    4ffe:	c1 f7       	brne	.-16     	; 0x4ff0 <ldexp+0x16>
    5000:	9e 3f       	cpi	r25, 0xFE	; 254
    5002:	51 05       	cpc	r21, r1
    5004:	44 f7       	brge	.-48     	; 0x4fd6 <inverse+0xe>
    5006:	88 0f       	add	r24, r24
    5008:	91 1d       	adc	r25, r1
    500a:	96 95       	lsr	r25
    500c:	87 95       	ror	r24
    500e:	97 f9       	bld	r25, 7
    5010:	08 95       	ret
    5012:	5f 3f       	cpi	r21, 0xFF	; 255
    5014:	ac f0       	brlt	.+42     	; 0x5040 <ldexp+0x66>
    5016:	98 3e       	cpi	r25, 0xE8	; 232
    5018:	9c f0       	brlt	.+38     	; 0x5040 <ldexp+0x66>
    501a:	bb 27       	eor	r27, r27
    501c:	86 95       	lsr	r24
    501e:	77 95       	ror	r23
    5020:	67 95       	ror	r22
    5022:	b7 95       	ror	r27
    5024:	08 f4       	brcc	.+2      	; 0x5028 <ldexp+0x4e>
    5026:	b1 60       	ori	r27, 0x01	; 1
    5028:	93 95       	inc	r25
    502a:	c1 f7       	brne	.-16     	; 0x501c <ldexp+0x42>
    502c:	bb 0f       	add	r27, r27
    502e:	58 f7       	brcc	.-42     	; 0x5006 <ldexp+0x2c>
    5030:	11 f4       	brne	.+4      	; 0x5036 <ldexp+0x5c>
    5032:	60 ff       	sbrs	r22, 0
    5034:	e8 cf       	rjmp	.-48     	; 0x5006 <ldexp+0x2c>
    5036:	6f 5f       	subi	r22, 0xFF	; 255
    5038:	7f 4f       	sbci	r23, 0xFF	; 255
    503a:	8f 4f       	sbci	r24, 0xFF	; 255
    503c:	9f 4f       	sbci	r25, 0xFF	; 255
    503e:	e3 cf       	rjmp	.-58     	; 0x5006 <ldexp+0x2c>
    5040:	90 ce       	rjmp	.-736    	; 0x4d62 <__fp_szero>
    5042:	0e f0       	brts	.+2      	; 0x5046 <ldexp+0x6c>
    5044:	76 c0       	rjmp	.+236    	; 0x5132 <__fp_mpack>
    5046:	48 ce       	rjmp	.-880    	; 0x4cd8 <__fp_nan>
    5048:	68 94       	set
    504a:	40 ce       	rjmp	.-896    	; 0x4ccc <__fp_inf>

0000504c <log>:
    504c:	6f de       	rcall	.-802    	; 0x4d2c <__fp_splitA>
    504e:	c8 f3       	brcs	.-14     	; 0x5042 <ldexp+0x68>
    5050:	99 23       	and	r25, r25
    5052:	d1 f3       	breq	.-12     	; 0x5048 <ldexp+0x6e>
    5054:	c6 f3       	brts	.-16     	; 0x5046 <ldexp+0x6c>
    5056:	df 93       	push	r29
    5058:	cf 93       	push	r28
    505a:	1f 93       	push	r17
    505c:	0f 93       	push	r16
    505e:	ff 92       	push	r15
    5060:	c9 2f       	mov	r28, r25
    5062:	dd 27       	eor	r29, r29
    5064:	88 23       	and	r24, r24
    5066:	2a f0       	brmi	.+10     	; 0x5072 <log+0x26>
    5068:	21 97       	sbiw	r28, 0x01	; 1
    506a:	66 0f       	add	r22, r22
    506c:	77 1f       	adc	r23, r23
    506e:	88 1f       	adc	r24, r24
    5070:	da f7       	brpl	.-10     	; 0x5068 <log+0x1c>
    5072:	20 e0       	ldi	r18, 0x00	; 0
    5074:	30 e0       	ldi	r19, 0x00	; 0
    5076:	40 e8       	ldi	r20, 0x80	; 128
    5078:	5f eb       	ldi	r21, 0xBF	; 191
    507a:	9f e3       	ldi	r25, 0x3F	; 63
    507c:	88 39       	cpi	r24, 0x98	; 152
    507e:	20 f0       	brcs	.+8      	; 0x5088 <log+0x3c>
    5080:	80 3e       	cpi	r24, 0xE0	; 224
    5082:	30 f0       	brcs	.+12     	; 0x5090 <log+0x44>
    5084:	21 96       	adiw	r28, 0x01	; 1
    5086:	8f 77       	andi	r24, 0x7F	; 127
    5088:	ec dc       	rcall	.-1576   	; 0x4a62 <__addsf3>
    508a:	ec ee       	ldi	r30, 0xEC	; 236
    508c:	f0 e0       	ldi	r31, 0x00	; 0
    508e:	03 c0       	rjmp	.+6      	; 0x5096 <log+0x4a>
    5090:	e8 dc       	rcall	.-1584   	; 0x4a62 <__addsf3>
    5092:	e9 e1       	ldi	r30, 0x19	; 25
    5094:	f1 e0       	ldi	r31, 0x01	; 1
    5096:	73 df       	rcall	.-282    	; 0x4f7e <__fp_powser>
    5098:	8b 01       	movw	r16, r22
    509a:	be 01       	movw	r22, r28
    509c:	ec 01       	movw	r28, r24
    509e:	fb 2e       	mov	r15, r27
    50a0:	6f 57       	subi	r22, 0x7F	; 127
    50a2:	71 09       	sbc	r23, r1
    50a4:	75 95       	asr	r23
    50a6:	77 1f       	adc	r23, r23
    50a8:	88 0b       	sbc	r24, r24
    50aa:	99 0b       	sbc	r25, r25
    50ac:	d4 dd       	rcall	.-1112   	; 0x4c56 <__floatsisf>
    50ae:	28 e1       	ldi	r18, 0x18	; 24
    50b0:	32 e7       	ldi	r19, 0x72	; 114
    50b2:	41 e3       	ldi	r20, 0x31	; 49
    50b4:	5f e3       	ldi	r21, 0x3F	; 63
    50b6:	6b de       	rcall	.-810    	; 0x4d8e <__mulsf3x>
    50b8:	af 2d       	mov	r26, r15
    50ba:	98 01       	movw	r18, r16
    50bc:	ae 01       	movw	r20, r28
    50be:	ff 90       	pop	r15
    50c0:	0f 91       	pop	r16
    50c2:	1f 91       	pop	r17
    50c4:	cf 91       	pop	r28
    50c6:	df 91       	pop	r29
    50c8:	dd dc       	rcall	.-1606   	; 0x4a84 <__addsf3x>
    50ca:	17 ce       	rjmp	.-978    	; 0x4cfa <__fp_round>

000050cc <modf>:
    50cc:	fa 01       	movw	r30, r20
    50ce:	dc 01       	movw	r26, r24
    50d0:	aa 0f       	add	r26, r26
    50d2:	bb 1f       	adc	r27, r27
    50d4:	9b 01       	movw	r18, r22
    50d6:	ac 01       	movw	r20, r24
    50d8:	bf 57       	subi	r27, 0x7F	; 127
    50da:	28 f4       	brcc	.+10     	; 0x50e6 <modf+0x1a>
    50dc:	22 27       	eor	r18, r18
    50de:	33 27       	eor	r19, r19
    50e0:	44 27       	eor	r20, r20
    50e2:	50 78       	andi	r21, 0x80	; 128
    50e4:	1f c0       	rjmp	.+62     	; 0x5124 <modf+0x58>
    50e6:	b7 51       	subi	r27, 0x17	; 23
    50e8:	88 f4       	brcc	.+34     	; 0x510c <modf+0x40>
    50ea:	ab 2f       	mov	r26, r27
    50ec:	00 24       	eor	r0, r0
    50ee:	46 95       	lsr	r20
    50f0:	37 95       	ror	r19
    50f2:	27 95       	ror	r18
    50f4:	01 1c       	adc	r0, r1
    50f6:	a3 95       	inc	r26
    50f8:	d2 f3       	brmi	.-12     	; 0x50ee <modf+0x22>
    50fa:	00 20       	and	r0, r0
    50fc:	69 f0       	breq	.+26     	; 0x5118 <modf+0x4c>
    50fe:	22 0f       	add	r18, r18
    5100:	33 1f       	adc	r19, r19
    5102:	44 1f       	adc	r20, r20
    5104:	b3 95       	inc	r27
    5106:	da f3       	brmi	.-10     	; 0x50fe <modf+0x32>
    5108:	0d d0       	rcall	.+26     	; 0x5124 <modf+0x58>
    510a:	aa cc       	rjmp	.-1708   	; 0x4a60 <__subsf3>
    510c:	61 30       	cpi	r22, 0x01	; 1
    510e:	71 05       	cpc	r23, r1
    5110:	a0 e8       	ldi	r26, 0x80	; 128
    5112:	8a 07       	cpc	r24, r26
    5114:	b9 46       	sbci	r27, 0x69	; 105
    5116:	30 f4       	brcc	.+12     	; 0x5124 <modf+0x58>
    5118:	9b 01       	movw	r18, r22
    511a:	ac 01       	movw	r20, r24
    511c:	66 27       	eor	r22, r22
    511e:	77 27       	eor	r23, r23
    5120:	88 27       	eor	r24, r24
    5122:	90 78       	andi	r25, 0x80	; 128
    5124:	30 96       	adiw	r30, 0x00	; 0
    5126:	21 f0       	breq	.+8      	; 0x5130 <modf+0x64>
    5128:	20 83       	st	Z, r18
    512a:	31 83       	std	Z+1, r19	; 0x01
    512c:	42 83       	std	Z+2, r20	; 0x02
    512e:	53 83       	std	Z+3, r21	; 0x03
    5130:	08 95       	ret

00005132 <__fp_mpack>:
    5132:	9f 3f       	cpi	r25, 0xFF	; 255
    5134:	31 f0       	breq	.+12     	; 0x5142 <__fp_mpack_finite+0xc>

00005136 <__fp_mpack_finite>:
    5136:	91 50       	subi	r25, 0x01	; 1
    5138:	20 f4       	brcc	.+8      	; 0x5142 <__fp_mpack_finite+0xc>
    513a:	87 95       	ror	r24
    513c:	77 95       	ror	r23
    513e:	67 95       	ror	r22
    5140:	b7 95       	ror	r27
    5142:	88 0f       	add	r24, r24
    5144:	91 1d       	adc	r25, r1
    5146:	96 95       	lsr	r25
    5148:	87 95       	ror	r24
    514a:	97 f9       	bld	r25, 7
    514c:	08 95       	ret

0000514e <__udivmodqi4>:
    514e:	99 1b       	sub	r25, r25
    5150:	79 e0       	ldi	r23, 0x09	; 9
    5152:	04 c0       	rjmp	.+8      	; 0x515c <__udivmodqi4_ep>

00005154 <__udivmodqi4_loop>:
    5154:	99 1f       	adc	r25, r25
    5156:	96 17       	cp	r25, r22
    5158:	08 f0       	brcs	.+2      	; 0x515c <__udivmodqi4_ep>
    515a:	96 1b       	sub	r25, r22

0000515c <__udivmodqi4_ep>:
    515c:	88 1f       	adc	r24, r24
    515e:	7a 95       	dec	r23
    5160:	c9 f7       	brne	.-14     	; 0x5154 <__udivmodqi4_loop>
    5162:	80 95       	com	r24
    5164:	08 95       	ret

00005166 <__udivmodhi4>:
    5166:	aa 1b       	sub	r26, r26
    5168:	bb 1b       	sub	r27, r27
    516a:	51 e1       	ldi	r21, 0x11	; 17
    516c:	07 c0       	rjmp	.+14     	; 0x517c <__udivmodhi4_ep>

0000516e <__udivmodhi4_loop>:
    516e:	aa 1f       	adc	r26, r26
    5170:	bb 1f       	adc	r27, r27
    5172:	a6 17       	cp	r26, r22
    5174:	b7 07       	cpc	r27, r23
    5176:	10 f0       	brcs	.+4      	; 0x517c <__udivmodhi4_ep>
    5178:	a6 1b       	sub	r26, r22
    517a:	b7 0b       	sbc	r27, r23

0000517c <__udivmodhi4_ep>:
    517c:	88 1f       	adc	r24, r24
    517e:	99 1f       	adc	r25, r25
    5180:	5a 95       	dec	r21
    5182:	a9 f7       	brne	.-22     	; 0x516e <__udivmodhi4_loop>
    5184:	80 95       	com	r24
    5186:	90 95       	com	r25
    5188:	bc 01       	movw	r22, r24
    518a:	cd 01       	movw	r24, r26
    518c:	08 95       	ret

0000518e <__tablejump2__>:
    518e:	ee 0f       	add	r30, r30
    5190:	ff 1f       	adc	r31, r31
    5192:	00 24       	eor	r0, r0
    5194:	00 1c       	adc	r0, r0
    5196:	0b be       	out	0x3b, r0	; 59
    5198:	07 90       	elpm	r0, Z+
    519a:	f6 91       	elpm	r31, Z
    519c:	e0 2d       	mov	r30, r0
    519e:	09 94       	ijmp

000051a0 <__umulhisi3>:
    51a0:	a2 9f       	mul	r26, r18
    51a2:	b0 01       	movw	r22, r0
    51a4:	b3 9f       	mul	r27, r19
    51a6:	c0 01       	movw	r24, r0
    51a8:	a3 9f       	mul	r26, r19
    51aa:	70 0d       	add	r23, r0
    51ac:	81 1d       	adc	r24, r1
    51ae:	11 24       	eor	r1, r1
    51b0:	91 1d       	adc	r25, r1
    51b2:	b2 9f       	mul	r27, r18
    51b4:	70 0d       	add	r23, r0
    51b6:	81 1d       	adc	r24, r1
    51b8:	11 24       	eor	r1, r1
    51ba:	91 1d       	adc	r25, r1
    51bc:	08 95       	ret

000051be <__usmulhisi3>:
    51be:	f0 df       	rcall	.-32     	; 0x51a0 <__umulhisi3>

000051c0 <__usmulhisi3_tail>:
    51c0:	b7 ff       	sbrs	r27, 7
    51c2:	08 95       	ret
    51c4:	82 1b       	sub	r24, r18
    51c6:	93 0b       	sbc	r25, r19
    51c8:	08 95       	ret

000051ca <sprintf>:
    51ca:	0f 93       	push	r16
    51cc:	1f 93       	push	r17
    51ce:	cf 93       	push	r28
    51d0:	df 93       	push	r29
    51d2:	cd b7       	in	r28, 0x3d	; 61
    51d4:	de b7       	in	r29, 0x3e	; 62
    51d6:	2e 97       	sbiw	r28, 0x0e	; 14
    51d8:	0f b6       	in	r0, 0x3f	; 63
    51da:	f8 94       	cli
    51dc:	de bf       	out	0x3e, r29	; 62
    51de:	0f be       	out	0x3f, r0	; 63
    51e0:	cd bf       	out	0x3d, r28	; 61
    51e2:	0d 89       	ldd	r16, Y+21	; 0x15
    51e4:	1e 89       	ldd	r17, Y+22	; 0x16
    51e6:	86 e0       	ldi	r24, 0x06	; 6
    51e8:	8c 83       	std	Y+4, r24	; 0x04
    51ea:	1a 83       	std	Y+2, r17	; 0x02
    51ec:	09 83       	std	Y+1, r16	; 0x01
    51ee:	8f ef       	ldi	r24, 0xFF	; 255
    51f0:	9f e7       	ldi	r25, 0x7F	; 127
    51f2:	9e 83       	std	Y+6, r25	; 0x06
    51f4:	8d 83       	std	Y+5, r24	; 0x05
    51f6:	ae 01       	movw	r20, r28
    51f8:	47 5e       	subi	r20, 0xE7	; 231
    51fa:	5f 4f       	sbci	r21, 0xFF	; 255
    51fc:	6f 89       	ldd	r22, Y+23	; 0x17
    51fe:	78 8d       	ldd	r23, Y+24	; 0x18
    5200:	ce 01       	movw	r24, r28
    5202:	01 96       	adiw	r24, 0x01	; 1
    5204:	11 d0       	rcall	.+34     	; 0x5228 <vfprintf>
    5206:	2f 81       	ldd	r18, Y+7	; 0x07
    5208:	38 85       	ldd	r19, Y+8	; 0x08
    520a:	f8 01       	movw	r30, r16
    520c:	e2 0f       	add	r30, r18
    520e:	f3 1f       	adc	r31, r19
    5210:	10 82       	st	Z, r1
    5212:	2e 96       	adiw	r28, 0x0e	; 14
    5214:	0f b6       	in	r0, 0x3f	; 63
    5216:	f8 94       	cli
    5218:	de bf       	out	0x3e, r29	; 62
    521a:	0f be       	out	0x3f, r0	; 63
    521c:	cd bf       	out	0x3d, r28	; 61
    521e:	df 91       	pop	r29
    5220:	cf 91       	pop	r28
    5222:	1f 91       	pop	r17
    5224:	0f 91       	pop	r16
    5226:	08 95       	ret

00005228 <vfprintf>:
    5228:	2f 92       	push	r2
    522a:	3f 92       	push	r3
    522c:	4f 92       	push	r4
    522e:	5f 92       	push	r5
    5230:	6f 92       	push	r6
    5232:	7f 92       	push	r7
    5234:	8f 92       	push	r8
    5236:	9f 92       	push	r9
    5238:	af 92       	push	r10
    523a:	bf 92       	push	r11
    523c:	cf 92       	push	r12
    523e:	df 92       	push	r13
    5240:	ef 92       	push	r14
    5242:	ff 92       	push	r15
    5244:	0f 93       	push	r16
    5246:	1f 93       	push	r17
    5248:	cf 93       	push	r28
    524a:	df 93       	push	r29
    524c:	cd b7       	in	r28, 0x3d	; 61
    524e:	de b7       	in	r29, 0x3e	; 62
    5250:	2c 97       	sbiw	r28, 0x0c	; 12
    5252:	0f b6       	in	r0, 0x3f	; 63
    5254:	f8 94       	cli
    5256:	de bf       	out	0x3e, r29	; 62
    5258:	0f be       	out	0x3f, r0	; 63
    525a:	cd bf       	out	0x3d, r28	; 61
    525c:	7c 01       	movw	r14, r24
    525e:	6b 01       	movw	r12, r22
    5260:	8a 01       	movw	r16, r20
    5262:	fc 01       	movw	r30, r24
    5264:	17 82       	std	Z+7, r1	; 0x07
    5266:	16 82       	std	Z+6, r1	; 0x06
    5268:	83 81       	ldd	r24, Z+3	; 0x03
    526a:	81 ff       	sbrs	r24, 1
    526c:	b0 c1       	rjmp	.+864    	; 0x55ce <vfprintf+0x3a6>
    526e:	ce 01       	movw	r24, r28
    5270:	01 96       	adiw	r24, 0x01	; 1
    5272:	4c 01       	movw	r8, r24
    5274:	f7 01       	movw	r30, r14
    5276:	93 81       	ldd	r25, Z+3	; 0x03
    5278:	f6 01       	movw	r30, r12
    527a:	93 fd       	sbrc	r25, 3
    527c:	85 91       	lpm	r24, Z+
    527e:	93 ff       	sbrs	r25, 3
    5280:	81 91       	ld	r24, Z+
    5282:	6f 01       	movw	r12, r30
    5284:	88 23       	and	r24, r24
    5286:	09 f4       	brne	.+2      	; 0x528a <vfprintf+0x62>
    5288:	9e c1       	rjmp	.+828    	; 0x55c6 <vfprintf+0x39e>
    528a:	85 32       	cpi	r24, 0x25	; 37
    528c:	39 f4       	brne	.+14     	; 0x529c <vfprintf+0x74>
    528e:	93 fd       	sbrc	r25, 3
    5290:	85 91       	lpm	r24, Z+
    5292:	93 ff       	sbrs	r25, 3
    5294:	81 91       	ld	r24, Z+
    5296:	6f 01       	movw	r12, r30
    5298:	85 32       	cpi	r24, 0x25	; 37
    529a:	21 f4       	brne	.+8      	; 0x52a4 <vfprintf+0x7c>
    529c:	b7 01       	movw	r22, r14
    529e:	90 e0       	ldi	r25, 0x00	; 0
    52a0:	c7 d1       	rcall	.+910    	; 0x5630 <fputc>
    52a2:	e8 cf       	rjmp	.-48     	; 0x5274 <vfprintf+0x4c>
    52a4:	51 2c       	mov	r5, r1
    52a6:	31 2c       	mov	r3, r1
    52a8:	20 e0       	ldi	r18, 0x00	; 0
    52aa:	20 32       	cpi	r18, 0x20	; 32
    52ac:	a0 f4       	brcc	.+40     	; 0x52d6 <vfprintf+0xae>
    52ae:	8b 32       	cpi	r24, 0x2B	; 43
    52b0:	69 f0       	breq	.+26     	; 0x52cc <vfprintf+0xa4>
    52b2:	30 f4       	brcc	.+12     	; 0x52c0 <vfprintf+0x98>
    52b4:	80 32       	cpi	r24, 0x20	; 32
    52b6:	59 f0       	breq	.+22     	; 0x52ce <vfprintf+0xa6>
    52b8:	83 32       	cpi	r24, 0x23	; 35
    52ba:	69 f4       	brne	.+26     	; 0x52d6 <vfprintf+0xae>
    52bc:	20 61       	ori	r18, 0x10	; 16
    52be:	2c c0       	rjmp	.+88     	; 0x5318 <vfprintf+0xf0>
    52c0:	8d 32       	cpi	r24, 0x2D	; 45
    52c2:	39 f0       	breq	.+14     	; 0x52d2 <vfprintf+0xaa>
    52c4:	80 33       	cpi	r24, 0x30	; 48
    52c6:	39 f4       	brne	.+14     	; 0x52d6 <vfprintf+0xae>
    52c8:	21 60       	ori	r18, 0x01	; 1
    52ca:	26 c0       	rjmp	.+76     	; 0x5318 <vfprintf+0xf0>
    52cc:	22 60       	ori	r18, 0x02	; 2
    52ce:	24 60       	ori	r18, 0x04	; 4
    52d0:	23 c0       	rjmp	.+70     	; 0x5318 <vfprintf+0xf0>
    52d2:	28 60       	ori	r18, 0x08	; 8
    52d4:	21 c0       	rjmp	.+66     	; 0x5318 <vfprintf+0xf0>
    52d6:	27 fd       	sbrc	r18, 7
    52d8:	27 c0       	rjmp	.+78     	; 0x5328 <vfprintf+0x100>
    52da:	30 ed       	ldi	r19, 0xD0	; 208
    52dc:	38 0f       	add	r19, r24
    52de:	3a 30       	cpi	r19, 0x0A	; 10
    52e0:	78 f4       	brcc	.+30     	; 0x5300 <vfprintf+0xd8>
    52e2:	26 ff       	sbrs	r18, 6
    52e4:	06 c0       	rjmp	.+12     	; 0x52f2 <vfprintf+0xca>
    52e6:	fa e0       	ldi	r31, 0x0A	; 10
    52e8:	5f 9e       	mul	r5, r31
    52ea:	30 0d       	add	r19, r0
    52ec:	11 24       	eor	r1, r1
    52ee:	53 2e       	mov	r5, r19
    52f0:	13 c0       	rjmp	.+38     	; 0x5318 <vfprintf+0xf0>
    52f2:	8a e0       	ldi	r24, 0x0A	; 10
    52f4:	38 9e       	mul	r3, r24
    52f6:	30 0d       	add	r19, r0
    52f8:	11 24       	eor	r1, r1
    52fa:	33 2e       	mov	r3, r19
    52fc:	20 62       	ori	r18, 0x20	; 32
    52fe:	0c c0       	rjmp	.+24     	; 0x5318 <vfprintf+0xf0>
    5300:	8e 32       	cpi	r24, 0x2E	; 46
    5302:	21 f4       	brne	.+8      	; 0x530c <vfprintf+0xe4>
    5304:	26 fd       	sbrc	r18, 6
    5306:	5f c1       	rjmp	.+702    	; 0x55c6 <vfprintf+0x39e>
    5308:	20 64       	ori	r18, 0x40	; 64
    530a:	06 c0       	rjmp	.+12     	; 0x5318 <vfprintf+0xf0>
    530c:	8c 36       	cpi	r24, 0x6C	; 108
    530e:	11 f4       	brne	.+4      	; 0x5314 <vfprintf+0xec>
    5310:	20 68       	ori	r18, 0x80	; 128
    5312:	02 c0       	rjmp	.+4      	; 0x5318 <vfprintf+0xf0>
    5314:	88 36       	cpi	r24, 0x68	; 104
    5316:	41 f4       	brne	.+16     	; 0x5328 <vfprintf+0x100>
    5318:	f6 01       	movw	r30, r12
    531a:	93 fd       	sbrc	r25, 3
    531c:	85 91       	lpm	r24, Z+
    531e:	93 ff       	sbrs	r25, 3
    5320:	81 91       	ld	r24, Z+
    5322:	6f 01       	movw	r12, r30
    5324:	81 11       	cpse	r24, r1
    5326:	c1 cf       	rjmp	.-126    	; 0x52aa <vfprintf+0x82>
    5328:	98 2f       	mov	r25, r24
    532a:	9f 7d       	andi	r25, 0xDF	; 223
    532c:	95 54       	subi	r25, 0x45	; 69
    532e:	93 30       	cpi	r25, 0x03	; 3
    5330:	28 f4       	brcc	.+10     	; 0x533c <vfprintf+0x114>
    5332:	0c 5f       	subi	r16, 0xFC	; 252
    5334:	1f 4f       	sbci	r17, 0xFF	; 255
    5336:	ff e3       	ldi	r31, 0x3F	; 63
    5338:	f9 83       	std	Y+1, r31	; 0x01
    533a:	0d c0       	rjmp	.+26     	; 0x5356 <vfprintf+0x12e>
    533c:	83 36       	cpi	r24, 0x63	; 99
    533e:	31 f0       	breq	.+12     	; 0x534c <vfprintf+0x124>
    5340:	83 37       	cpi	r24, 0x73	; 115
    5342:	71 f0       	breq	.+28     	; 0x5360 <vfprintf+0x138>
    5344:	83 35       	cpi	r24, 0x53	; 83
    5346:	09 f0       	breq	.+2      	; 0x534a <vfprintf+0x122>
    5348:	57 c0       	rjmp	.+174    	; 0x53f8 <vfprintf+0x1d0>
    534a:	21 c0       	rjmp	.+66     	; 0x538e <vfprintf+0x166>
    534c:	f8 01       	movw	r30, r16
    534e:	80 81       	ld	r24, Z
    5350:	89 83       	std	Y+1, r24	; 0x01
    5352:	0e 5f       	subi	r16, 0xFE	; 254
    5354:	1f 4f       	sbci	r17, 0xFF	; 255
    5356:	44 24       	eor	r4, r4
    5358:	43 94       	inc	r4
    535a:	51 2c       	mov	r5, r1
    535c:	54 01       	movw	r10, r8
    535e:	14 c0       	rjmp	.+40     	; 0x5388 <vfprintf+0x160>
    5360:	38 01       	movw	r6, r16
    5362:	f2 e0       	ldi	r31, 0x02	; 2
    5364:	6f 0e       	add	r6, r31
    5366:	71 1c       	adc	r7, r1
    5368:	f8 01       	movw	r30, r16
    536a:	a0 80       	ld	r10, Z
    536c:	b1 80       	ldd	r11, Z+1	; 0x01
    536e:	26 ff       	sbrs	r18, 6
    5370:	03 c0       	rjmp	.+6      	; 0x5378 <vfprintf+0x150>
    5372:	65 2d       	mov	r22, r5
    5374:	70 e0       	ldi	r23, 0x00	; 0
    5376:	02 c0       	rjmp	.+4      	; 0x537c <vfprintf+0x154>
    5378:	6f ef       	ldi	r22, 0xFF	; 255
    537a:	7f ef       	ldi	r23, 0xFF	; 255
    537c:	c5 01       	movw	r24, r10
    537e:	2c 87       	std	Y+12, r18	; 0x0c
    5380:	4c d1       	rcall	.+664    	; 0x561a <strnlen>
    5382:	2c 01       	movw	r4, r24
    5384:	83 01       	movw	r16, r6
    5386:	2c 85       	ldd	r18, Y+12	; 0x0c
    5388:	2f 77       	andi	r18, 0x7F	; 127
    538a:	22 2e       	mov	r2, r18
    538c:	16 c0       	rjmp	.+44     	; 0x53ba <vfprintf+0x192>
    538e:	38 01       	movw	r6, r16
    5390:	f2 e0       	ldi	r31, 0x02	; 2
    5392:	6f 0e       	add	r6, r31
    5394:	71 1c       	adc	r7, r1
    5396:	f8 01       	movw	r30, r16
    5398:	a0 80       	ld	r10, Z
    539a:	b1 80       	ldd	r11, Z+1	; 0x01
    539c:	26 ff       	sbrs	r18, 6
    539e:	03 c0       	rjmp	.+6      	; 0x53a6 <vfprintf+0x17e>
    53a0:	65 2d       	mov	r22, r5
    53a2:	70 e0       	ldi	r23, 0x00	; 0
    53a4:	02 c0       	rjmp	.+4      	; 0x53aa <vfprintf+0x182>
    53a6:	6f ef       	ldi	r22, 0xFF	; 255
    53a8:	7f ef       	ldi	r23, 0xFF	; 255
    53aa:	c5 01       	movw	r24, r10
    53ac:	2c 87       	std	Y+12, r18	; 0x0c
    53ae:	2a d1       	rcall	.+596    	; 0x5604 <strnlen_P>
    53b0:	2c 01       	movw	r4, r24
    53b2:	2c 85       	ldd	r18, Y+12	; 0x0c
    53b4:	20 68       	ori	r18, 0x80	; 128
    53b6:	22 2e       	mov	r2, r18
    53b8:	83 01       	movw	r16, r6
    53ba:	23 fc       	sbrc	r2, 3
    53bc:	19 c0       	rjmp	.+50     	; 0x53f0 <vfprintf+0x1c8>
    53be:	83 2d       	mov	r24, r3
    53c0:	90 e0       	ldi	r25, 0x00	; 0
    53c2:	48 16       	cp	r4, r24
    53c4:	59 06       	cpc	r5, r25
    53c6:	a0 f4       	brcc	.+40     	; 0x53f0 <vfprintf+0x1c8>
    53c8:	b7 01       	movw	r22, r14
    53ca:	80 e2       	ldi	r24, 0x20	; 32
    53cc:	90 e0       	ldi	r25, 0x00	; 0
    53ce:	30 d1       	rcall	.+608    	; 0x5630 <fputc>
    53d0:	3a 94       	dec	r3
    53d2:	f5 cf       	rjmp	.-22     	; 0x53be <vfprintf+0x196>
    53d4:	f5 01       	movw	r30, r10
    53d6:	27 fc       	sbrc	r2, 7
    53d8:	85 91       	lpm	r24, Z+
    53da:	27 fe       	sbrs	r2, 7
    53dc:	81 91       	ld	r24, Z+
    53de:	5f 01       	movw	r10, r30
    53e0:	b7 01       	movw	r22, r14
    53e2:	90 e0       	ldi	r25, 0x00	; 0
    53e4:	25 d1       	rcall	.+586    	; 0x5630 <fputc>
    53e6:	31 10       	cpse	r3, r1
    53e8:	3a 94       	dec	r3
    53ea:	f1 e0       	ldi	r31, 0x01	; 1
    53ec:	4f 1a       	sub	r4, r31
    53ee:	51 08       	sbc	r5, r1
    53f0:	41 14       	cp	r4, r1
    53f2:	51 04       	cpc	r5, r1
    53f4:	79 f7       	brne	.-34     	; 0x53d4 <vfprintf+0x1ac>
    53f6:	de c0       	rjmp	.+444    	; 0x55b4 <vfprintf+0x38c>
    53f8:	84 36       	cpi	r24, 0x64	; 100
    53fa:	11 f0       	breq	.+4      	; 0x5400 <vfprintf+0x1d8>
    53fc:	89 36       	cpi	r24, 0x69	; 105
    53fe:	31 f5       	brne	.+76     	; 0x544c <vfprintf+0x224>
    5400:	f8 01       	movw	r30, r16
    5402:	27 ff       	sbrs	r18, 7
    5404:	07 c0       	rjmp	.+14     	; 0x5414 <vfprintf+0x1ec>
    5406:	60 81       	ld	r22, Z
    5408:	71 81       	ldd	r23, Z+1	; 0x01
    540a:	82 81       	ldd	r24, Z+2	; 0x02
    540c:	93 81       	ldd	r25, Z+3	; 0x03
    540e:	0c 5f       	subi	r16, 0xFC	; 252
    5410:	1f 4f       	sbci	r17, 0xFF	; 255
    5412:	08 c0       	rjmp	.+16     	; 0x5424 <vfprintf+0x1fc>
    5414:	60 81       	ld	r22, Z
    5416:	71 81       	ldd	r23, Z+1	; 0x01
    5418:	07 2e       	mov	r0, r23
    541a:	00 0c       	add	r0, r0
    541c:	88 0b       	sbc	r24, r24
    541e:	99 0b       	sbc	r25, r25
    5420:	0e 5f       	subi	r16, 0xFE	; 254
    5422:	1f 4f       	sbci	r17, 0xFF	; 255
    5424:	2f 76       	andi	r18, 0x6F	; 111
    5426:	72 2e       	mov	r7, r18
    5428:	97 ff       	sbrs	r25, 7
    542a:	09 c0       	rjmp	.+18     	; 0x543e <vfprintf+0x216>
    542c:	90 95       	com	r25
    542e:	80 95       	com	r24
    5430:	70 95       	com	r23
    5432:	61 95       	neg	r22
    5434:	7f 4f       	sbci	r23, 0xFF	; 255
    5436:	8f 4f       	sbci	r24, 0xFF	; 255
    5438:	9f 4f       	sbci	r25, 0xFF	; 255
    543a:	20 68       	ori	r18, 0x80	; 128
    543c:	72 2e       	mov	r7, r18
    543e:	2a e0       	ldi	r18, 0x0A	; 10
    5440:	30 e0       	ldi	r19, 0x00	; 0
    5442:	a4 01       	movw	r20, r8
    5444:	2d d1       	rcall	.+602    	; 0x56a0 <__ultoa_invert>
    5446:	a8 2e       	mov	r10, r24
    5448:	a8 18       	sub	r10, r8
    544a:	43 c0       	rjmp	.+134    	; 0x54d2 <vfprintf+0x2aa>
    544c:	85 37       	cpi	r24, 0x75	; 117
    544e:	29 f4       	brne	.+10     	; 0x545a <vfprintf+0x232>
    5450:	2f 7e       	andi	r18, 0xEF	; 239
    5452:	b2 2e       	mov	r11, r18
    5454:	2a e0       	ldi	r18, 0x0A	; 10
    5456:	30 e0       	ldi	r19, 0x00	; 0
    5458:	25 c0       	rjmp	.+74     	; 0x54a4 <vfprintf+0x27c>
    545a:	f2 2f       	mov	r31, r18
    545c:	f9 7f       	andi	r31, 0xF9	; 249
    545e:	bf 2e       	mov	r11, r31
    5460:	8f 36       	cpi	r24, 0x6F	; 111
    5462:	c1 f0       	breq	.+48     	; 0x5494 <vfprintf+0x26c>
    5464:	18 f4       	brcc	.+6      	; 0x546c <vfprintf+0x244>
    5466:	88 35       	cpi	r24, 0x58	; 88
    5468:	79 f0       	breq	.+30     	; 0x5488 <vfprintf+0x260>
    546a:	ad c0       	rjmp	.+346    	; 0x55c6 <vfprintf+0x39e>
    546c:	80 37       	cpi	r24, 0x70	; 112
    546e:	19 f0       	breq	.+6      	; 0x5476 <vfprintf+0x24e>
    5470:	88 37       	cpi	r24, 0x78	; 120
    5472:	21 f0       	breq	.+8      	; 0x547c <vfprintf+0x254>
    5474:	a8 c0       	rjmp	.+336    	; 0x55c6 <vfprintf+0x39e>
    5476:	2f 2f       	mov	r18, r31
    5478:	20 61       	ori	r18, 0x10	; 16
    547a:	b2 2e       	mov	r11, r18
    547c:	b4 fe       	sbrs	r11, 4
    547e:	0d c0       	rjmp	.+26     	; 0x549a <vfprintf+0x272>
    5480:	8b 2d       	mov	r24, r11
    5482:	84 60       	ori	r24, 0x04	; 4
    5484:	b8 2e       	mov	r11, r24
    5486:	09 c0       	rjmp	.+18     	; 0x549a <vfprintf+0x272>
    5488:	24 ff       	sbrs	r18, 4
    548a:	0a c0       	rjmp	.+20     	; 0x54a0 <vfprintf+0x278>
    548c:	9f 2f       	mov	r25, r31
    548e:	96 60       	ori	r25, 0x06	; 6
    5490:	b9 2e       	mov	r11, r25
    5492:	06 c0       	rjmp	.+12     	; 0x54a0 <vfprintf+0x278>
    5494:	28 e0       	ldi	r18, 0x08	; 8
    5496:	30 e0       	ldi	r19, 0x00	; 0
    5498:	05 c0       	rjmp	.+10     	; 0x54a4 <vfprintf+0x27c>
    549a:	20 e1       	ldi	r18, 0x10	; 16
    549c:	30 e0       	ldi	r19, 0x00	; 0
    549e:	02 c0       	rjmp	.+4      	; 0x54a4 <vfprintf+0x27c>
    54a0:	20 e1       	ldi	r18, 0x10	; 16
    54a2:	32 e0       	ldi	r19, 0x02	; 2
    54a4:	f8 01       	movw	r30, r16
    54a6:	b7 fe       	sbrs	r11, 7
    54a8:	07 c0       	rjmp	.+14     	; 0x54b8 <vfprintf+0x290>
    54aa:	60 81       	ld	r22, Z
    54ac:	71 81       	ldd	r23, Z+1	; 0x01
    54ae:	82 81       	ldd	r24, Z+2	; 0x02
    54b0:	93 81       	ldd	r25, Z+3	; 0x03
    54b2:	0c 5f       	subi	r16, 0xFC	; 252
    54b4:	1f 4f       	sbci	r17, 0xFF	; 255
    54b6:	06 c0       	rjmp	.+12     	; 0x54c4 <vfprintf+0x29c>
    54b8:	60 81       	ld	r22, Z
    54ba:	71 81       	ldd	r23, Z+1	; 0x01
    54bc:	80 e0       	ldi	r24, 0x00	; 0
    54be:	90 e0       	ldi	r25, 0x00	; 0
    54c0:	0e 5f       	subi	r16, 0xFE	; 254
    54c2:	1f 4f       	sbci	r17, 0xFF	; 255
    54c4:	a4 01       	movw	r20, r8
    54c6:	ec d0       	rcall	.+472    	; 0x56a0 <__ultoa_invert>
    54c8:	a8 2e       	mov	r10, r24
    54ca:	a8 18       	sub	r10, r8
    54cc:	fb 2d       	mov	r31, r11
    54ce:	ff 77       	andi	r31, 0x7F	; 127
    54d0:	7f 2e       	mov	r7, r31
    54d2:	76 fe       	sbrs	r7, 6
    54d4:	0b c0       	rjmp	.+22     	; 0x54ec <vfprintf+0x2c4>
    54d6:	37 2d       	mov	r19, r7
    54d8:	3e 7f       	andi	r19, 0xFE	; 254
    54da:	a5 14       	cp	r10, r5
    54dc:	50 f4       	brcc	.+20     	; 0x54f2 <vfprintf+0x2ca>
    54de:	74 fe       	sbrs	r7, 4
    54e0:	0a c0       	rjmp	.+20     	; 0x54f6 <vfprintf+0x2ce>
    54e2:	72 fc       	sbrc	r7, 2
    54e4:	08 c0       	rjmp	.+16     	; 0x54f6 <vfprintf+0x2ce>
    54e6:	37 2d       	mov	r19, r7
    54e8:	3e 7e       	andi	r19, 0xEE	; 238
    54ea:	05 c0       	rjmp	.+10     	; 0x54f6 <vfprintf+0x2ce>
    54ec:	ba 2c       	mov	r11, r10
    54ee:	37 2d       	mov	r19, r7
    54f0:	03 c0       	rjmp	.+6      	; 0x54f8 <vfprintf+0x2d0>
    54f2:	ba 2c       	mov	r11, r10
    54f4:	01 c0       	rjmp	.+2      	; 0x54f8 <vfprintf+0x2d0>
    54f6:	b5 2c       	mov	r11, r5
    54f8:	34 ff       	sbrs	r19, 4
    54fa:	0d c0       	rjmp	.+26     	; 0x5516 <vfprintf+0x2ee>
    54fc:	fe 01       	movw	r30, r28
    54fe:	ea 0d       	add	r30, r10
    5500:	f1 1d       	adc	r31, r1
    5502:	80 81       	ld	r24, Z
    5504:	80 33       	cpi	r24, 0x30	; 48
    5506:	11 f4       	brne	.+4      	; 0x550c <vfprintf+0x2e4>
    5508:	39 7e       	andi	r19, 0xE9	; 233
    550a:	09 c0       	rjmp	.+18     	; 0x551e <vfprintf+0x2f6>
    550c:	32 ff       	sbrs	r19, 2
    550e:	06 c0       	rjmp	.+12     	; 0x551c <vfprintf+0x2f4>
    5510:	b3 94       	inc	r11
    5512:	b3 94       	inc	r11
    5514:	04 c0       	rjmp	.+8      	; 0x551e <vfprintf+0x2f6>
    5516:	83 2f       	mov	r24, r19
    5518:	86 78       	andi	r24, 0x86	; 134
    551a:	09 f0       	breq	.+2      	; 0x551e <vfprintf+0x2f6>
    551c:	b3 94       	inc	r11
    551e:	33 fd       	sbrc	r19, 3
    5520:	12 c0       	rjmp	.+36     	; 0x5546 <vfprintf+0x31e>
    5522:	30 ff       	sbrs	r19, 0
    5524:	06 c0       	rjmp	.+12     	; 0x5532 <vfprintf+0x30a>
    5526:	5a 2c       	mov	r5, r10
    5528:	b3 14       	cp	r11, r3
    552a:	18 f4       	brcc	.+6      	; 0x5532 <vfprintf+0x30a>
    552c:	53 0c       	add	r5, r3
    552e:	5b 18       	sub	r5, r11
    5530:	b3 2c       	mov	r11, r3
    5532:	b3 14       	cp	r11, r3
    5534:	60 f4       	brcc	.+24     	; 0x554e <vfprintf+0x326>
    5536:	b7 01       	movw	r22, r14
    5538:	80 e2       	ldi	r24, 0x20	; 32
    553a:	90 e0       	ldi	r25, 0x00	; 0
    553c:	3c 87       	std	Y+12, r19	; 0x0c
    553e:	78 d0       	rcall	.+240    	; 0x5630 <fputc>
    5540:	b3 94       	inc	r11
    5542:	3c 85       	ldd	r19, Y+12	; 0x0c
    5544:	f6 cf       	rjmp	.-20     	; 0x5532 <vfprintf+0x30a>
    5546:	b3 14       	cp	r11, r3
    5548:	10 f4       	brcc	.+4      	; 0x554e <vfprintf+0x326>
    554a:	3b 18       	sub	r3, r11
    554c:	01 c0       	rjmp	.+2      	; 0x5550 <vfprintf+0x328>
    554e:	31 2c       	mov	r3, r1
    5550:	34 ff       	sbrs	r19, 4
    5552:	11 c0       	rjmp	.+34     	; 0x5576 <vfprintf+0x34e>
    5554:	b7 01       	movw	r22, r14
    5556:	80 e3       	ldi	r24, 0x30	; 48
    5558:	90 e0       	ldi	r25, 0x00	; 0
    555a:	3c 87       	std	Y+12, r19	; 0x0c
    555c:	69 d0       	rcall	.+210    	; 0x5630 <fputc>
    555e:	3c 85       	ldd	r19, Y+12	; 0x0c
    5560:	32 ff       	sbrs	r19, 2
    5562:	16 c0       	rjmp	.+44     	; 0x5590 <vfprintf+0x368>
    5564:	31 fd       	sbrc	r19, 1
    5566:	03 c0       	rjmp	.+6      	; 0x556e <vfprintf+0x346>
    5568:	88 e7       	ldi	r24, 0x78	; 120
    556a:	90 e0       	ldi	r25, 0x00	; 0
    556c:	02 c0       	rjmp	.+4      	; 0x5572 <vfprintf+0x34a>
    556e:	88 e5       	ldi	r24, 0x58	; 88
    5570:	90 e0       	ldi	r25, 0x00	; 0
    5572:	b7 01       	movw	r22, r14
    5574:	0c c0       	rjmp	.+24     	; 0x558e <vfprintf+0x366>
    5576:	83 2f       	mov	r24, r19
    5578:	86 78       	andi	r24, 0x86	; 134
    557a:	51 f0       	breq	.+20     	; 0x5590 <vfprintf+0x368>
    557c:	31 ff       	sbrs	r19, 1
    557e:	02 c0       	rjmp	.+4      	; 0x5584 <vfprintf+0x35c>
    5580:	8b e2       	ldi	r24, 0x2B	; 43
    5582:	01 c0       	rjmp	.+2      	; 0x5586 <vfprintf+0x35e>
    5584:	80 e2       	ldi	r24, 0x20	; 32
    5586:	37 fd       	sbrc	r19, 7
    5588:	8d e2       	ldi	r24, 0x2D	; 45
    558a:	b7 01       	movw	r22, r14
    558c:	90 e0       	ldi	r25, 0x00	; 0
    558e:	50 d0       	rcall	.+160    	; 0x5630 <fputc>
    5590:	a5 14       	cp	r10, r5
    5592:	30 f4       	brcc	.+12     	; 0x55a0 <vfprintf+0x378>
    5594:	b7 01       	movw	r22, r14
    5596:	80 e3       	ldi	r24, 0x30	; 48
    5598:	90 e0       	ldi	r25, 0x00	; 0
    559a:	4a d0       	rcall	.+148    	; 0x5630 <fputc>
    559c:	5a 94       	dec	r5
    559e:	f8 cf       	rjmp	.-16     	; 0x5590 <vfprintf+0x368>
    55a0:	aa 94       	dec	r10
    55a2:	f4 01       	movw	r30, r8
    55a4:	ea 0d       	add	r30, r10
    55a6:	f1 1d       	adc	r31, r1
    55a8:	80 81       	ld	r24, Z
    55aa:	b7 01       	movw	r22, r14
    55ac:	90 e0       	ldi	r25, 0x00	; 0
    55ae:	40 d0       	rcall	.+128    	; 0x5630 <fputc>
    55b0:	a1 10       	cpse	r10, r1
    55b2:	f6 cf       	rjmp	.-20     	; 0x55a0 <vfprintf+0x378>
    55b4:	33 20       	and	r3, r3
    55b6:	09 f4       	brne	.+2      	; 0x55ba <vfprintf+0x392>
    55b8:	5d ce       	rjmp	.-838    	; 0x5274 <vfprintf+0x4c>
    55ba:	b7 01       	movw	r22, r14
    55bc:	80 e2       	ldi	r24, 0x20	; 32
    55be:	90 e0       	ldi	r25, 0x00	; 0
    55c0:	37 d0       	rcall	.+110    	; 0x5630 <fputc>
    55c2:	3a 94       	dec	r3
    55c4:	f7 cf       	rjmp	.-18     	; 0x55b4 <vfprintf+0x38c>
    55c6:	f7 01       	movw	r30, r14
    55c8:	86 81       	ldd	r24, Z+6	; 0x06
    55ca:	97 81       	ldd	r25, Z+7	; 0x07
    55cc:	02 c0       	rjmp	.+4      	; 0x55d2 <vfprintf+0x3aa>
    55ce:	8f ef       	ldi	r24, 0xFF	; 255
    55d0:	9f ef       	ldi	r25, 0xFF	; 255
    55d2:	2c 96       	adiw	r28, 0x0c	; 12
    55d4:	0f b6       	in	r0, 0x3f	; 63
    55d6:	f8 94       	cli
    55d8:	de bf       	out	0x3e, r29	; 62
    55da:	0f be       	out	0x3f, r0	; 63
    55dc:	cd bf       	out	0x3d, r28	; 61
    55de:	df 91       	pop	r29
    55e0:	cf 91       	pop	r28
    55e2:	1f 91       	pop	r17
    55e4:	0f 91       	pop	r16
    55e6:	ff 90       	pop	r15
    55e8:	ef 90       	pop	r14
    55ea:	df 90       	pop	r13
    55ec:	cf 90       	pop	r12
    55ee:	bf 90       	pop	r11
    55f0:	af 90       	pop	r10
    55f2:	9f 90       	pop	r9
    55f4:	8f 90       	pop	r8
    55f6:	7f 90       	pop	r7
    55f8:	6f 90       	pop	r6
    55fa:	5f 90       	pop	r5
    55fc:	4f 90       	pop	r4
    55fe:	3f 90       	pop	r3
    5600:	2f 90       	pop	r2
    5602:	08 95       	ret

00005604 <strnlen_P>:
    5604:	fc 01       	movw	r30, r24
    5606:	05 90       	lpm	r0, Z+
    5608:	61 50       	subi	r22, 0x01	; 1
    560a:	70 40       	sbci	r23, 0x00	; 0
    560c:	01 10       	cpse	r0, r1
    560e:	d8 f7       	brcc	.-10     	; 0x5606 <strnlen_P+0x2>
    5610:	80 95       	com	r24
    5612:	90 95       	com	r25
    5614:	8e 0f       	add	r24, r30
    5616:	9f 1f       	adc	r25, r31
    5618:	08 95       	ret

0000561a <strnlen>:
    561a:	fc 01       	movw	r30, r24
    561c:	61 50       	subi	r22, 0x01	; 1
    561e:	70 40       	sbci	r23, 0x00	; 0
    5620:	01 90       	ld	r0, Z+
    5622:	01 10       	cpse	r0, r1
    5624:	d8 f7       	brcc	.-10     	; 0x561c <strnlen+0x2>
    5626:	80 95       	com	r24
    5628:	90 95       	com	r25
    562a:	8e 0f       	add	r24, r30
    562c:	9f 1f       	adc	r25, r31
    562e:	08 95       	ret

00005630 <fputc>:
    5630:	0f 93       	push	r16
    5632:	1f 93       	push	r17
    5634:	cf 93       	push	r28
    5636:	df 93       	push	r29
    5638:	fb 01       	movw	r30, r22
    563a:	23 81       	ldd	r18, Z+3	; 0x03
    563c:	21 fd       	sbrc	r18, 1
    563e:	03 c0       	rjmp	.+6      	; 0x5646 <fputc+0x16>
    5640:	8f ef       	ldi	r24, 0xFF	; 255
    5642:	9f ef       	ldi	r25, 0xFF	; 255
    5644:	28 c0       	rjmp	.+80     	; 0x5696 <fputc+0x66>
    5646:	22 ff       	sbrs	r18, 2
    5648:	16 c0       	rjmp	.+44     	; 0x5676 <fputc+0x46>
    564a:	46 81       	ldd	r20, Z+6	; 0x06
    564c:	57 81       	ldd	r21, Z+7	; 0x07
    564e:	24 81       	ldd	r18, Z+4	; 0x04
    5650:	35 81       	ldd	r19, Z+5	; 0x05
    5652:	42 17       	cp	r20, r18
    5654:	53 07       	cpc	r21, r19
    5656:	44 f4       	brge	.+16     	; 0x5668 <fputc+0x38>
    5658:	a0 81       	ld	r26, Z
    565a:	b1 81       	ldd	r27, Z+1	; 0x01
    565c:	9d 01       	movw	r18, r26
    565e:	2f 5f       	subi	r18, 0xFF	; 255
    5660:	3f 4f       	sbci	r19, 0xFF	; 255
    5662:	31 83       	std	Z+1, r19	; 0x01
    5664:	20 83       	st	Z, r18
    5666:	8c 93       	st	X, r24
    5668:	26 81       	ldd	r18, Z+6	; 0x06
    566a:	37 81       	ldd	r19, Z+7	; 0x07
    566c:	2f 5f       	subi	r18, 0xFF	; 255
    566e:	3f 4f       	sbci	r19, 0xFF	; 255
    5670:	37 83       	std	Z+7, r19	; 0x07
    5672:	26 83       	std	Z+6, r18	; 0x06
    5674:	10 c0       	rjmp	.+32     	; 0x5696 <fputc+0x66>
    5676:	eb 01       	movw	r28, r22
    5678:	09 2f       	mov	r16, r25
    567a:	18 2f       	mov	r17, r24
    567c:	00 84       	ldd	r0, Z+8	; 0x08
    567e:	f1 85       	ldd	r31, Z+9	; 0x09
    5680:	e0 2d       	mov	r30, r0
    5682:	09 95       	icall
    5684:	89 2b       	or	r24, r25
    5686:	e1 f6       	brne	.-72     	; 0x5640 <fputc+0x10>
    5688:	8e 81       	ldd	r24, Y+6	; 0x06
    568a:	9f 81       	ldd	r25, Y+7	; 0x07
    568c:	01 96       	adiw	r24, 0x01	; 1
    568e:	9f 83       	std	Y+7, r25	; 0x07
    5690:	8e 83       	std	Y+6, r24	; 0x06
    5692:	81 2f       	mov	r24, r17
    5694:	90 2f       	mov	r25, r16
    5696:	df 91       	pop	r29
    5698:	cf 91       	pop	r28
    569a:	1f 91       	pop	r17
    569c:	0f 91       	pop	r16
    569e:	08 95       	ret

000056a0 <__ultoa_invert>:
    56a0:	fa 01       	movw	r30, r20
    56a2:	aa 27       	eor	r26, r26
    56a4:	28 30       	cpi	r18, 0x08	; 8
    56a6:	51 f1       	breq	.+84     	; 0x56fc <__ultoa_invert+0x5c>
    56a8:	20 31       	cpi	r18, 0x10	; 16
    56aa:	81 f1       	breq	.+96     	; 0x570c <__ultoa_invert+0x6c>
    56ac:	e8 94       	clt
    56ae:	6f 93       	push	r22
    56b0:	6e 7f       	andi	r22, 0xFE	; 254
    56b2:	6e 5f       	subi	r22, 0xFE	; 254
    56b4:	7f 4f       	sbci	r23, 0xFF	; 255
    56b6:	8f 4f       	sbci	r24, 0xFF	; 255
    56b8:	9f 4f       	sbci	r25, 0xFF	; 255
    56ba:	af 4f       	sbci	r26, 0xFF	; 255
    56bc:	b1 e0       	ldi	r27, 0x01	; 1
    56be:	3e d0       	rcall	.+124    	; 0x573c <__ultoa_invert+0x9c>
    56c0:	b4 e0       	ldi	r27, 0x04	; 4
    56c2:	3c d0       	rcall	.+120    	; 0x573c <__ultoa_invert+0x9c>
    56c4:	67 0f       	add	r22, r23
    56c6:	78 1f       	adc	r23, r24
    56c8:	89 1f       	adc	r24, r25
    56ca:	9a 1f       	adc	r25, r26
    56cc:	a1 1d       	adc	r26, r1
    56ce:	68 0f       	add	r22, r24
    56d0:	79 1f       	adc	r23, r25
    56d2:	8a 1f       	adc	r24, r26
    56d4:	91 1d       	adc	r25, r1
    56d6:	a1 1d       	adc	r26, r1
    56d8:	6a 0f       	add	r22, r26
    56da:	71 1d       	adc	r23, r1
    56dc:	81 1d       	adc	r24, r1
    56de:	91 1d       	adc	r25, r1
    56e0:	a1 1d       	adc	r26, r1
    56e2:	20 d0       	rcall	.+64     	; 0x5724 <__ultoa_invert+0x84>
    56e4:	09 f4       	brne	.+2      	; 0x56e8 <__ultoa_invert+0x48>
    56e6:	68 94       	set
    56e8:	3f 91       	pop	r19
    56ea:	2a e0       	ldi	r18, 0x0A	; 10
    56ec:	26 9f       	mul	r18, r22
    56ee:	11 24       	eor	r1, r1
    56f0:	30 19       	sub	r19, r0
    56f2:	30 5d       	subi	r19, 0xD0	; 208
    56f4:	31 93       	st	Z+, r19
    56f6:	de f6       	brtc	.-74     	; 0x56ae <__ultoa_invert+0xe>
    56f8:	cf 01       	movw	r24, r30
    56fa:	08 95       	ret
    56fc:	46 2f       	mov	r20, r22
    56fe:	47 70       	andi	r20, 0x07	; 7
    5700:	40 5d       	subi	r20, 0xD0	; 208
    5702:	41 93       	st	Z+, r20
    5704:	b3 e0       	ldi	r27, 0x03	; 3
    5706:	0f d0       	rcall	.+30     	; 0x5726 <__ultoa_invert+0x86>
    5708:	c9 f7       	brne	.-14     	; 0x56fc <__ultoa_invert+0x5c>
    570a:	f6 cf       	rjmp	.-20     	; 0x56f8 <__ultoa_invert+0x58>
    570c:	46 2f       	mov	r20, r22
    570e:	4f 70       	andi	r20, 0x0F	; 15
    5710:	40 5d       	subi	r20, 0xD0	; 208
    5712:	4a 33       	cpi	r20, 0x3A	; 58
    5714:	18 f0       	brcs	.+6      	; 0x571c <__ultoa_invert+0x7c>
    5716:	49 5d       	subi	r20, 0xD9	; 217
    5718:	31 fd       	sbrc	r19, 1
    571a:	40 52       	subi	r20, 0x20	; 32
    571c:	41 93       	st	Z+, r20
    571e:	02 d0       	rcall	.+4      	; 0x5724 <__ultoa_invert+0x84>
    5720:	a9 f7       	brne	.-22     	; 0x570c <__ultoa_invert+0x6c>
    5722:	ea cf       	rjmp	.-44     	; 0x56f8 <__ultoa_invert+0x58>
    5724:	b4 e0       	ldi	r27, 0x04	; 4
    5726:	a6 95       	lsr	r26
    5728:	97 95       	ror	r25
    572a:	87 95       	ror	r24
    572c:	77 95       	ror	r23
    572e:	67 95       	ror	r22
    5730:	ba 95       	dec	r27
    5732:	c9 f7       	brne	.-14     	; 0x5726 <__ultoa_invert+0x86>
    5734:	00 97       	sbiw	r24, 0x00	; 0
    5736:	61 05       	cpc	r22, r1
    5738:	71 05       	cpc	r23, r1
    573a:	08 95       	ret
    573c:	9b 01       	movw	r18, r22
    573e:	ac 01       	movw	r20, r24
    5740:	0a 2e       	mov	r0, r26
    5742:	06 94       	lsr	r0
    5744:	57 95       	ror	r21
    5746:	47 95       	ror	r20
    5748:	37 95       	ror	r19
    574a:	27 95       	ror	r18
    574c:	ba 95       	dec	r27
    574e:	c9 f7       	brne	.-14     	; 0x5742 <__ultoa_invert+0xa2>
    5750:	62 0f       	add	r22, r18
    5752:	73 1f       	adc	r23, r19
    5754:	84 1f       	adc	r24, r20
    5756:	95 1f       	adc	r25, r21
    5758:	a0 1d       	adc	r26, r0
    575a:	08 95       	ret

0000575c <eeprom_read_byte>:
    575c:	e1 99       	sbic	0x1c, 1	; 28
    575e:	fe cf       	rjmp	.-4      	; 0x575c <eeprom_read_byte>
    5760:	9f bb       	out	0x1f, r25	; 31
    5762:	8e bb       	out	0x1e, r24	; 30
    5764:	e0 9a       	sbi	0x1c, 0	; 28
    5766:	99 27       	eor	r25, r25
    5768:	8d b3       	in	r24, 0x1d	; 29
    576a:	08 95       	ret

0000576c <eeprom_read_dword>:
    576c:	a6 e1       	ldi	r26, 0x16	; 22
    576e:	b0 e0       	ldi	r27, 0x00	; 0
    5770:	44 e0       	ldi	r20, 0x04	; 4
    5772:	50 e0       	ldi	r21, 0x00	; 0
    5774:	1c c0       	rjmp	.+56     	; 0x57ae <eeprom_read_blraw>

00005776 <eeprom_read_word>:
    5776:	a8 e1       	ldi	r26, 0x18	; 24
    5778:	b0 e0       	ldi	r27, 0x00	; 0
    577a:	42 e0       	ldi	r20, 0x02	; 2
    577c:	50 e0       	ldi	r21, 0x00	; 0
    577e:	17 c0       	rjmp	.+46     	; 0x57ae <eeprom_read_blraw>

00005780 <eeprom_write_byte>:
    5780:	26 2f       	mov	r18, r22

00005782 <eeprom_write_r18>:
    5782:	e1 99       	sbic	0x1c, 1	; 28
    5784:	fe cf       	rjmp	.-4      	; 0x5782 <eeprom_write_r18>
    5786:	9f bb       	out	0x1f, r25	; 31
    5788:	8e bb       	out	0x1e, r24	; 30
    578a:	2d bb       	out	0x1d, r18	; 29
    578c:	0f b6       	in	r0, 0x3f	; 63
    578e:	f8 94       	cli
    5790:	e2 9a       	sbi	0x1c, 2	; 28
    5792:	e1 9a       	sbi	0x1c, 1	; 28
    5794:	0f be       	out	0x3f, r0	; 63
    5796:	01 96       	adiw	r24, 0x01	; 1
    5798:	08 95       	ret

0000579a <eeprom_write_dword>:
    579a:	24 2f       	mov	r18, r20
    579c:	f2 df       	rcall	.-28     	; 0x5782 <eeprom_write_r18>
    579e:	25 2f       	mov	r18, r21
    57a0:	f0 df       	rcall	.-32     	; 0x5782 <eeprom_write_r18>
    57a2:	00 c0       	rjmp	.+0      	; 0x57a4 <eeprom_write_word>

000057a4 <eeprom_write_word>:
    57a4:	ed df       	rcall	.-38     	; 0x5780 <eeprom_write_byte>
    57a6:	27 2f       	mov	r18, r23
    57a8:	ec cf       	rjmp	.-40     	; 0x5782 <eeprom_write_r18>

000057aa <eeprom_read_block>:
    57aa:	dc 01       	movw	r26, r24
    57ac:	cb 01       	movw	r24, r22

000057ae <eeprom_read_blraw>:
    57ae:	fc 01       	movw	r30, r24
    57b0:	e1 99       	sbic	0x1c, 1	; 28
    57b2:	fe cf       	rjmp	.-4      	; 0x57b0 <eeprom_read_blraw+0x2>
    57b4:	06 c0       	rjmp	.+12     	; 0x57c2 <eeprom_read_blraw+0x14>
    57b6:	ff bb       	out	0x1f, r31	; 31
    57b8:	ee bb       	out	0x1e, r30	; 30
    57ba:	e0 9a       	sbi	0x1c, 0	; 28
    57bc:	31 96       	adiw	r30, 0x01	; 1
    57be:	0d b2       	in	r0, 0x1d	; 29
    57c0:	0d 92       	st	X+, r0
    57c2:	41 50       	subi	r20, 0x01	; 1
    57c4:	50 40       	sbci	r21, 0x00	; 0
    57c6:	b8 f7       	brcc	.-18     	; 0x57b6 <eeprom_read_blraw+0x8>
    57c8:	08 95       	ret

000057ca <_exit>:
    57ca:	f8 94       	cli

000057cc <__stop_program>:
    57cc:	ff cf       	rjmp	.-2      	; 0x57cc <__stop_program>
